
/home/xxxx/github/scr1/build/coremark.elf:     file format elf32-littleriscv


Disassembly of section .text.init:

00000000 <SIM_EXIT-0xf4>:
	...

000000f4 <SIM_EXIT>:
  f4:	00000013          	nop

000000f8 <SIM_STOP>:
  f8:	0000006f          	j	f8 <SIM_STOP>
  fc:	ffff                	0xffff
  fe:	ffff                	0xffff

Disassembly of section .text:

00000100 <machine_trap_entry-0xc0>:
	...

000001c0 <machine_trap_entry>:
     1c0:	0a20006f          	j	262 <trap_entry>
     1c4:	00000013          	nop
     1c8:	00000013          	nop
     1cc:	00000013          	nop
     1d0:	00000013          	nop
     1d4:	00000013          	nop
     1d8:	00000013          	nop
     1dc:	00000013          	nop
     1e0:	00000013          	nop
     1e4:	00000013          	nop
     1e8:	00000013          	nop
     1ec:	00000013          	nop
     1f0:	00000013          	nop
     1f4:	00000013          	nop
     1f8:	00000013          	nop
     1fc:	00000013          	nop

00000200 <_start>:
     200:	00006597          	auipc	a1,0x6
     204:	98058593          	addi	a1,a1,-1664 # 5b80 <__BSS_START__>
     208:	00006617          	auipc	a2,0x6
     20c:	17860613          	addi	a2,a2,376 # 6380 <__BSS_END__>
     210:	a021                	j	218 <_start+0x18>
     212:	0005a023          	sw	zero,0(a1)
     216:	0591                	addi	a1,a1,4
     218:	fec59de3          	bne	a1,a2,212 <_start+0x12>
     21c:	6199                	lui	gp,0x6
     21e:	34018193          	addi	gp,gp,832 # 6340 <_gp>
     222:	00010117          	auipc	sp,0x10
     226:	dde10113          	addi	sp,sp,-546 # 10000 <__C_STACK_TOP__>
     22a:	004902b7          	lui	t0,0x490
     22e:	4305                	li	t1,1
     230:	0062a023          	sw	t1,0(t0) # 490000 <__C_STACK_TOP__+0x480000>
     234:	004902b7          	lui	t0,0x490
     238:	00428293          	addi	t0,t0,4 # 490004 <__C_STACK_TOP__+0x480004>
     23c:	06300313          	li	t1,99
     240:	0062a023          	sw	t1,0(t0)
     244:	004902b7          	lui	t0,0x490
     248:	01028293          	addi	t0,t0,16 # 490010 <__C_STACK_TOP__+0x480010>
     24c:	537d                	li	t1,-1
     24e:	0062a023          	sw	t1,0(t0)
     252:	0062a223          	sw	t1,4(t0)
     256:	4501                	li	a0,0
     258:	4581                	li	a1,0
     25a:	49c030ef          	jal	ra,36f6 <main>
     25e:	0960006f          	j	2f4 <handle_trap>

00000262 <trap_entry>:
     262:	716d                	addi	sp,sp,-272
     264:	c206                	sw	ra,4(sp)
     266:	c40a                	sw	sp,8(sp)
     268:	c60e                	sw	gp,12(sp)
     26a:	c812                	sw	tp,16(sp)
     26c:	ca16                	sw	t0,20(sp)
     26e:	cc1a                	sw	t1,24(sp)
     270:	ce1e                	sw	t2,28(sp)
     272:	d022                	sw	s0,32(sp)
     274:	d226                	sw	s1,36(sp)
     276:	d42a                	sw	a0,40(sp)
     278:	d62e                	sw	a1,44(sp)
     27a:	d832                	sw	a2,48(sp)
     27c:	da36                	sw	a3,52(sp)
     27e:	dc3a                	sw	a4,56(sp)
     280:	de3e                	sw	a5,60(sp)
     282:	c0c2                	sw	a6,64(sp)
     284:	c2c6                	sw	a7,68(sp)
     286:	c4ca                	sw	s2,72(sp)
     288:	c6ce                	sw	s3,76(sp)
     28a:	c8d2                	sw	s4,80(sp)
     28c:	cad6                	sw	s5,84(sp)
     28e:	ccda                	sw	s6,88(sp)
     290:	cede                	sw	s7,92(sp)
     292:	d0e2                	sw	s8,96(sp)
     294:	d2e6                	sw	s9,100(sp)
     296:	d4ea                	sw	s10,104(sp)
     298:	d6ee                	sw	s11,108(sp)
     29a:	d8f2                	sw	t3,112(sp)
     29c:	daf6                	sw	t4,116(sp)
     29e:	dcfa                	sw	t5,120(sp)
     2a0:	defe                	sw	t6,124(sp)
     2a2:	34202573          	csrr	a0,mcause
     2a6:	341025f3          	csrr	a1,mepc
     2aa:	860a                	mv	a2,sp
     2ac:	048000ef          	jal	ra,2f4 <handle_trap>
     2b0:	4092                	lw	ra,4(sp)
     2b2:	4122                	lw	sp,8(sp)
     2b4:	41b2                	lw	gp,12(sp)
     2b6:	4242                	lw	tp,16(sp)
     2b8:	42d2                	lw	t0,20(sp)
     2ba:	4362                	lw	t1,24(sp)
     2bc:	43f2                	lw	t2,28(sp)
     2be:	5402                	lw	s0,32(sp)
     2c0:	5492                	lw	s1,36(sp)
     2c2:	5522                	lw	a0,40(sp)
     2c4:	55b2                	lw	a1,44(sp)
     2c6:	5642                	lw	a2,48(sp)
     2c8:	56d2                	lw	a3,52(sp)
     2ca:	5762                	lw	a4,56(sp)
     2cc:	57f2                	lw	a5,60(sp)
     2ce:	4806                	lw	a6,64(sp)
     2d0:	4896                	lw	a7,68(sp)
     2d2:	4926                	lw	s2,72(sp)
     2d4:	49b6                	lw	s3,76(sp)
     2d6:	4a46                	lw	s4,80(sp)
     2d8:	4ad6                	lw	s5,84(sp)
     2da:	4b66                	lw	s6,88(sp)
     2dc:	4bf6                	lw	s7,92(sp)
     2de:	5c06                	lw	s8,96(sp)
     2e0:	5c96                	lw	s9,100(sp)
     2e2:	5d26                	lw	s10,104(sp)
     2e4:	5db6                	lw	s11,108(sp)
     2e6:	5e46                	lw	t3,112(sp)
     2e8:	5ed6                	lw	t4,116(sp)
     2ea:	5f66                	lw	t5,120(sp)
     2ec:	5ff6                	lw	t6,124(sp)
     2ee:	6151                	addi	sp,sp,272
     2f0:	30200073          	mret

000002f4 <handle_trap>:
     2f4:	e01ff06f          	j	f4 <SIM_EXIT>
     2f8:	0000                	unimp
     2fa:	0000                	unimp
	...

000002fe <barebones_clock>:
     2fe:	c0102573          	rdtime	a0
     302:	8082                	ret

00000304 <start_time>:
     304:	c0102773          	rdtime	a4
     308:	6799                	lui	a5,0x6
     30a:	b8e7a223          	sw	a4,-1148(a5) # 5b84 <start_time_val>
     30e:	8082                	ret

00000310 <stop_time>:
     310:	c0102773          	rdtime	a4
     314:	6799                	lui	a5,0x6
     316:	b8e7a023          	sw	a4,-1152(a5) # 5b80 <__BSS_START__>
     31a:	8082                	ret

0000031c <get_time>:
     31c:	6799                	lui	a5,0x6
     31e:	6299                	lui	t0,0x6
     320:	b807a503          	lw	a0,-1152(a5) # 5b80 <__BSS_START__>
     324:	b842a303          	lw	t1,-1148(t0) # 5b84 <start_time_val>
     328:	40650533          	sub	a0,a0,t1
     32c:	8082                	ret

0000032e <time_in_secs>:
     32e:	009897b7          	lui	a5,0x989
     332:	68078293          	addi	t0,a5,1664 # 989680 <__C_STACK_TOP__+0x979680>
     336:	02555533          	divu	a0,a0,t0
     33a:	8082                	ret

0000033c <portable_init>:
     33c:	1141                	addi	sp,sp,-16
     33e:	c422                	sw	s0,8(sp)
     340:	842a                	mv	s0,a0
     342:	00005537          	lui	a0,0x5
     346:	34050513          	addi	a0,a0,832 # 5340 <__umoddi3+0x428>
     34a:	c606                	sw	ra,12(sp)
     34c:	15d000ef          	jal	ra,ca8 <sc_printf>
     350:	4785                	li	a5,1
     352:	00f40023          	sb	a5,0(s0)
     356:	40b2                	lw	ra,12(sp)
     358:	4422                	lw	s0,8(sp)
     35a:	0141                	addi	sp,sp,16
     35c:	8082                	ret

0000035e <portable_fini>:
     35e:	1141                	addi	sp,sp,-16
     360:	c606                	sw	ra,12(sp)
     362:	00050023          	sb	zero,0(a0)
     366:	4701                	li	a4,0
     368:	4681                	li	a3,0
     36a:	4601                	li	a2,0
     36c:	4581                	li	a1,0
     36e:	4501                	li	a0,0
     370:	3751                	jal	2f4 <handle_trap>

00000372 <printf_putch>:
     372:	04022603          	lw	a2,64(tp) # 40 <buflen.1937>
     376:	00020293          	mv	t0,tp
     37a:	00160593          	addi	a1,a2,1
     37e:	00c28333          	add	t1,t0,a2
     382:	04b22023          	sw	a1,64(tp) # 40 <buflen.1937>
     386:	00a30023          	sb	a0,0(t1)
     38a:	43a9                	li	t2,10
     38c:	00750763          	beq	a0,t2,39a <printf_putch+0x28>
     390:	04000513          	li	a0,64
     394:	00a58563          	beq	a1,a0,39e <printf_putch+0x2c>
     398:	8082                	ret
     39a:	0eb05d63          	blez	a1,494 <STACK_SIZE+0x94>
     39e:	00020e13          	mv	t3,tp
     3a2:	001e0793          	addi	a5,t3,1
     3a6:	fff7ce83          	lbu	t4,-1(a5)
     3aa:	fffe4f13          	not	t5,t3
     3ae:	f0000fb7          	lui	t6,0xf0000
     3b2:	01ee06b3          	add	a3,t3,t5
     3b6:	00b68633          	add	a2,a3,a1
     3ba:	01df8023          	sb	t4,0(t6) # f0000000 <__C_STACK_TOP__+0xefff0000>
     3be:	fff58713          	addi	a4,a1,-1
     3c2:	00767293          	andi	t0,a2,7
     3c6:	0ce05763          	blez	a4,494 <STACK_SIZE+0x94>
     3ca:	06028e63          	beqz	t0,446 <STACK_SIZE+0x46>
     3ce:	4305                	li	t1,1
     3d0:	06628063          	beq	t0,t1,430 <STACK_SIZE+0x30>
     3d4:	4389                	li	t2,2
     3d6:	04728863          	beq	t0,t2,426 <STACK_SIZE+0x26>
     3da:	450d                	li	a0,3
     3dc:	04a28063          	beq	t0,a0,41c <STACK_SIZE+0x1c>
     3e0:	4891                	li	a7,4
     3e2:	03128863          	beq	t0,a7,412 <STACK_SIZE+0x12>
     3e6:	4e95                	li	t4,5
     3e8:	03d28063          	beq	t0,t4,408 <STACK_SIZE+0x8>
     3ec:	4f19                	li	t5,6
     3ee:	01e28863          	beq	t0,t5,3fe <printf_putch+0x8c>
     3f2:	001e4683          	lbu	a3,1(t3)
     3f6:	002e0793          	addi	a5,t3,2
     3fa:	00df8023          	sb	a3,0(t6)
     3fe:	0007c603          	lbu	a2,0(a5)
     402:	0785                	addi	a5,a5,1
     404:	00cf8023          	sb	a2,0(t6)
     408:	0007c703          	lbu	a4,0(a5)
     40c:	0785                	addi	a5,a5,1
     40e:	00ef8023          	sb	a4,0(t6)
     412:	0007c283          	lbu	t0,0(a5)
     416:	0785                	addi	a5,a5,1
     418:	005f8023          	sb	t0,0(t6)
     41c:	0007c303          	lbu	t1,0(a5)
     420:	0785                	addi	a5,a5,1
     422:	006f8023          	sb	t1,0(t6)
     426:	0007c383          	lbu	t2,0(a5)
     42a:	0785                	addi	a5,a5,1
     42c:	007f8023          	sb	t2,0(t6)
     430:	0785                	addi	a5,a5,1
     432:	fff7c503          	lbu	a0,-1(a5)
     436:	40fe08b3          	sub	a7,t3,a5
     43a:	00b88eb3          	add	t4,a7,a1
     43e:	00af8023          	sb	a0,0(t6)
     442:	05d05963          	blez	t4,494 <STACK_SIZE+0x94>
     446:	0007cf03          	lbu	t5,0(a5)
     44a:	07a1                	addi	a5,a5,8
     44c:	40fe0533          	sub	a0,t3,a5
     450:	01ef8023          	sb	t5,0(t6)
     454:	ff97c683          	lbu	a3,-7(a5)
     458:	00b508b3          	add	a7,a0,a1
     45c:	00df8023          	sb	a3,0(t6)
     460:	ffa7c603          	lbu	a2,-6(a5)
     464:	00cf8023          	sb	a2,0(t6)
     468:	ffb7c703          	lbu	a4,-5(a5)
     46c:	00ef8023          	sb	a4,0(t6)
     470:	ffc7c283          	lbu	t0,-4(a5)
     474:	005f8023          	sb	t0,0(t6)
     478:	ffd7c303          	lbu	t1,-3(a5)
     47c:	006f8023          	sb	t1,0(t6)
     480:	ffe7c383          	lbu	t2,-2(a5)
     484:	007f8023          	sb	t2,0(t6)
     488:	fff7ce83          	lbu	t4,-1(a5)
     48c:	01df8023          	sb	t4,0(t6)
     490:	fb104be3          	bgtz	a7,446 <STACK_SIZE+0x46>
     494:	04022023          	sw	zero,64(tp) # 40 <buflen.1937>
     498:	8082                	ret

0000049a <vprintfmt.constprop.0>:
     49a:	714d                	addi	sp,sp,-336
     49c:	13612823          	sw	s6,304(sp)
     4a0:	13812423          	sw	s8,296(sp)
     4a4:	6b19                	lui	s6,0x6
     4a6:	40000c37          	lui	s8,0x40000
     4aa:	14112623          	sw	ra,332(sp)
     4ae:	06100793          	li	a5,97
     4b2:	83cb0093          	addi	ra,s6,-1988 # 583c <__umoddi3+0x924>
     4b6:	fffc0293          	addi	t0,s8,-1 # 3fffffff <__C_STACK_TOP__+0x3ffeffff>
     4ba:	14812423          	sw	s0,328(sp)
     4be:	13712623          	sw	s7,300(sp)
     4c2:	14912223          	sw	s1,324(sp)
     4c6:	15212023          	sw	s2,320(sp)
     4ca:	13312e23          	sw	s3,316(sp)
     4ce:	13412c23          	sw	s4,312(sp)
     4d2:	13512a23          	sw	s5,308(sp)
     4d6:	13912223          	sw	s9,292(sp)
     4da:	13a12023          	sw	s10,288(sp)
     4de:	11b12e23          	sw	s11,284(sp)
     4e2:	842a                	mv	s0,a0
     4e4:	8bae                	mv	s7,a1
     4e6:	c43e                	sw	a5,8(sp)
     4e8:	c206                	sw	ra,4(sp)
     4ea:	c616                	sw	t0,12(sp)
     4ec:	00044503          	lbu	a0,0(s0)
     4f0:	02500313          	li	t1,37
     4f4:	00650c63          	beq	a0,t1,50c <vprintfmt.constprop.0+0x72>
     4f8:	c539                	beqz	a0,546 <vprintfmt.constprop.0+0xac>
     4fa:	4581                	li	a1,0
     4fc:	3d9d                	jal	372 <printf_putch>
     4fe:	0405                	addi	s0,s0,1
     500:	00044503          	lbu	a0,0(s0)
     504:	02500313          	li	t1,37
     508:	fe6518e3          	bne	a0,t1,4f8 <vprintfmt.constprop.0+0x5e>
     50c:	00144903          	lbu	s2,1(s0)
     510:	00140493          	addi	s1,s0,1
     514:	8b26                	mv	s6,s1
     516:	02000993          	li	s3,32
     51a:	5dfd                	li	s11,-1
     51c:	5a7d                	li	s4,-1
     51e:	4681                	li	a3,0
     520:	05500593          	li	a1,85
     524:	4725                	li	a4,9
     526:	fdd90393          	addi	t2,s2,-35
     52a:	0ff3f613          	andi	a2,t2,255
     52e:	001b0413          	addi	s0,s6,1
     532:	52c5eb63          	bltu	a1,a2,a68 <vprintfmt.constprop.0+0x5ce>
     536:	4a92                	lw	s5,4(sp)
     538:	00261893          	slli	a7,a2,0x2
     53c:	01588cb3          	add	s9,a7,s5
     540:	000cad03          	lw	s10,0(s9)
     544:	8d02                	jr	s10
     546:	14c12083          	lw	ra,332(sp)
     54a:	14812403          	lw	s0,328(sp)
     54e:	14412483          	lw	s1,324(sp)
     552:	14012903          	lw	s2,320(sp)
     556:	13c12983          	lw	s3,316(sp)
     55a:	13812a03          	lw	s4,312(sp)
     55e:	13412a83          	lw	s5,308(sp)
     562:	13012b03          	lw	s6,304(sp)
     566:	12c12b83          	lw	s7,300(sp)
     56a:	12812c03          	lw	s8,296(sp)
     56e:	12412c83          	lw	s9,292(sp)
     572:	12012d03          	lw	s10,288(sp)
     576:	11c12d83          	lw	s11,284(sp)
     57a:	6171                	addi	sp,sp,336
     57c:	8082                	ret
     57e:	89ca                	mv	s3,s2
     580:	001b4903          	lbu	s2,1(s6)
     584:	8b22                	mv	s6,s0
     586:	b745                	j	526 <vprintfmt.constprop.0+0x8c>
     588:	4929                	li	s2,10
     58a:	4a81                	li	s5,0
     58c:	4305                	li	t1,1
     58e:	32d35d63          	bge	t1,a3,8c8 <vprintfmt.constprop.0+0x42e>
     592:	0b9d                	addi	s7,s7,7
     594:	ff8bf613          	andi	a2,s7,-8
     598:	00062c83          	lw	s9,0(a2)
     59c:	00462b03          	lw	s6,4(a2)
     5a0:	00860b93          	addi	s7,a2,8
     5a4:	864a                	mv	a2,s2
     5a6:	4681                	li	a3,0
     5a8:	8566                	mv	a0,s9
     5aa:	85da                	mv	a1,s6
     5ac:	16d040ef          	jal	ra,4f18 <__umoddi3>
     5b0:	c82a                	sw	a0,16(sp)
     5b2:	8daa                	mv	s11,a0
     5b4:	4d6a8063          	beq	s5,s6,a74 <vprintfmt.constprop.0+0x5da>
     5b8:	01410d13          	addi	s10,sp,20
     5bc:	4485                	li	s1,1
     5be:	864a                	mv	a2,s2
     5c0:	4681                	li	a3,0
     5c2:	8566                	mv	a0,s9
     5c4:	85da                	mv	a1,s6
     5c6:	51e040ef          	jal	ra,4ae4 <__udivdi3>
     5ca:	864a                	mv	a2,s2
     5cc:	4681                	li	a3,0
     5ce:	8caa                	mv	s9,a0
     5d0:	8b2e                	mv	s6,a1
     5d2:	147040ef          	jal	ra,4f18 <__umoddi3>
     5d6:	00ad2023          	sw	a0,0(s10)
     5da:	8daa                	mv	s11,a0
     5dc:	00148c13          	addi	s8,s1,1
     5e0:	0d11                	addi	s10,s10,4
     5e2:	016a8463          	beq	s5,s6,5ea <vprintfmt.constprop.0+0x150>
     5e6:	84e2                	mv	s1,s8
     5e8:	bfd9                	j	5be <vprintfmt.constprop.0+0x124>
     5ea:	ff2cfee3          	bgeu	s9,s2,5e6 <vprintfmt.constprop.0+0x14c>
     5ee:	0b4c5d63          	bge	s8,s4,6a8 <vprintfmt.constprop.0+0x20e>
     5f2:	fffc4513          	not	a0,s8
     5f6:	014506b3          	add	a3,a0,s4
     5fa:	fffa0913          	addi	s2,s4,-1
     5fe:	4581                	li	a1,0
     600:	854e                	mv	a0,s3
     602:	0076fa93          	andi	s5,a3,7
     606:	33b5                	jal	372 <printf_putch>
     608:	0b2c5063          	bge	s8,s2,6a8 <vprintfmt.constprop.0+0x20e>
     60c:	060a8363          	beqz	s5,672 <vprintfmt.constprop.0+0x1d8>
     610:	4585                	li	a1,1
     612:	04ba8a63          	beq	s5,a1,666 <vprintfmt.constprop.0+0x1cc>
     616:	4809                	li	a6,2
     618:	050a8363          	beq	s5,a6,65e <vprintfmt.constprop.0+0x1c4>
     61c:	470d                	li	a4,3
     61e:	02ea8c63          	beq	s5,a4,656 <vprintfmt.constprop.0+0x1bc>
     622:	4e11                	li	t3,4
     624:	03ca8563          	beq	s5,t3,64e <vprintfmt.constprop.0+0x1b4>
     628:	4e95                	li	t4,5
     62a:	01da8e63          	beq	s5,t4,646 <vprintfmt.constprop.0+0x1ac>
     62e:	4f19                	li	t5,6
     630:	01ea8763          	beq	s5,t5,63e <vprintfmt.constprop.0+0x1a4>
     634:	4581                	li	a1,0
     636:	854e                	mv	a0,s3
     638:	3b2d                	jal	372 <printf_putch>
     63a:	ffea0913          	addi	s2,s4,-2
     63e:	4581                	li	a1,0
     640:	854e                	mv	a0,s3
     642:	3b05                	jal	372 <printf_putch>
     644:	197d                	addi	s2,s2,-1
     646:	4581                	li	a1,0
     648:	854e                	mv	a0,s3
     64a:	3325                	jal	372 <printf_putch>
     64c:	197d                	addi	s2,s2,-1
     64e:	4581                	li	a1,0
     650:	854e                	mv	a0,s3
     652:	3305                	jal	372 <printf_putch>
     654:	197d                	addi	s2,s2,-1
     656:	4581                	li	a1,0
     658:	854e                	mv	a0,s3
     65a:	3b21                	jal	372 <printf_putch>
     65c:	197d                	addi	s2,s2,-1
     65e:	4581                	li	a1,0
     660:	854e                	mv	a0,s3
     662:	3b01                	jal	372 <printf_putch>
     664:	197d                	addi	s2,s2,-1
     666:	197d                	addi	s2,s2,-1
     668:	4581                	li	a1,0
     66a:	854e                	mv	a0,s3
     66c:	3319                	jal	372 <printf_putch>
     66e:	032c5d63          	bge	s8,s2,6a8 <vprintfmt.constprop.0+0x20e>
     672:	4581                	li	a1,0
     674:	854e                	mv	a0,s3
     676:	39f5                	jal	372 <printf_putch>
     678:	4581                	li	a1,0
     67a:	854e                	mv	a0,s3
     67c:	39dd                	jal	372 <printf_putch>
     67e:	4581                	li	a1,0
     680:	854e                	mv	a0,s3
     682:	39c5                	jal	372 <printf_putch>
     684:	4581                	li	a1,0
     686:	854e                	mv	a0,s3
     688:	31ed                	jal	372 <printf_putch>
     68a:	4581                	li	a1,0
     68c:	854e                	mv	a0,s3
     68e:	31d5                	jal	372 <printf_putch>
     690:	4581                	li	a1,0
     692:	854e                	mv	a0,s3
     694:	39f9                	jal	372 <printf_putch>
     696:	4581                	li	a1,0
     698:	854e                	mv	a0,s3
     69a:	39e1                	jal	372 <printf_putch>
     69c:	1961                	addi	s2,s2,-8
     69e:	4581                	li	a1,0
     6a0:	854e                	mv	a0,s3
     6a2:	39c1                	jal	372 <printf_putch>
     6a4:	fd2c47e3          	blt	s8,s2,672 <vprintfmt.constprop.0+0x1d8>
     6a8:	4a32                	lw	s4,12(sp)
     6aa:	081c                	addi	a5,sp,16
     6ac:	00c10293          	addi	t0,sp,12
     6b0:	01448fb3          	add	t6,s1,s4
     6b4:	002f9093          	slli	ra,t6,0x2
     6b8:	001784b3          	add	s1,a5,ra
     6bc:	40548333          	sub	t1,s1,t0
     6c0:	4622                	lw	a2,8(sp)
     6c2:	00235393          	srli	t2,t1,0x2
     6c6:	0073fc93          	andi	s9,t2,7
     6ca:	4b25                	li	s6,9
     6cc:	ff660c13          	addi	s8,a2,-10
     6d0:	160c8b63          	beqz	s9,846 <vprintfmt.constprop.0+0x3ac>
     6d4:	03000893          	li	a7,48
     6d8:	01bb7363          	bgeu	s6,s11,6de <vprintfmt.constprop.0+0x244>
     6dc:	88e2                	mv	a7,s8
     6de:	01b88533          	add	a0,a7,s11
     6e2:	4581                	li	a1,0
     6e4:	4d05                	li	s10,1
     6e6:	3171                	jal	372 <printf_putch>
     6e8:	14f1                	addi	s1,s1,-4
     6ea:	0044ad83          	lw	s11,4(s1)
     6ee:	15ac8c63          	beq	s9,s10,846 <vprintfmt.constprop.0+0x3ac>
     6f2:	4989                	li	s3,2
     6f4:	093c8a63          	beq	s9,s3,788 <vprintfmt.constprop.0+0x2ee>
     6f8:	450d                	li	a0,3
     6fa:	06ac8b63          	beq	s9,a0,770 <vprintfmt.constprop.0+0x2d6>
     6fe:	4691                	li	a3,4
     700:	04dc8c63          	beq	s9,a3,758 <vprintfmt.constprop.0+0x2be>
     704:	4a95                	li	s5,5
     706:	035c8d63          	beq	s9,s5,740 <vprintfmt.constprop.0+0x2a6>
     70a:	4599                	li	a1,6
     70c:	00bc8e63          	beq	s9,a1,728 <vprintfmt.constprop.0+0x28e>
     710:	03000813          	li	a6,48
     714:	01bb7363          	bgeu	s6,s11,71a <vprintfmt.constprop.0+0x280>
     718:	8862                	mv	a6,s8
     71a:	01b80533          	add	a0,a6,s11
     71e:	4581                	li	a1,0
     720:	14f1                	addi	s1,s1,-4
     722:	3981                	jal	372 <printf_putch>
     724:	0044ad83          	lw	s11,4(s1)
     728:	03000713          	li	a4,48
     72c:	01bb7363          	bgeu	s6,s11,732 <vprintfmt.constprop.0+0x298>
     730:	8762                	mv	a4,s8
     732:	01b70533          	add	a0,a4,s11
     736:	4581                	li	a1,0
     738:	14f1                	addi	s1,s1,-4
     73a:	3925                	jal	372 <printf_putch>
     73c:	0044ad83          	lw	s11,4(s1)
     740:	03000e13          	li	t3,48
     744:	01bb7363          	bgeu	s6,s11,74a <vprintfmt.constprop.0+0x2b0>
     748:	8e62                	mv	t3,s8
     74a:	01be0533          	add	a0,t3,s11
     74e:	4581                	li	a1,0
     750:	14f1                	addi	s1,s1,-4
     752:	3105                	jal	372 <printf_putch>
     754:	0044ad83          	lw	s11,4(s1)
     758:	03000e93          	li	t4,48
     75c:	01bb7363          	bgeu	s6,s11,762 <vprintfmt.constprop.0+0x2c8>
     760:	8ee2                	mv	t4,s8
     762:	01be8533          	add	a0,t4,s11
     766:	4581                	li	a1,0
     768:	14f1                	addi	s1,s1,-4
     76a:	3121                	jal	372 <printf_putch>
     76c:	0044ad83          	lw	s11,4(s1)
     770:	03000f13          	li	t5,48
     774:	01bb7363          	bgeu	s6,s11,77a <vprintfmt.constprop.0+0x2e0>
     778:	8f62                	mv	t5,s8
     77a:	01bf0533          	add	a0,t5,s11
     77e:	4581                	li	a1,0
     780:	14f1                	addi	s1,s1,-4
     782:	3ec5                	jal	372 <printf_putch>
     784:	0044ad83          	lw	s11,4(s1)
     788:	03000913          	li	s2,48
     78c:	01bb7363          	bgeu	s6,s11,792 <vprintfmt.constprop.0+0x2f8>
     790:	8962                	mv	s2,s8
     792:	01b90533          	add	a0,s2,s11
     796:	4581                	li	a1,0
     798:	14f1                	addi	s1,s1,-4
     79a:	3ee1                	jal	372 <printf_putch>
     79c:	0044ad83          	lw	s11,4(s1)
     7a0:	a05d                	j	846 <vprintfmt.constprop.0+0x3ac>
     7a2:	0004af83          	lw	t6,0(s1)
     7a6:	ffc48c93          	addi	s9,s1,-4
     7aa:	03000493          	li	s1,48
     7ae:	01fb7363          	bgeu	s6,t6,7b4 <vprintfmt.constprop.0+0x31a>
     7b2:	84e2                	mv	s1,s8
     7b4:	4581                	li	a1,0
     7b6:	01f48533          	add	a0,s1,t6
     7ba:	3e65                	jal	372 <printf_putch>
     7bc:	000ca783          	lw	a5,0(s9)
     7c0:	03000293          	li	t0,48
     7c4:	00fb7363          	bgeu	s6,a5,7ca <vprintfmt.constprop.0+0x330>
     7c8:	82e2                	mv	t0,s8
     7ca:	4581                	li	a1,0
     7cc:	00f28533          	add	a0,t0,a5
     7d0:	364d                	jal	372 <printf_putch>
     7d2:	ffcca303          	lw	t1,-4(s9)
     7d6:	03000393          	li	t2,48
     7da:	006b7363          	bgeu	s6,t1,7e0 <vprintfmt.constprop.0+0x346>
     7de:	83e2                	mv	t2,s8
     7e0:	4581                	li	a1,0
     7e2:	00638533          	add	a0,t2,t1
     7e6:	3671                	jal	372 <printf_putch>
     7e8:	ff8ca603          	lw	a2,-8(s9)
     7ec:	03000893          	li	a7,48
     7f0:	00cb7363          	bgeu	s6,a2,7f6 <vprintfmt.constprop.0+0x35c>
     7f4:	88e2                	mv	a7,s8
     7f6:	4581                	li	a1,0
     7f8:	00c88533          	add	a0,a7,a2
     7fc:	3e9d                	jal	372 <printf_putch>
     7fe:	ff4cad03          	lw	s10,-12(s9)
     802:	03000993          	li	s3,48
     806:	01ab7363          	bgeu	s6,s10,80c <vprintfmt.constprop.0+0x372>
     80a:	89e2                	mv	s3,s8
     80c:	01a98533          	add	a0,s3,s10
     810:	4581                	li	a1,0
     812:	3685                	jal	372 <printf_putch>
     814:	ff0ca683          	lw	a3,-16(s9)
     818:	03000513          	li	a0,48
     81c:	00db7363          	bgeu	s6,a3,822 <vprintfmt.constprop.0+0x388>
     820:	8562                	mv	a0,s8
     822:	4581                	li	a1,0
     824:	9536                	add	a0,a0,a3
     826:	36b1                	jal	372 <printf_putch>
     828:	feccaa83          	lw	s5,-20(s9)
     82c:	03000813          	li	a6,48
     830:	015b7363          	bgeu	s6,s5,836 <vprintfmt.constprop.0+0x39c>
     834:	8862                	mv	a6,s8
     836:	4581                	li	a1,0
     838:	01580533          	add	a0,a6,s5
     83c:	3e1d                	jal	372 <printf_putch>
     83e:	fe8cad83          	lw	s11,-24(s9)
     842:	fe4c8493          	addi	s1,s9,-28
     846:	03000a13          	li	s4,48
     84a:	01bb7363          	bgeu	s6,s11,850 <vprintfmt.constprop.0+0x3b6>
     84e:	8a62                	mv	s4,s8
     850:	01ba0533          	add	a0,s4,s11
     854:	4581                	li	a1,0
     856:	00c10d93          	addi	s11,sp,12
     85a:	3e21                	jal	372 <printf_putch>
     85c:	f5b493e3          	bne	s1,s11,7a2 <vprintfmt.constprop.0+0x308>
     860:	b171                	j	4ec <vprintfmt.constprop.0+0x52>
     862:	fffa4093          	not	ra,s4
     866:	41f0dc13          	srai	s8,ra,0x1f
     86a:	001b4903          	lbu	s2,1(s6)
     86e:	018a7a33          	and	s4,s4,s8
     872:	8b22                	mv	s6,s0
     874:	b94d                	j	526 <vprintfmt.constprop.0+0x8c>
     876:	001b4083          	lbu	ra,1(s6)
     87a:	fd090d93          	addi	s11,s2,-48
     87e:	8b22                	mv	s6,s0
     880:	fd008e13          	addi	t3,ra,-48
     884:	8906                	mv	s2,ra
     886:	03c76463          	bltu	a4,t3,8ae <vprintfmt.constprop.0+0x414>
     88a:	002d9413          	slli	s0,s11,0x2
     88e:	01b40eb3          	add	t4,s0,s11
     892:	0b05                	addi	s6,s6,1
     894:	001e9f13          	slli	t5,t4,0x1
     898:	001f0fb3          	add	t6,t5,ra
     89c:	000b4083          	lbu	ra,0(s6)
     8a0:	fd0f8d93          	addi	s11,t6,-48
     8a4:	fd008793          	addi	a5,ra,-48
     8a8:	8906                	mv	s2,ra
     8aa:	fef770e3          	bgeu	a4,a5,88a <vprintfmt.constprop.0+0x3f0>
     8ae:	c60a5ce3          	bgez	s4,526 <vprintfmt.constprop.0+0x8c>
     8b2:	8a6e                	mv	s4,s11
     8b4:	5dfd                	li	s11,-1
     8b6:	b985                	j	526 <vprintfmt.constprop.0+0x8c>
     8b8:	04100713          	li	a4,65
     8bc:	c43a                	sw	a4,8(sp)
     8be:	4305                	li	t1,1
     8c0:	4941                	li	s2,16
     8c2:	4a81                	li	s5,0
     8c4:	ccd347e3          	blt	t1,a3,592 <vprintfmt.constprop.0+0xf8>
     8c8:	004b8393          	addi	t2,s7,4
     8cc:	a8bd                	j	94a <vprintfmt.constprop.0+0x4b0>
     8ce:	06100293          	li	t0,97
     8d2:	4941                	li	s2,16
     8d4:	4a81                	li	s5,0
     8d6:	c416                	sw	t0,8(sp)
     8d8:	b955                	j	58c <vprintfmt.constprop.0+0xf2>
     8da:	000ba503          	lw	a0,0(s7)
     8de:	4581                	li	a1,0
     8e0:	0b91                	addi	s7,s7,4
     8e2:	3c41                	jal	372 <printf_putch>
     8e4:	b121                	j	4ec <vprintfmt.constprop.0+0x52>
     8e6:	4a85                	li	s5,1
     8e8:	26dac163          	blt	s5,a3,b4a <vprintfmt.constprop.0+0x6b0>
     8ec:	000bac83          	lw	s9,0(s7)
     8f0:	004b8493          	addi	s1,s7,4
     8f4:	8ba6                	mv	s7,s1
     8f6:	41fcdb13          	srai	s6,s9,0x1f
     8fa:	000b5e63          	bgez	s6,916 <vprintfmt.constprop.0+0x47c>
     8fe:	4581                	li	a1,0
     900:	02d00513          	li	a0,45
     904:	34bd                	jal	372 <printf_putch>
     906:	41900cb3          	neg	s9,s9
     90a:	01903833          	snez	a6,s9
     90e:	41600c33          	neg	s8,s6
     912:	410c0b33          	sub	s6,s8,a6
     916:	4929                	li	s2,10
     918:	4a81                	li	s5,0
     91a:	b169                	j	5a4 <vprintfmt.constprop.0+0x10a>
     91c:	001b4903          	lbu	s2,1(s6)
     920:	0685                	addi	a3,a3,1
     922:	8b22                	mv	s6,s0
     924:	b109                	j	526 <vprintfmt.constprop.0+0x8c>
     926:	4921                	li	s2,8
     928:	4a81                	li	s5,0
     92a:	b18d                	j	58c <vprintfmt.constprop.0+0xf2>
     92c:	4581                	li	a1,0
     92e:	03000513          	li	a0,48
     932:	3481                	jal	372 <printf_putch>
     934:	07800513          	li	a0,120
     938:	4581                	li	a1,0
     93a:	3c25                	jal	372 <printf_putch>
     93c:	06100513          	li	a0,97
     940:	4941                	li	s2,16
     942:	004b8393          	addi	t2,s7,4
     946:	4a81                	li	s5,0
     948:	c42a                	sw	a0,8(sp)
     94a:	000bac83          	lw	s9,0(s7)
     94e:	4b01                	li	s6,0
     950:	8b9e                	mv	s7,t2
     952:	b989                	j	5a4 <vprintfmt.constprop.0+0x10a>
     954:	000bab03          	lw	s6,0(s7)
     958:	0b91                	addi	s7,s7,4
     95a:	200b0363          	beqz	s6,b60 <vprintfmt.constprop.0+0x6c6>
     95e:	1f405063          	blez	s4,b3e <vprintfmt.constprop.0+0x6a4>
     962:	02d00513          	li	a0,45
     966:	12a99363          	bne	s3,a0,a8c <vprintfmt.constprop.0+0x5f2>
     96a:	000b4503          	lbu	a0,0(s6)
     96e:	c105                	beqz	a0,98e <vprintfmt.constprop.0+0x4f4>
     970:	59fd                	li	s3,-1
     972:	000dc563          	bltz	s11,97c <vprintfmt.constprop.0+0x4e2>
     976:	1dfd                	addi	s11,s11,-1
     978:	013d8963          	beq	s11,s3,98a <vprintfmt.constprop.0+0x4f0>
     97c:	4581                	li	a1,0
     97e:	0b05                	addi	s6,s6,1
     980:	3acd                	jal	372 <printf_putch>
     982:	000b4503          	lbu	a0,0(s6)
     986:	1a7d                	addi	s4,s4,-1
     988:	f56d                	bnez	a0,972 <vprintfmt.constprop.0+0x4d8>
     98a:	b74051e3          	blez	s4,4ec <vprintfmt.constprop.0+0x52>
     98e:	007a7093          	andi	ra,s4,7
     992:	fffa0c93          	addi	s9,s4,-1
     996:	06008963          	beqz	ra,a08 <vprintfmt.constprop.0+0x56e>
     99a:	4285                	li	t0,1
     99c:	04508f63          	beq	ra,t0,9fa <vprintfmt.constprop.0+0x560>
     9a0:	4309                	li	t1,2
     9a2:	04608763          	beq	ra,t1,9f0 <vprintfmt.constprop.0+0x556>
     9a6:	438d                	li	t2,3
     9a8:	02708f63          	beq	ra,t2,9e6 <vprintfmt.constprop.0+0x54c>
     9ac:	4611                	li	a2,4
     9ae:	02c08763          	beq	ra,a2,9dc <vprintfmt.constprop.0+0x542>
     9b2:	4895                	li	a7,5
     9b4:	01108f63          	beq	ra,a7,9d2 <vprintfmt.constprop.0+0x538>
     9b8:	4d19                	li	s10,6
     9ba:	01a08763          	beq	ra,s10,9c8 <vprintfmt.constprop.0+0x52e>
     9be:	4581                	li	a1,0
     9c0:	02000513          	li	a0,32
     9c4:	327d                	jal	372 <printf_putch>
     9c6:	8a66                	mv	s4,s9
     9c8:	4581                	li	a1,0
     9ca:	02000513          	li	a0,32
     9ce:	3255                	jal	372 <printf_putch>
     9d0:	1a7d                	addi	s4,s4,-1
     9d2:	4581                	li	a1,0
     9d4:	02000513          	li	a0,32
     9d8:	3a69                	jal	372 <printf_putch>
     9da:	1a7d                	addi	s4,s4,-1
     9dc:	4581                	li	a1,0
     9de:	02000513          	li	a0,32
     9e2:	3a41                	jal	372 <printf_putch>
     9e4:	1a7d                	addi	s4,s4,-1
     9e6:	4581                	li	a1,0
     9e8:	02000513          	li	a0,32
     9ec:	3259                	jal	372 <printf_putch>
     9ee:	1a7d                	addi	s4,s4,-1
     9f0:	4581                	li	a1,0
     9f2:	02000513          	li	a0,32
     9f6:	3ab5                	jal	372 <printf_putch>
     9f8:	1a7d                	addi	s4,s4,-1
     9fa:	1a7d                	addi	s4,s4,-1
     9fc:	4581                	li	a1,0
     9fe:	02000513          	li	a0,32
     a02:	3a85                	jal	372 <printf_putch>
     a04:	ae0a04e3          	beqz	s4,4ec <vprintfmt.constprop.0+0x52>
     a08:	4581                	li	a1,0
     a0a:	02000513          	li	a0,32
     a0e:	3295                	jal	372 <printf_putch>
     a10:	4581                	li	a1,0
     a12:	02000513          	li	a0,32
     a16:	3ab1                	jal	372 <printf_putch>
     a18:	4581                	li	a1,0
     a1a:	02000513          	li	a0,32
     a1e:	3a91                	jal	372 <printf_putch>
     a20:	4581                	li	a1,0
     a22:	02000513          	li	a0,32
     a26:	32b1                	jal	372 <printf_putch>
     a28:	4581                	li	a1,0
     a2a:	02000513          	li	a0,32
     a2e:	3291                	jal	372 <printf_putch>
     a30:	4581                	li	a1,0
     a32:	02000513          	li	a0,32
     a36:	3a35                	jal	372 <printf_putch>
     a38:	4581                	li	a1,0
     a3a:	02000513          	li	a0,32
     a3e:	3a15                	jal	372 <printf_putch>
     a40:	1a61                	addi	s4,s4,-8
     a42:	4581                	li	a1,0
     a44:	02000513          	li	a0,32
     a48:	322d                	jal	372 <printf_putch>
     a4a:	fa0a1fe3          	bnez	s4,a08 <vprintfmt.constprop.0+0x56e>
     a4e:	bc79                	j	4ec <vprintfmt.constprop.0+0x52>
     a50:	4581                	li	a1,0
     a52:	02500513          	li	a0,37
     a56:	3a31                	jal	372 <printf_putch>
     a58:	bc51                	j	4ec <vprintfmt.constprop.0+0x52>
     a5a:	000bad83          	lw	s11,0(s7)
     a5e:	001b4903          	lbu	s2,1(s6)
     a62:	0b91                	addi	s7,s7,4
     a64:	8b22                	mv	s6,s0
     a66:	b5a1                	j	8ae <vprintfmt.constprop.0+0x414>
     a68:	4581                	li	a1,0
     a6a:	02500513          	li	a0,37
     a6e:	3211                	jal	372 <printf_putch>
     a70:	8426                	mv	s0,s1
     a72:	bcad                	j	4ec <vprintfmt.constprop.0+0x52>
     a74:	b52cf2e3          	bgeu	s9,s2,5b8 <vprintfmt.constprop.0+0x11e>
     a78:	4885                	li	a7,1
     a7a:	4481                	li	s1,0
     a7c:	4c05                	li	s8,1
     a7e:	b748cae3          	blt	a7,s4,5f2 <vprintfmt.constprop.0+0x158>
     a82:	b11d                	j	6a8 <vprintfmt.constprop.0+0x20e>
     a84:	000056b7          	lui	a3,0x5
     a88:	35068b13          	addi	s6,a3,848 # 5350 <__umoddi3+0x438>
     a8c:	85ee                	mv	a1,s11
     a8e:	855a                	mv	a0,s6
     a90:	3d9030ef          	jal	ra,4668 <strnlen>
     a94:	40aa0a33          	sub	s4,s4,a0
     a98:	0b405363          	blez	s4,b3e <vprintfmt.constprop.0+0x6a4>
     a9c:	007a7813          	andi	a6,s4,7
     aa0:	fffa0c13          	addi	s8,s4,-1
     aa4:	06080263          	beqz	a6,b08 <vprintfmt.constprop.0+0x66e>
     aa8:	4705                	li	a4,1
     aaa:	04e80963          	beq	a6,a4,afc <vprintfmt.constprop.0+0x662>
     aae:	4e09                	li	t3,2
     ab0:	05c80263          	beq	a6,t3,af4 <vprintfmt.constprop.0+0x65a>
     ab4:	4e8d                	li	t4,3
     ab6:	03d80b63          	beq	a6,t4,aec <vprintfmt.constprop.0+0x652>
     aba:	4f11                	li	t5,4
     abc:	03e80463          	beq	a6,t5,ae4 <vprintfmt.constprop.0+0x64a>
     ac0:	4f95                	li	t6,5
     ac2:	01f80d63          	beq	a6,t6,adc <vprintfmt.constprop.0+0x642>
     ac6:	4799                	li	a5,6
     ac8:	00f80663          	beq	a6,a5,ad4 <vprintfmt.constprop.0+0x63a>
     acc:	4581                	li	a1,0
     ace:	854e                	mv	a0,s3
     ad0:	304d                	jal	372 <printf_putch>
     ad2:	8a62                	mv	s4,s8
     ad4:	4581                	li	a1,0
     ad6:	854e                	mv	a0,s3
     ad8:	3869                	jal	372 <printf_putch>
     ada:	1a7d                	addi	s4,s4,-1
     adc:	4581                	li	a1,0
     ade:	854e                	mv	a0,s3
     ae0:	3849                	jal	372 <printf_putch>
     ae2:	1a7d                	addi	s4,s4,-1
     ae4:	4581                	li	a1,0
     ae6:	854e                	mv	a0,s3
     ae8:	3069                	jal	372 <printf_putch>
     aea:	1a7d                	addi	s4,s4,-1
     aec:	4581                	li	a1,0
     aee:	854e                	mv	a0,s3
     af0:	3049                	jal	372 <printf_putch>
     af2:	1a7d                	addi	s4,s4,-1
     af4:	4581                	li	a1,0
     af6:	854e                	mv	a0,s3
     af8:	38ad                	jal	372 <printf_putch>
     afa:	1a7d                	addi	s4,s4,-1
     afc:	1a7d                	addi	s4,s4,-1
     afe:	4581                	li	a1,0
     b00:	854e                	mv	a0,s3
     b02:	3885                	jal	372 <printf_putch>
     b04:	020a0d63          	beqz	s4,b3e <vprintfmt.constprop.0+0x6a4>
     b08:	4581                	li	a1,0
     b0a:	854e                	mv	a0,s3
     b0c:	309d                	jal	372 <printf_putch>
     b0e:	4581                	li	a1,0
     b10:	854e                	mv	a0,s3
     b12:	3085                	jal	372 <printf_putch>
     b14:	4581                	li	a1,0
     b16:	854e                	mv	a0,s3
     b18:	38a9                	jal	372 <printf_putch>
     b1a:	4581                	li	a1,0
     b1c:	854e                	mv	a0,s3
     b1e:	3891                	jal	372 <printf_putch>
     b20:	4581                	li	a1,0
     b22:	854e                	mv	a0,s3
     b24:	30b9                	jal	372 <printf_putch>
     b26:	4581                	li	a1,0
     b28:	854e                	mv	a0,s3
     b2a:	30a1                	jal	372 <printf_putch>
     b2c:	4581                	li	a1,0
     b2e:	854e                	mv	a0,s3
     b30:	3089                	jal	372 <printf_putch>
     b32:	1a61                	addi	s4,s4,-8
     b34:	4581                	li	a1,0
     b36:	854e                	mv	a0,s3
     b38:	382d                	jal	372 <printf_putch>
     b3a:	fc0a17e3          	bnez	s4,b08 <vprintfmt.constprop.0+0x66e>
     b3e:	000b4503          	lbu	a0,0(s6)
     b42:	9a0505e3          	beqz	a0,4ec <vprintfmt.constprop.0+0x52>
     b46:	59fd                	li	s3,-1
     b48:	b52d                	j	972 <vprintfmt.constprop.0+0x4d8>
     b4a:	007b8593          	addi	a1,s7,7
     b4e:	ff85fd93          	andi	s11,a1,-8
     b52:	008d8b93          	addi	s7,s11,8
     b56:	000dac83          	lw	s9,0(s11)
     b5a:	004dab03          	lw	s6,4(s11)
     b5e:	bb71                	j	8fa <vprintfmt.constprop.0+0x460>
     b60:	01405663          	blez	s4,b6c <vprintfmt.constprop.0+0x6d2>
     b64:	02d00493          	li	s1,45
     b68:	f0999ee3          	bne	s3,s1,a84 <vprintfmt.constprop.0+0x5ea>
     b6c:	000055b7          	lui	a1,0x5
     b70:	35058b13          	addi	s6,a1,848 # 5350 <__umoddi3+0x438>
     b74:	02800513          	li	a0,40
     b78:	59fd                	li	s3,-1
     b7a:	bbe5                	j	972 <vprintfmt.constprop.0+0x4d8>

00000b7c <putchar>:
     b7c:	04022603          	lw	a2,64(tp) # 40 <buflen.1937>
     b80:	00020293          	mv	t0,tp
     b84:	00160593          	addi	a1,a2,1
     b88:	00c28333          	add	t1,t0,a2
     b8c:	04b22023          	sw	a1,64(tp) # 40 <buflen.1937>
     b90:	00a30023          	sb	a0,0(t1)
     b94:	43a9                	li	t2,10
     b96:	00750863          	beq	a0,t2,ba6 <putchar+0x2a>
     b9a:	04000513          	li	a0,64
     b9e:	00a58663          	beq	a1,a0,baa <putchar+0x2e>
     ba2:	4501                	li	a0,0
     ba4:	8082                	ret
     ba6:	0eb05d63          	blez	a1,ca0 <putchar+0x124>
     baa:	00020e13          	mv	t3,tp
     bae:	001e0793          	addi	a5,t3,1
     bb2:	fff7ce83          	lbu	t4,-1(a5)
     bb6:	fffe4f13          	not	t5,t3
     bba:	f0000fb7          	lui	t6,0xf0000
     bbe:	01ee06b3          	add	a3,t3,t5
     bc2:	00b68633          	add	a2,a3,a1
     bc6:	01df8023          	sb	t4,0(t6) # f0000000 <__C_STACK_TOP__+0xefff0000>
     bca:	fff58713          	addi	a4,a1,-1
     bce:	00767293          	andi	t0,a2,7
     bd2:	0ce05763          	blez	a4,ca0 <putchar+0x124>
     bd6:	06028e63          	beqz	t0,c52 <putchar+0xd6>
     bda:	4305                	li	t1,1
     bdc:	06628063          	beq	t0,t1,c3c <putchar+0xc0>
     be0:	4389                	li	t2,2
     be2:	04728863          	beq	t0,t2,c32 <putchar+0xb6>
     be6:	450d                	li	a0,3
     be8:	04a28063          	beq	t0,a0,c28 <putchar+0xac>
     bec:	4891                	li	a7,4
     bee:	03128863          	beq	t0,a7,c1e <putchar+0xa2>
     bf2:	4e95                	li	t4,5
     bf4:	03d28063          	beq	t0,t4,c14 <putchar+0x98>
     bf8:	4f19                	li	t5,6
     bfa:	01e28863          	beq	t0,t5,c0a <putchar+0x8e>
     bfe:	001e4683          	lbu	a3,1(t3)
     c02:	002e0793          	addi	a5,t3,2
     c06:	00df8023          	sb	a3,0(t6)
     c0a:	0007c603          	lbu	a2,0(a5)
     c0e:	0785                	addi	a5,a5,1
     c10:	00cf8023          	sb	a2,0(t6)
     c14:	0007c703          	lbu	a4,0(a5)
     c18:	0785                	addi	a5,a5,1
     c1a:	00ef8023          	sb	a4,0(t6)
     c1e:	0007c283          	lbu	t0,0(a5)
     c22:	0785                	addi	a5,a5,1
     c24:	005f8023          	sb	t0,0(t6)
     c28:	0007c303          	lbu	t1,0(a5)
     c2c:	0785                	addi	a5,a5,1
     c2e:	006f8023          	sb	t1,0(t6)
     c32:	0007c383          	lbu	t2,0(a5)
     c36:	0785                	addi	a5,a5,1
     c38:	007f8023          	sb	t2,0(t6)
     c3c:	0785                	addi	a5,a5,1
     c3e:	fff7c503          	lbu	a0,-1(a5)
     c42:	40fe08b3          	sub	a7,t3,a5
     c46:	00b88eb3          	add	t4,a7,a1
     c4a:	00af8023          	sb	a0,0(t6)
     c4e:	05d05963          	blez	t4,ca0 <putchar+0x124>
     c52:	0007cf03          	lbu	t5,0(a5)
     c56:	07a1                	addi	a5,a5,8
     c58:	40fe0533          	sub	a0,t3,a5
     c5c:	01ef8023          	sb	t5,0(t6)
     c60:	ff97c683          	lbu	a3,-7(a5)
     c64:	00b508b3          	add	a7,a0,a1
     c68:	00df8023          	sb	a3,0(t6)
     c6c:	ffa7c603          	lbu	a2,-6(a5)
     c70:	00cf8023          	sb	a2,0(t6)
     c74:	ffb7c703          	lbu	a4,-5(a5)
     c78:	00ef8023          	sb	a4,0(t6)
     c7c:	ffc7c283          	lbu	t0,-4(a5)
     c80:	005f8023          	sb	t0,0(t6)
     c84:	ffd7c303          	lbu	t1,-3(a5)
     c88:	006f8023          	sb	t1,0(t6)
     c8c:	ffe7c383          	lbu	t2,-2(a5)
     c90:	007f8023          	sb	t2,0(t6)
     c94:	fff7ce83          	lbu	t4,-1(a5)
     c98:	01df8023          	sb	t4,0(t6)
     c9c:	fb104be3          	bgtz	a7,c52 <putchar+0xd6>
     ca0:	04022023          	sw	zero,64(tp) # 40 <buflen.1937>
     ca4:	4501                	li	a0,0
     ca6:	8082                	ret

00000ca8 <sc_printf>:
     ca8:	7139                	addi	sp,sp,-64
     caa:	02410313          	addi	t1,sp,36
     cae:	d22e                	sw	a1,36(sp)
     cb0:	859a                	mv	a1,t1
     cb2:	ce06                	sw	ra,28(sp)
     cb4:	d432                	sw	a2,40(sp)
     cb6:	d636                	sw	a3,44(sp)
     cb8:	d83a                	sw	a4,48(sp)
     cba:	da3e                	sw	a5,52(sp)
     cbc:	dc42                	sw	a6,56(sp)
     cbe:	de46                	sw	a7,60(sp)
     cc0:	c61a                	sw	t1,12(sp)
     cc2:	fd8ff0ef          	jal	ra,49a <vprintfmt.constprop.0>
     cc6:	40f2                	lw	ra,28(sp)
     cc8:	4501                	li	a0,0
     cca:	6121                	addi	sp,sp,64
     ccc:	8082                	ret

00000cce <cmp_idx>:
     cce:	c619                	beqz	a2,cdc <cmp_idx+0xe>
     cd0:	00251503          	lh	a0,2(a0)
     cd4:	00259583          	lh	a1,2(a1)
     cd8:	8d0d                	sub	a0,a0,a1
     cda:	8082                	ret
     cdc:	00051783          	lh	a5,0(a0)
     ce0:	01079713          	slli	a4,a5,0x10
     ce4:	01075293          	srli	t0,a4,0x10
     ce8:	f007f313          	andi	t1,a5,-256
     cec:	0082d393          	srli	t2,t0,0x8
     cf0:	00736633          	or	a2,t1,t2
     cf4:	00c51023          	sh	a2,0(a0)
     cf8:	00059683          	lh	a3,0(a1)
     cfc:	00251503          	lh	a0,2(a0)
     d00:	01069813          	slli	a6,a3,0x10
     d04:	01085893          	srli	a7,a6,0x10
     d08:	f006fe13          	andi	t3,a3,-256
     d0c:	0088de93          	srli	t4,a7,0x8
     d10:	01de6f33          	or	t5,t3,t4
     d14:	01e59023          	sh	t5,0(a1)
     d18:	00259583          	lh	a1,2(a1)
     d1c:	8d0d                	sub	a0,a0,a1
     d1e:	8082                	ret

00000d20 <calc_func>:
     d20:	1101                	addi	sp,sp,-32
     d22:	cc22                	sw	s0,24(sp)
     d24:	00051403          	lh	s0,0(a0)
     d28:	ce06                	sw	ra,28(sp)
     d2a:	ca26                	sw	s1,20(sp)
     d2c:	40745793          	srai	a5,s0,0x7
     d30:	c84a                	sw	s2,16(sp)
     d32:	c64e                	sw	s3,12(sp)
     d34:	0017f093          	andi	ra,a5,1
     d38:	07f47e93          	andi	t4,s0,127
     d3c:	04009863          	bnez	ra,d8c <calc_func+0x6c>
     d40:	84ae                	mv	s1,a1
     d42:	40345593          	srai	a1,s0,0x3
     d46:	00f5f293          	andi	t0,a1,15
     d4a:	00429313          	slli	t1,t0,0x4
     d4e:	00747713          	andi	a4,s0,7
     d52:	89aa                	mv	s3,a0
     d54:	005365b3          	or	a1,t1,t0
     d58:	0384d783          	lhu	a5,56(s1)
     d5c:	c321                	beqz	a4,d9c <calc_func+0x7c>
     d5e:	4505                	li	a0,1
     d60:	06a70b63          	beq	a4,a0,dd6 <calc_func+0xb6>
     d64:	01041e13          	slli	t3,s0,0x10
     d68:	010e5513          	srli	a0,t3,0x10
     d6c:	8922                	mv	s2,s0
     d6e:	85be                	mv	a1,a5
     d70:	0fe030ef          	jal	ra,3e6e <crcu16>
     d74:	f0047f13          	andi	t5,s0,-256
     d78:	07f97e93          	andi	t4,s2,127
     d7c:	01eeefb3          	or	t6,t4,t5
     d80:	02a49c23          	sh	a0,56(s1)
     d84:	080fe413          	ori	s0,t6,128
     d88:	00899023          	sh	s0,0(s3)
     d8c:	40f2                	lw	ra,28(sp)
     d8e:	4462                	lw	s0,24(sp)
     d90:	44d2                	lw	s1,20(sp)
     d92:	4942                	lw	s2,16(sp)
     d94:	49b2                	lw	s3,12(sp)
     d96:	8576                	mv	a0,t4
     d98:	6105                	addi	sp,sp,32
     d9a:	8082                	ret
     d9c:	02200693          	li	a3,34
     da0:	83ae                	mv	t2,a1
     da2:	00d5d463          	bge	a1,a3,daa <calc_func+0x8a>
     da6:	02200393          	li	t2,34
     daa:	00049603          	lh	a2,0(s1)
     dae:	00249683          	lh	a3,2(s1)
     db2:	48cc                	lw	a1,20(s1)
     db4:	4c88                	lw	a0,24(s1)
     db6:	0ff3f713          	andi	a4,t2,255
     dba:	75c030ef          	jal	ra,4516 <core_bench_state>
     dbe:	03e4d603          	lhu	a2,62(s1)
     dc2:	01051913          	slli	s2,a0,0x10
     dc6:	41095913          	srai	s2,s2,0x10
     dca:	e219                	bnez	a2,dd0 <calc_func+0xb0>
     dcc:	02a49f23          	sh	a0,62(s1)
     dd0:	0384d783          	lhu	a5,56(s1)
     dd4:	bf69                	j	d6e <calc_func+0x4e>
     dd6:	863e                	mv	a2,a5
     dd8:	02848513          	addi	a0,s1,40
     ddc:	2e3010ef          	jal	ra,28be <core_bench_matrix>
     de0:	03c4d803          	lhu	a6,60(s1)
     de4:	01051893          	slli	a7,a0,0x10
     de8:	4108d913          	srai	s2,a7,0x10
     dec:	fe0812e3          	bnez	a6,dd0 <calc_func+0xb0>
     df0:	0384d783          	lhu	a5,56(s1)
     df4:	02a49e23          	sh	a0,60(s1)
     df8:	bf9d                	j	d6e <calc_func+0x4e>

00000dfa <cmp_complex>:
     dfa:	1141                	addi	sp,sp,-16
     dfc:	c04a                	sw	s2,0(sp)
     dfe:	892e                	mv	s2,a1
     e00:	85b2                	mv	a1,a2
     e02:	c606                	sw	ra,12(sp)
     e04:	c422                	sw	s0,8(sp)
     e06:	c226                	sw	s1,4(sp)
     e08:	8432                	mv	s0,a2
     e0a:	3f19                	jal	d20 <calc_func>
     e0c:	84aa                	mv	s1,a0
     e0e:	85a2                	mv	a1,s0
     e10:	854a                	mv	a0,s2
     e12:	3739                	jal	d20 <calc_func>
     e14:	40b2                	lw	ra,12(sp)
     e16:	4422                	lw	s0,8(sp)
     e18:	40a48533          	sub	a0,s1,a0
     e1c:	4902                	lw	s2,0(sp)
     e1e:	4492                	lw	s1,4(sp)
     e20:	0141                	addi	sp,sp,16
     e22:	8082                	ret

00000e24 <copy_info>:
     e24:	00059703          	lh	a4,0(a1)
     e28:	00259783          	lh	a5,2(a1)
     e2c:	00e51023          	sh	a4,0(a0)
     e30:	00f51123          	sh	a5,2(a0)
     e34:	8082                	ret

00000e36 <core_list_insert_new>:
     e36:	00062803          	lw	a6,0(a2)
     e3a:	00880893          	addi	a7,a6,8
     e3e:	04e8f163          	bgeu	a7,a4,e80 <core_list_insert_new+0x4a>
     e42:	4298                	lw	a4,0(a3)
     e44:	00470313          	addi	t1,a4,4
     e48:	02f37c63          	bgeu	t1,a5,e80 <core_list_insert_new+0x4a>
     e4c:	01162023          	sw	a7,0(a2)
     e50:	411c                	lw	a5,0(a0)
     e52:	00059283          	lh	t0,0(a1)
     e56:	00259603          	lh	a2,2(a1)
     e5a:	00f82023          	sw	a5,0(a6)
     e5e:	01052023          	sw	a6,0(a0)
     e62:	00e82223          	sw	a4,4(a6)
     e66:	0006a383          	lw	t2,0(a3)
     e6a:	00438513          	addi	a0,t2,4
     e6e:	c288                	sw	a0,0(a3)
     e70:	00482583          	lw	a1,4(a6)
     e74:	8542                	mv	a0,a6
     e76:	00559023          	sh	t0,0(a1)
     e7a:	00c59123          	sh	a2,2(a1)
     e7e:	8082                	ret
     e80:	4801                	li	a6,0
     e82:	8542                	mv	a0,a6
     e84:	8082                	ret

00000e86 <core_list_remove>:
     e86:	411c                	lw	a5,0(a0)
     e88:	4150                	lw	a2,4(a0)
     e8a:	872a                	mv	a4,a0
     e8c:	43cc                	lw	a1,4(a5)
     e8e:	4394                	lw	a3,0(a5)
     e90:	853e                	mv	a0,a5
     e92:	c34c                	sw	a1,4(a4)
     e94:	c3d0                	sw	a2,4(a5)
     e96:	c314                	sw	a3,0(a4)
     e98:	0007a023          	sw	zero,0(a5)
     e9c:	8082                	ret

00000e9e <core_list_undo_remove>:
     e9e:	41d0                	lw	a2,4(a1)
     ea0:	4154                	lw	a3,4(a0)
     ea2:	4198                	lw	a4,0(a1)
     ea4:	c150                	sw	a2,4(a0)
     ea6:	c1d4                	sw	a3,4(a1)
     ea8:	c118                	sw	a4,0(a0)
     eaa:	c188                	sw	a0,0(a1)
     eac:	8082                	ret

00000eae <core_list_find>:
     eae:	00259703          	lh	a4,2(a1)
     eb2:	02074263          	bltz	a4,ed6 <core_list_find+0x28>
     eb6:	cd19                	beqz	a0,ed4 <core_list_find+0x26>
     eb8:	4150                	lw	a2,4(a0)
     eba:	00261683          	lh	a3,2(a2)
     ebe:	00e69963          	bne	a3,a4,ed0 <core_list_find+0x22>
     ec2:	a82d                	j	efc <core_list_find+0x4e>
     ec4:	00452803          	lw	a6,4(a0)
     ec8:	00281883          	lh	a7,2(a6)
     ecc:	00e88463          	beq	a7,a4,ed4 <core_list_find+0x26>
     ed0:	4108                	lw	a0,0(a0)
     ed2:	f96d                	bnez	a0,ec4 <core_list_find+0x16>
     ed4:	8082                	ret
     ed6:	dd7d                	beqz	a0,ed4 <core_list_find+0x26>
     ed8:	415c                	lw	a5,4(a0)
     eda:	00059283          	lh	t0,0(a1)
     ede:	0007c303          	lbu	t1,0(a5)
     ee2:	00531963          	bne	t1,t0,ef4 <core_list_find+0x46>
     ee6:	a821                	j	efe <core_list_find+0x50>
     ee8:	00452383          	lw	t2,4(a0)
     eec:	0003c583          	lbu	a1,0(t2)
     ef0:	00558563          	beq	a1,t0,efa <core_list_find+0x4c>
     ef4:	4108                	lw	a0,0(a0)
     ef6:	f96d                	bnez	a0,ee8 <core_list_find+0x3a>
     ef8:	bff1                	j	ed4 <core_list_find+0x26>
     efa:	8082                	ret
     efc:	8082                	ret
     efe:	8082                	ret

00000f00 <core_list_reverse>:
     f00:	c901                	beqz	a0,f10 <core_list_reverse+0x10>
     f02:	4701                	li	a4,0
     f04:	a011                	j	f08 <core_list_reverse+0x8>
     f06:	853e                	mv	a0,a5
     f08:	411c                	lw	a5,0(a0)
     f0a:	c118                	sw	a4,0(a0)
     f0c:	872a                	mv	a4,a0
     f0e:	ffe5                	bnez	a5,f06 <core_list_reverse+0x6>
     f10:	8082                	ret

00000f12 <core_list_mergesort>:
     f12:	7179                	addi	sp,sp,-48
     f14:	cc52                	sw	s4,24(sp)
     f16:	c85a                	sw	s6,16(sp)
     f18:	c65e                	sw	s7,12(sp)
     f1a:	c462                	sw	s8,8(sp)
     f1c:	c06a                	sw	s10,0(sp)
     f1e:	d606                	sw	ra,44(sp)
     f20:	d422                	sw	s0,40(sp)
     f22:	d226                	sw	s1,36(sp)
     f24:	d04a                	sw	s2,32(sp)
     f26:	ce4e                	sw	s3,28(sp)
     f28:	ca56                	sw	s5,20(sp)
     f2a:	c266                	sw	s9,4(sp)
     f2c:	8a2a                	mv	s4,a0
     f2e:	8bae                	mv	s7,a1
     f30:	8b32                	mv	s6,a2
     f32:	4c05                	li	s8,1
     f34:	4d05                	li	s10,1
     f36:	100a0163          	beqz	s4,1038 <core_list_mergesort+0x126>
     f3a:	4c81                	li	s9,0
     f3c:	4481                	li	s1,0
     f3e:	4a81                	li	s5,0
     f40:	007c7793          	andi	a5,s8,7
     f44:	0c85                	addi	s9,s9,1
     f46:	8452                	mv	s0,s4
     f48:	4901                	li	s2,0
     f4a:	cbb9                	beqz	a5,fa0 <core_list_mergesort+0x8e>
     f4c:	4705                	li	a4,1
     f4e:	04e78463          	beq	a5,a4,f96 <core_list_mergesort+0x84>
     f52:	4089                	li	ra,2
     f54:	02178e63          	beq	a5,ra,f90 <core_list_mergesort+0x7e>
     f58:	428d                	li	t0,3
     f5a:	02578863          	beq	a5,t0,f8a <core_list_mergesort+0x78>
     f5e:	4311                	li	t1,4
     f60:	02678263          	beq	a5,t1,f84 <core_list_mergesort+0x72>
     f64:	4395                	li	t2,5
     f66:	00778c63          	beq	a5,t2,f7e <core_list_mergesort+0x6c>
     f6a:	4519                	li	a0,6
     f6c:	00a78663          	beq	a5,a0,f78 <core_list_mergesort+0x66>
     f70:	000a2403          	lw	s0,0(s4)
     f74:	4905                	li	s2,1
     f76:	c425                	beqz	s0,fde <core_list_mergesort+0xcc>
     f78:	4000                	lw	s0,0(s0)
     f7a:	0905                	addi	s2,s2,1
     f7c:	c02d                	beqz	s0,fde <core_list_mergesort+0xcc>
     f7e:	4000                	lw	s0,0(s0)
     f80:	0905                	addi	s2,s2,1
     f82:	cc31                	beqz	s0,fde <core_list_mergesort+0xcc>
     f84:	4000                	lw	s0,0(s0)
     f86:	0905                	addi	s2,s2,1
     f88:	c839                	beqz	s0,fde <core_list_mergesort+0xcc>
     f8a:	4000                	lw	s0,0(s0)
     f8c:	0905                	addi	s2,s2,1
     f8e:	c821                	beqz	s0,fde <core_list_mergesort+0xcc>
     f90:	4000                	lw	s0,0(s0)
     f92:	0905                	addi	s2,s2,1
     f94:	c429                	beqz	s0,fde <core_list_mergesort+0xcc>
     f96:	4000                	lw	s0,0(s0)
     f98:	0905                	addi	s2,s2,1
     f9a:	c031                	beqz	s0,fde <core_list_mergesort+0xcc>
     f9c:	052c0163          	beq	s8,s2,fde <core_list_mergesort+0xcc>
     fa0:	4000                	lw	s0,0(s0)
     fa2:	0905                	addi	s2,s2,1
     fa4:	85ca                	mv	a1,s2
     fa6:	cc05                	beqz	s0,fde <core_list_mergesort+0xcc>
     fa8:	4000                	lw	s0,0(s0)
     faa:	0905                	addi	s2,s2,1
     fac:	c80d                	beqz	s0,fde <core_list_mergesort+0xcc>
     fae:	4000                	lw	s0,0(s0)
     fb0:	00258913          	addi	s2,a1,2
     fb4:	c40d                	beqz	s0,fde <core_list_mergesort+0xcc>
     fb6:	4000                	lw	s0,0(s0)
     fb8:	00358913          	addi	s2,a1,3
     fbc:	c00d                	beqz	s0,fde <core_list_mergesort+0xcc>
     fbe:	4000                	lw	s0,0(s0)
     fc0:	00458913          	addi	s2,a1,4
     fc4:	cc09                	beqz	s0,fde <core_list_mergesort+0xcc>
     fc6:	4000                	lw	s0,0(s0)
     fc8:	00558913          	addi	s2,a1,5
     fcc:	c809                	beqz	s0,fde <core_list_mergesort+0xcc>
     fce:	4000                	lw	s0,0(s0)
     fd0:	00658913          	addi	s2,a1,6
     fd4:	c409                	beqz	s0,fde <core_list_mergesort+0xcc>
     fd6:	4000                	lw	s0,0(s0)
     fd8:	00758913          	addi	s2,a1,7
     fdc:	f061                	bnez	s0,f9c <core_list_mergesort+0x8a>
     fde:	89e2                	mv	s3,s8
     fe0:	02090463          	beqz	s2,1008 <core_list_mergesort+0xf6>
     fe4:	02098c63          	beqz	s3,101c <core_list_mergesort+0x10a>
     fe8:	c815                	beqz	s0,101c <core_list_mergesort+0x10a>
     fea:	404c                	lw	a1,4(s0)
     fec:	004a2503          	lw	a0,4(s4)
     ff0:	865a                	mv	a2,s6
     ff2:	9b82                	jalr	s7
     ff4:	02a05463          	blez	a0,101c <core_list_mergesort+0x10a>
     ff8:	8622                	mv	a2,s0
     ffa:	4000                	lw	s0,0(s0)
     ffc:	19fd                	addi	s3,s3,-1
     ffe:	cc81                	beqz	s1,1016 <core_list_mergesort+0x104>
    1000:	c090                	sw	a2,0(s1)
    1002:	84b2                	mv	s1,a2
    1004:	fe0910e3          	bnez	s2,fe4 <core_list_mergesort+0xd2>
    1008:	00098f63          	beqz	s3,1026 <core_list_mergesort+0x114>
    100c:	cc19                	beqz	s0,102a <core_list_mergesort+0x118>
    100e:	8622                	mv	a2,s0
    1010:	19fd                	addi	s3,s3,-1
    1012:	4000                	lw	s0,0(s0)
    1014:	f4f5                	bnez	s1,1000 <core_list_mergesort+0xee>
    1016:	8ab2                	mv	s5,a2
    1018:	84b2                	mv	s1,a2
    101a:	b7ed                	j	1004 <core_list_mergesort+0xf2>
    101c:	8652                	mv	a2,s4
    101e:	197d                	addi	s2,s2,-1
    1020:	000a2a03          	lw	s4,0(s4)
    1024:	bfe9                	j	ffe <core_list_mergesort+0xec>
    1026:	8a22                	mv	s4,s0
    1028:	fc01                	bnez	s0,f40 <core_list_mergesort+0x2e>
    102a:	0004a023          	sw	zero,0(s1)
    102e:	01ac8863          	beq	s9,s10,103e <core_list_mergesort+0x12c>
    1032:	0c06                	slli	s8,s8,0x1
    1034:	8a56                	mv	s4,s5
    1036:	b701                	j	f36 <core_list_mergesort+0x24>
    1038:	00002023          	sw	zero,0(zero) # 0 <buf.1936>
    103c:	9002                	ebreak
    103e:	50b2                	lw	ra,44(sp)
    1040:	5422                	lw	s0,40(sp)
    1042:	8556                	mv	a0,s5
    1044:	5492                	lw	s1,36(sp)
    1046:	5902                	lw	s2,32(sp)
    1048:	49f2                	lw	s3,28(sp)
    104a:	4a62                	lw	s4,24(sp)
    104c:	4ad2                	lw	s5,20(sp)
    104e:	4b42                	lw	s6,16(sp)
    1050:	4bb2                	lw	s7,12(sp)
    1052:	4c22                	lw	s8,8(sp)
    1054:	4c92                	lw	s9,4(sp)
    1056:	4d02                	lw	s10,0(sp)
    1058:	6145                	addi	sp,sp,48
    105a:	8082                	ret

0000105c <core_bench_list>:
    105c:	7139                	addi	sp,sp,-64
    105e:	cc62                	sw	s8,24(sp)
    1060:	00451c03          	lh	s8,4(a0)
    1064:	dc22                	sw	s0,56(sp)
    1066:	d256                	sw	s5,36(sp)
    1068:	d05a                	sw	s6,32(sp)
    106a:	de06                	sw	ra,60(sp)
    106c:	da26                	sw	s1,52(sp)
    106e:	d84a                	sw	s2,48(sp)
    1070:	d64e                	sw	s3,44(sp)
    1072:	d452                	sw	s4,40(sp)
    1074:	ce5e                	sw	s7,28(sp)
    1076:	ca66                	sw	s9,20(sp)
    1078:	00b11723          	sh	a1,14(sp)
    107c:	8b2a                	mv	s6,a0
    107e:	8aae                	mv	s5,a1
    1080:	5140                	lw	s0,36(a0)
    1082:	1b805263          	blez	s8,1226 <core_bench_list+0x1ca>
    1086:	8cae                	mv	s9,a1
    1088:	4481                	li	s1,0
    108a:	4b81                	li	s7,0
    108c:	4981                	li	s3,0
    108e:	4901                	li	s2,0
    1090:	00c10a13          	addi	s4,sp,12
    1094:	0ff4f793          	andi	a5,s1,255
    1098:	85d2                	mv	a1,s4
    109a:	8522                	mv	a0,s0
    109c:	00f11623          	sh	a5,12(sp)
    10a0:	3539                	jal	eae <core_list_find>
    10a2:	c811                	beqz	s0,10b6 <core_bench_list+0x5a>
    10a4:	4701                	li	a4,0
    10a6:	a011                	j	10aa <core_bench_list+0x4e>
    10a8:	8406                	mv	s0,ra
    10aa:	00042083          	lw	ra,0(s0)
    10ae:	c018                	sw	a4,0(s0)
    10b0:	8722                	mv	a4,s0
    10b2:	fe009be3          	bnez	ra,10a8 <core_bench_list+0x4c>
    10b6:	c135                	beqz	a0,111a <core_bench_list+0xbe>
    10b8:	00452283          	lw	t0,4(a0)
    10bc:	0985                	addi	s3,s3,1
    10be:	01099313          	slli	t1,s3,0x10
    10c2:	00029383          	lh	t2,0(t0)
    10c6:	01035993          	srli	s3,t1,0x10
    10ca:	0013f593          	andi	a1,t2,1
    10ce:	c991                	beqz	a1,10e2 <core_bench_list+0x86>
    10d0:	4093d613          	srai	a2,t2,0x9
    10d4:	00167693          	andi	a3,a2,1
    10d8:	9936                	add	s2,s2,a3
    10da:	01091813          	slli	a6,s2,0x10
    10de:	01085913          	srli	s2,a6,0x10
    10e2:	00052883          	lw	a7,0(a0)
    10e6:	00088b63          	beqz	a7,10fc <core_bench_list+0xa0>
    10ea:	0008ae03          	lw	t3,0(a7)
    10ee:	01c52023          	sw	t3,0(a0)
    10f2:	4008                	lw	a0,0(s0)
    10f4:	00a8a023          	sw	a0,0(a7)
    10f8:	01142023          	sw	a7,0(s0)
    10fc:	000cc563          	bltz	s9,1106 <core_bench_list+0xaa>
    1100:	0c85                	addi	s9,s9,1
    1102:	01911723          	sh	s9,14(sp)
    1106:	0485                	addi	s1,s1,1
    1108:	01049313          	slli	t1,s1,0x10
    110c:	41035493          	srai	s1,t1,0x10
    1110:	029c0963          	beq	s8,s1,1142 <core_bench_list+0xe6>
    1114:	00e11c83          	lh	s9,14(sp)
    1118:	bfb5                	j	1094 <core_bench_list+0x38>
    111a:	00042e83          	lw	t4,0(s0)
    111e:	0b85                	addi	s7,s7,1
    1120:	010b9f13          	slli	t5,s7,0x10
    1124:	004eaf83          	lw	t6,4(t4)
    1128:	010f5b93          	srli	s7,t5,0x10
    112c:	001f8783          	lb	a5,1(t6)
    1130:	0017f093          	andi	ra,a5,1
    1134:	00190733          	add	a4,s2,ra
    1138:	01071293          	slli	t0,a4,0x10
    113c:	0102d913          	srli	s2,t0,0x10
    1140:	bf75                	j	10fc <core_bench_list+0xa0>
    1142:	00299c13          	slli	s8,s3,0x2
    1146:	417c09b3          	sub	s3,s8,s7
    114a:	013903b3          	add	t2,s2,s3
    114e:	01039593          	slli	a1,t2,0x10
    1152:	0105d493          	srli	s1,a1,0x10
    1156:	01505a63          	blez	s5,116a <core_bench_list+0x10e>
    115a:	00001ab7          	lui	s5,0x1
    115e:	8522                	mv	a0,s0
    1160:	865a                	mv	a2,s6
    1162:	dfaa8593          	addi	a1,s5,-518 # dfa <cmp_complex>
    1166:	3375                	jal	f12 <core_list_mergesort>
    1168:	842a                	mv	s0,a0
    116a:	00042b03          	lw	s6,0(s0)
    116e:	85d2                	mv	a1,s4
    1170:	8522                	mv	a0,s0
    1172:	000b2b83          	lw	s7,0(s6)
    1176:	004b2c83          	lw	s9,4(s6)
    117a:	004ba603          	lw	a2,4(s7)
    117e:	000ba683          	lw	a3,0(s7)
    1182:	00cb2223          	sw	a2,4(s6)
    1186:	019ba223          	sw	s9,4(s7)
    118a:	00db2023          	sw	a3,0(s6)
    118e:	000ba023          	sw	zero,0(s7)
    1192:	3b31                	jal	eae <core_list_find>
    1194:	892a                	mv	s2,a0
    1196:	c159                	beqz	a0,121c <core_bench_list+0x1c0>
    1198:	00442a03          	lw	s4,4(s0)
    119c:	85a6                	mv	a1,s1
    119e:	000a1503          	lh	a0,0(s4)
    11a2:	73d020ef          	jal	ra,40de <crc16>
    11a6:	00092903          	lw	s2,0(s2)
    11aa:	84aa                	mv	s1,a0
    11ac:	fe0916e3          	bnez	s2,1198 <core_bench_list+0x13c>
    11b0:	00042903          	lw	s2,0(s0)
    11b4:	004bac83          	lw	s9,4(s7)
    11b8:	00492803          	lw	a6,4(s2)
    11bc:	00092883          	lw	a7,0(s2)
    11c0:	00001e37          	lui	t3,0x1
    11c4:	010ba223          	sw	a6,4(s7)
    11c8:	01992223          	sw	s9,4(s2)
    11cc:	011ba023          	sw	a7,0(s7)
    11d0:	01792023          	sw	s7,0(s2)
    11d4:	4601                	li	a2,0
    11d6:	ccee0593          	addi	a1,t3,-818 # cce <cmp_idx>
    11da:	8522                	mv	a0,s0
    11dc:	3b1d                	jal	f12 <core_list_mergesort>
    11de:	00052983          	lw	s3,0(a0)
    11e2:	8c2a                	mv	s8,a0
    11e4:	00098e63          	beqz	s3,1200 <core_bench_list+0x1a4>
    11e8:	004c2503          	lw	a0,4(s8)
    11ec:	85a6                	mv	a1,s1
    11ee:	00051503          	lh	a0,0(a0)
    11f2:	6ed020ef          	jal	ra,40de <crc16>
    11f6:	0009a983          	lw	s3,0(s3)
    11fa:	84aa                	mv	s1,a0
    11fc:	fe0996e3          	bnez	s3,11e8 <core_bench_list+0x18c>
    1200:	50f2                	lw	ra,60(sp)
    1202:	5462                	lw	s0,56(sp)
    1204:	8526                	mv	a0,s1
    1206:	5942                	lw	s2,48(sp)
    1208:	54d2                	lw	s1,52(sp)
    120a:	59b2                	lw	s3,44(sp)
    120c:	5a22                	lw	s4,40(sp)
    120e:	5a92                	lw	s5,36(sp)
    1210:	5b02                	lw	s6,32(sp)
    1212:	4bf2                	lw	s7,28(sp)
    1214:	4c62                	lw	s8,24(sp)
    1216:	4cd2                	lw	s9,20(sp)
    1218:	6121                	addi	sp,sp,64
    121a:	8082                	ret
    121c:	00042903          	lw	s2,0(s0)
    1220:	f6091ce3          	bnez	s2,1198 <core_bench_list+0x13c>
    1224:	bf51                	j	11b8 <core_bench_list+0x15c>
    1226:	4481                	li	s1,0
    1228:	00c10a13          	addi	s4,sp,12
    122c:	b72d                	j	1156 <core_bench_list+0xfa>

0000122e <core_list_init>:
    122e:	48d1                	li	a7,20
    1230:	031552b3          	divu	t0,a0,a7
    1234:	852e                	mv	a0,a1
    1236:	75e1                	lui	a1,0xffff8
    1238:	00052023          	sw	zero,0(a0)
    123c:	08058693          	addi	a3,a1,128 # ffff8080 <__C_STACK_TOP__+0xfffe8080>
    1240:	01050793          	addi	a5,a0,16
    1244:	00850713          	addi	a4,a0,8
    1248:	ffe28893          	addi	a7,t0,-2
    124c:	00389813          	slli	a6,a7,0x3
    1250:	982a                	add	a6,a6,a0
    1252:	01052223          	sw	a6,4(a0)
    1256:	00289e13          	slli	t3,a7,0x2
    125a:	00081123          	sh	zero,2(a6)
    125e:	00d81023          	sh	a3,0(a6)
    1262:	9e42                	add	t3,t3,a6
    1264:	00480313          	addi	t1,a6,4
    1268:	2b07f563          	bgeu	a5,a6,1512 <core_list_init+0x2e4>
    126c:	00880693          	addi	a3,a6,8
    1270:	2bc6f163          	bgeu	a3,t3,1512 <core_list_init+0x2e4>
    1274:	00052423          	sw	zero,8(a0)
    1278:	c118                	sw	a4,0(a0)
    127a:	00652623          	sw	t1,12(a0)
    127e:	fff5c393          	not	t2,a1
    1282:	5efd                	li	t4,-1
    1284:	01d81223          	sh	t4,4(a6)
    1288:	00781323          	sh	t2,6(a6)
    128c:	20088d63          	beqz	a7,14a6 <core_list_init+0x278>
    1290:	01061f13          	slli	t5,a2,0x10
    1294:	7fe1                	lui	t6,0xffff8
    1296:	0038f293          	andi	t0,a7,3
    129a:	010f5f13          	srli	t5,t5,0x10
    129e:	4581                	li	a1,0
    12a0:	ffffce93          	not	t4,t6
    12a4:	0c028d63          	beqz	t0,137e <core_list_init+0x150>
    12a8:	4305                	li	t1,1
    12aa:	08628463          	beq	t0,t1,1332 <core_list_init+0x104>
    12ae:	4389                	li	t2,2
    12b0:	02728d63          	beq	t0,t2,12ea <core_list_init+0xbc>
    12b4:	00878293          	addi	t0,a5,8
    12b8:	0302f863          	bgeu	t0,a6,12e8 <core_list_init+0xba>
    12bc:	00468f93          	addi	t6,a3,4
    12c0:	03cff463          	bgeu	t6,t3,12e8 <core_list_init+0xba>
    12c4:	003f1593          	slli	a1,t5,0x3
    12c8:	c398                	sw	a4,0(a5)
    12ca:	0785f713          	andi	a4,a1,120
    12ce:	c11c                	sw	a5,0(a0)
    12d0:	00871313          	slli	t1,a4,0x8
    12d4:	c3d4                	sw	a3,4(a5)
    12d6:	00e363b3          	or	t2,t1,a4
    12da:	00769023          	sh	t2,0(a3)
    12de:	01d69123          	sh	t4,2(a3)
    12e2:	873e                	mv	a4,a5
    12e4:	86fe                	mv	a3,t6
    12e6:	8796                	mv	a5,t0
    12e8:	4585                	li	a1,1
    12ea:	00878293          	addi	t0,a5,8
    12ee:	0502f163          	bgeu	t0,a6,1330 <core_list_init+0x102>
    12f2:	00468393          	addi	t2,a3,4
    12f6:	03c3fd63          	bgeu	t2,t3,1330 <core_list_init+0x102>
    12fa:	01059f93          	slli	t6,a1,0x10
    12fe:	010fdf93          	srli	t6,t6,0x10
    1302:	01efc333          	xor	t1,t6,t5
    1306:	030e                	slli	t1,t1,0x3
    1308:	07837313          	andi	t1,t1,120
    130c:	007fff93          	andi	t6,t6,7
    1310:	c398                	sw	a4,0(a5)
    1312:	01f36733          	or	a4,t1,t6
    1316:	c11c                	sw	a5,0(a0)
    1318:	00871313          	slli	t1,a4,0x8
    131c:	c3d4                	sw	a3,4(a5)
    131e:	00e36fb3          	or	t6,t1,a4
    1322:	01f69023          	sh	t6,0(a3)
    1326:	01d69123          	sh	t4,2(a3)
    132a:	873e                	mv	a4,a5
    132c:	869e                	mv	a3,t2
    132e:	8796                	mv	a5,t0
    1330:	0585                	addi	a1,a1,1
    1332:	00878293          	addi	t0,a5,8
    1336:	0502f163          	bgeu	t0,a6,1378 <core_list_init+0x14a>
    133a:	00468393          	addi	t2,a3,4
    133e:	03c3fd63          	bgeu	t2,t3,1378 <core_list_init+0x14a>
    1342:	01059313          	slli	t1,a1,0x10
    1346:	01035f93          	srli	t6,t1,0x10
    134a:	01efc333          	xor	t1,t6,t5
    134e:	030e                	slli	t1,t1,0x3
    1350:	07837313          	andi	t1,t1,120
    1354:	007fff93          	andi	t6,t6,7
    1358:	c398                	sw	a4,0(a5)
    135a:	01f36733          	or	a4,t1,t6
    135e:	c11c                	sw	a5,0(a0)
    1360:	00871313          	slli	t1,a4,0x8
    1364:	c3d4                	sw	a3,4(a5)
    1366:	00e36fb3          	or	t6,t1,a4
    136a:	01f69023          	sh	t6,0(a3)
    136e:	01d69123          	sh	t4,2(a3)
    1372:	873e                	mv	a4,a5
    1374:	869e                	mv	a3,t2
    1376:	8796                	mv	a5,t0
    1378:	0585                	addi	a1,a1,1
    137a:	12b88663          	beq	a7,a1,14a6 <core_list_init+0x278>
    137e:	00878293          	addi	t0,a5,8
    1382:	0502f163          	bgeu	t0,a6,13c4 <core_list_init+0x196>
    1386:	00468393          	addi	t2,a3,4
    138a:	03c3fd63          	bgeu	t2,t3,13c4 <core_list_init+0x196>
    138e:	01059313          	slli	t1,a1,0x10
    1392:	01035f93          	srli	t6,t1,0x10
    1396:	01efc333          	xor	t1,t6,t5
    139a:	030e                	slli	t1,t1,0x3
    139c:	07837313          	andi	t1,t1,120
    13a0:	007fff93          	andi	t6,t6,7
    13a4:	c398                	sw	a4,0(a5)
    13a6:	01f36733          	or	a4,t1,t6
    13aa:	c11c                	sw	a5,0(a0)
    13ac:	00871313          	slli	t1,a4,0x8
    13b0:	c3d4                	sw	a3,4(a5)
    13b2:	00e36fb3          	or	t6,t1,a4
    13b6:	01f69023          	sh	t6,0(a3)
    13ba:	01d69123          	sh	t4,2(a3)
    13be:	873e                	mv	a4,a5
    13c0:	869e                	mv	a3,t2
    13c2:	8796                	mv	a5,t0
    13c4:	00878293          	addi	t0,a5,8
    13c8:	0585                	addi	a1,a1,1
    13ca:	0502f163          	bgeu	t0,a6,140c <core_list_init+0x1de>
    13ce:	00468393          	addi	t2,a3,4
    13d2:	03c3fd63          	bgeu	t2,t3,140c <core_list_init+0x1de>
    13d6:	01059313          	slli	t1,a1,0x10
    13da:	01035f93          	srli	t6,t1,0x10
    13de:	01efc333          	xor	t1,t6,t5
    13e2:	030e                	slli	t1,t1,0x3
    13e4:	07837313          	andi	t1,t1,120
    13e8:	007fff93          	andi	t6,t6,7
    13ec:	c398                	sw	a4,0(a5)
    13ee:	01f36733          	or	a4,t1,t6
    13f2:	c11c                	sw	a5,0(a0)
    13f4:	00871313          	slli	t1,a4,0x8
    13f8:	c3d4                	sw	a3,4(a5)
    13fa:	00e36fb3          	or	t6,t1,a4
    13fe:	01f69023          	sh	t6,0(a3)
    1402:	01d69123          	sh	t4,2(a3)
    1406:	873e                	mv	a4,a5
    1408:	869e                	mv	a3,t2
    140a:	8796                	mv	a5,t0
    140c:	00878293          	addi	t0,a5,8
    1410:	00158313          	addi	t1,a1,1
    1414:	0502f163          	bgeu	t0,a6,1456 <core_list_init+0x228>
    1418:	00468393          	addi	t2,a3,4
    141c:	03c3fd63          	bgeu	t2,t3,1456 <core_list_init+0x228>
    1420:	01031f93          	slli	t6,t1,0x10
    1424:	010fdf93          	srli	t6,t6,0x10
    1428:	01efc333          	xor	t1,t6,t5
    142c:	030e                	slli	t1,t1,0x3
    142e:	07837313          	andi	t1,t1,120
    1432:	007fff93          	andi	t6,t6,7
    1436:	c398                	sw	a4,0(a5)
    1438:	01f36733          	or	a4,t1,t6
    143c:	c11c                	sw	a5,0(a0)
    143e:	00871313          	slli	t1,a4,0x8
    1442:	c3d4                	sw	a3,4(a5)
    1444:	00e36fb3          	or	t6,t1,a4
    1448:	01f69023          	sh	t6,0(a3)
    144c:	01d69123          	sh	t4,2(a3)
    1450:	873e                	mv	a4,a5
    1452:	869e                	mv	a3,t2
    1454:	8796                	mv	a5,t0
    1456:	00878293          	addi	t0,a5,8
    145a:	00258313          	addi	t1,a1,2
    145e:	0502f163          	bgeu	t0,a6,14a0 <core_list_init+0x272>
    1462:	00468393          	addi	t2,a3,4
    1466:	03c3fd63          	bgeu	t2,t3,14a0 <core_list_init+0x272>
    146a:	01031f93          	slli	t6,t1,0x10
    146e:	010fdf93          	srli	t6,t6,0x10
    1472:	01efc333          	xor	t1,t6,t5
    1476:	030e                	slli	t1,t1,0x3
    1478:	07837313          	andi	t1,t1,120
    147c:	007fff93          	andi	t6,t6,7
    1480:	c398                	sw	a4,0(a5)
    1482:	01f36733          	or	a4,t1,t6
    1486:	c11c                	sw	a5,0(a0)
    1488:	00871313          	slli	t1,a4,0x8
    148c:	c3d4                	sw	a3,4(a5)
    148e:	00e36fb3          	or	t6,t1,a4
    1492:	01f69023          	sh	t6,0(a3)
    1496:	01d69123          	sh	t4,2(a3)
    149a:	873e                	mv	a4,a5
    149c:	869e                	mv	a3,t2
    149e:	8796                	mv	a5,t0
    14a0:	058d                	addi	a1,a1,3
    14a2:	ecb89ee3          	bne	a7,a1,137e <core_list_init+0x150>
    14a6:	00072803          	lw	a6,0(a4)
    14aa:	04080e63          	beqz	a6,1506 <core_list_init+0x2d8>
    14ae:	4e15                	li	t3,5
    14b0:	6f11                	lui	t5,0x4
    14b2:	03c8d8b3          	divu	a7,a7,t3
    14b6:	4585                	li	a1,1
    14b8:	ffff0e93          	addi	t4,t5,-1 # 3fff <crcu16+0x191>
    14bc:	a809                	j	14ce <core_list_init+0x2a0>
    14be:	4318                	lw	a4,0(a4)
    14c0:	00bf1123          	sh	a1,2(t5)
    14c4:	0585                	addi	a1,a1,1
    14c6:	00072283          	lw	t0,0(a4)
    14ca:	02028e63          	beqz	t0,1506 <core_list_init+0x2d8>
    14ce:	01059293          	slli	t0,a1,0x10
    14d2:	0102d393          	srli	t2,t0,0x10
    14d6:	00138313          	addi	t1,t2,1
    14da:	00831f93          	slli	t6,t1,0x8
    14de:	700ff793          	andi	a5,t6,1792
    14e2:	00c3c6b3          	xor	a3,t2,a2
    14e6:	00d7e833          	or	a6,a5,a3
    14ea:	01d87e33          	and	t3,a6,t4
    14ee:	00472f03          	lw	t5,4(a4)
    14f2:	fd15e6e3          	bltu	a1,a7,14be <core_list_init+0x290>
    14f6:	4318                	lw	a4,0(a4)
    14f8:	01cf1123          	sh	t3,2(t5)
    14fc:	0585                	addi	a1,a1,1
    14fe:	00072283          	lw	t0,0(a4)
    1502:	fc0296e3          	bnez	t0,14ce <core_list_init+0x2a0>
    1506:	00001737          	lui	a4,0x1
    150a:	4601                	li	a2,0
    150c:	cce70593          	addi	a1,a4,-818 # cce <cmp_idx>
    1510:	b409                	j	f12 <core_list_mergesort>
    1512:	87ba                	mv	a5,a4
    1514:	869a                	mv	a3,t1
    1516:	4701                	li	a4,0
    1518:	bb95                	j	128c <core_list_init+0x5e>

0000151a <core_init_matrix>:
    151a:	7179                	addi	sp,sp,-48
    151c:	d622                	sw	s0,44(sp)
    151e:	d426                	sw	s1,40(sp)
    1520:	d24a                	sw	s2,36(sp)
    1522:	d04e                	sw	s3,32(sp)
    1524:	ce52                	sw	s4,28(sp)
    1526:	cc56                	sw	s5,24(sp)
    1528:	ca5a                	sw	s6,20(sp)
    152a:	c85e                	sw	s7,16(sp)
    152c:	c662                	sw	s8,12(sp)
    152e:	c466                	sw	s9,8(sp)
    1530:	882a                	mv	a6,a0
    1532:	e211                	bnez	a2,1536 <core_init_matrix+0x1c>
    1534:	4605                	li	a2,1
    1536:	fff58493          	addi	s1,a1,-1
    153a:	ffc4f293          	andi	t0,s1,-4
    153e:	00428993          	addi	s3,t0,4
    1542:	4501                	li	a0,0
    1544:	00081463          	bnez	a6,154c <core_init_matrix+0x32>
    1548:	a47d                	j	17f6 <core_init_matrix+0x2dc>
    154a:	853a                	mv	a0,a4
    154c:	00150713          	addi	a4,a0,1
    1550:	02e707b3          	mul	a5,a4,a4
    1554:	00379313          	slli	t1,a5,0x3
    1558:	ff0369e3          	bltu	t1,a6,154a <core_init_matrix+0x30>
    155c:	02a503b3          	mul	t2,a0,a0
    1560:	8a2a                	mv	s4,a0
    1562:	00139413          	slli	s0,t2,0x1
    1566:	008984b3          	add	s1,s3,s0
    156a:	24050c63          	beqz	a0,17c2 <core_init_matrix+0x2a8>
    156e:	6ec1                	lui	t4,0x10
    1570:	00151913          	slli	s2,a0,0x1
    1574:	8fa6                	mv	t6,s1
    1576:	4381                	li	t2,0
    1578:	4805                	li	a6,1
    157a:	40998f33          	sub	t5,s3,s1
    157e:	1efd                	addi	t4,t4,-1
    1580:	03060633          	mul	a2,a2,a6
    1584:	01081593          	slli	a1,a6,0x10
    1588:	0105da93          	srli	s5,a1,0x10
    158c:	fff50893          	addi	a7,a0,-1
    1590:	0038fb93          	andi	s7,a7,3
    1594:	01ff0b33          	add	s6,t5,t6
    1598:	4e05                	li	t3,1
    159a:	002f8593          	addi	a1,t6,2 # ffff8002 <__C_STACK_TOP__+0xfffe8002>
    159e:	0805                	addi	a6,a6,1
    15a0:	41f65c13          	srai	s8,a2,0x1f
    15a4:	010c5c93          	srli	s9,s8,0x10
    15a8:	019602b3          	add	t0,a2,s9
    15ac:	01d2f733          	and	a4,t0,t4
    15b0:	41970633          	sub	a2,a4,s9
    15b4:	00ca87b3          	add	a5,s5,a2
    15b8:	01079313          	slli	t1,a5,0x10
    15bc:	01035893          	srli	a7,t1,0x10
    15c0:	9ac6                	add	s5,s5,a7
    15c2:	011f9023          	sh	a7,0(t6)
    15c6:	0ffafc13          	andi	s8,s5,255
    15ca:	018b1023          	sh	s8,0(s6)
    15ce:	1eae7663          	bgeu	t3,a0,17ba <core_init_matrix+0x2a0>
    15d2:	0e0b8363          	beqz	s7,16b8 <core_init_matrix+0x19e>
    15d6:	09cb8c63          	beq	s7,t3,166e <core_init_matrix+0x154>
    15da:	4b09                	li	s6,2
    15dc:	056b8663          	beq	s7,s6,1628 <core_init_matrix+0x10e>
    15e0:	03060633          	mul	a2,a2,a6
    15e4:	01081e13          	slli	t3,a6,0x10
    15e8:	010e5b93          	srli	s7,t3,0x10
    15ec:	00bf0cb3          	add	s9,t5,a1
    15f0:	4e09                	li	t3,2
    15f2:	0805                	addi	a6,a6,1
    15f4:	41f65293          	srai	t0,a2,0x1f
    15f8:	0102d713          	srli	a4,t0,0x10
    15fc:	00e607b3          	add	a5,a2,a4
    1600:	01d7f333          	and	t1,a5,t4
    1604:	40e30633          	sub	a2,t1,a4
    1608:	00cb88b3          	add	a7,s7,a2
    160c:	01089a93          	slli	s5,a7,0x10
    1610:	010adc13          	srli	s8,s5,0x10
    1614:	017c0b33          	add	s6,s8,s7
    1618:	01859023          	sh	s8,0(a1)
    161c:	0ffb7593          	andi	a1,s6,255
    1620:	00bc9023          	sh	a1,0(s9)
    1624:	004f8593          	addi	a1,t6,4
    1628:	03060633          	mul	a2,a2,a6
    162c:	01081b93          	slli	s7,a6,0x10
    1630:	010bdc93          	srli	s9,s7,0x10
    1634:	00bf02b3          	add	t0,t5,a1
    1638:	0e05                	addi	t3,t3,1
    163a:	0805                	addi	a6,a6,1
    163c:	0589                	addi	a1,a1,2
    163e:	41f65713          	srai	a4,a2,0x1f
    1642:	01075793          	srli	a5,a4,0x10
    1646:	00f60333          	add	t1,a2,a5
    164a:	01d378b3          	and	a7,t1,t4
    164e:	40f88633          	sub	a2,a7,a5
    1652:	00cc8ab3          	add	s5,s9,a2
    1656:	010a9c13          	slli	s8,s5,0x10
    165a:	010c5b13          	srli	s6,s8,0x10
    165e:	019b0bb3          	add	s7,s6,s9
    1662:	ff659f23          	sh	s6,-2(a1)
    1666:	0ffbfc93          	andi	s9,s7,255
    166a:	01929023          	sh	s9,0(t0)
    166e:	03060633          	mul	a2,a2,a6
    1672:	01081293          	slli	t0,a6,0x10
    1676:	0102d793          	srli	a5,t0,0x10
    167a:	00bf0333          	add	t1,t5,a1
    167e:	0589                	addi	a1,a1,2
    1680:	0e05                	addi	t3,t3,1
    1682:	0805                	addi	a6,a6,1
    1684:	41f65713          	srai	a4,a2,0x1f
    1688:	01075893          	srli	a7,a4,0x10
    168c:	01160ab3          	add	s5,a2,a7
    1690:	01dafc33          	and	s8,s5,t4
    1694:	411c0633          	sub	a2,s8,a7
    1698:	00c78b33          	add	s6,a5,a2
    169c:	010b1b93          	slli	s7,s6,0x10
    16a0:	010bdc93          	srli	s9,s7,0x10
    16a4:	00fc82b3          	add	t0,s9,a5
    16a8:	ff959f23          	sh	s9,-2(a1)
    16ac:	0ff2f793          	andi	a5,t0,255
    16b0:	00f31023          	sh	a5,0(t1)
    16b4:	10ae7363          	bgeu	t3,a0,17ba <core_init_matrix+0x2a0>
    16b8:	03060633          	mul	a2,a2,a6
    16bc:	00180793          	addi	a5,a6,1
    16c0:	00380a93          	addi	s5,a6,3
    16c4:	01079893          	slli	a7,a5,0x10
    16c8:	010a9c93          	slli	s9,s5,0x10
    16cc:	0108db13          	srli	s6,a7,0x10
    16d0:	010cd893          	srli	a7,s9,0x10
    16d4:	01081313          	slli	t1,a6,0x10
    16d8:	01035293          	srli	t0,t1,0x10
    16dc:	00280713          	addi	a4,a6,2
    16e0:	41f65c93          	srai	s9,a2,0x1f
    16e4:	010cdc93          	srli	s9,s9,0x10
    16e8:	9666                	add	a2,a2,s9
    16ea:	01d67633          	and	a2,a2,t4
    16ee:	41960cb3          	sub	s9,a2,s9
    16f2:	02fc87b3          	mul	a5,s9,a5
    16f6:	01928633          	add	a2,t0,s9
    16fa:	01061c93          	slli	s9,a2,0x10
    16fe:	010cd613          	srli	a2,s9,0x10
    1702:	92b2                	add	t0,t0,a2
    1704:	00bf0c33          	add	s8,t5,a1
    1708:	00c59023          	sh	a2,0(a1)
    170c:	01071b93          	slli	s7,a4,0x10
    1710:	0ff2fc93          	andi	s9,t0,255
    1714:	019c1023          	sh	s9,0(s8)
    1718:	010bd313          	srli	t1,s7,0x10
    171c:	8662                	mv	a2,s8
    171e:	8be2                	mv	s7,s8
    1720:	82e2                	mv	t0,s8
    1722:	41f7dc13          	srai	s8,a5,0x1f
    1726:	010c5c93          	srli	s9,s8,0x10
    172a:	97e6                	add	a5,a5,s9
    172c:	01d7fc33          	and	s8,a5,t4
    1730:	419c0cb3          	sub	s9,s8,s9
    1734:	02ec8733          	mul	a4,s9,a4
    1738:	019b07b3          	add	a5,s6,s9
    173c:	01079c13          	slli	s8,a5,0x10
    1740:	010c5c93          	srli	s9,s8,0x10
    1744:	9b66                	add	s6,s6,s9
    1746:	01959123          	sh	s9,2(a1)
    174a:	0ffb7793          	andi	a5,s6,255
    174e:	00fb9123          	sh	a5,2(s7)
    1752:	05a1                	addi	a1,a1,8
    1754:	0e11                	addi	t3,t3,4
    1756:	41f75b93          	srai	s7,a4,0x1f
    175a:	010bdc13          	srli	s8,s7,0x10
    175e:	9762                	add	a4,a4,s8
    1760:	01d77cb3          	and	s9,a4,t4
    1764:	418c8b33          	sub	s6,s9,s8
    1768:	035b0ab3          	mul	s5,s6,s5
    176c:	016307b3          	add	a5,t1,s6
    1770:	01079b93          	slli	s7,a5,0x10
    1774:	010bdc13          	srli	s8,s7,0x10
    1778:	9362                	add	t1,t1,s8
    177a:	ff859e23          	sh	s8,-4(a1)
    177e:	0ff37713          	andi	a4,t1,255
    1782:	00e61223          	sh	a4,4(a2)
    1786:	0811                	addi	a6,a6,4
    1788:	41fad613          	srai	a2,s5,0x1f
    178c:	01065c93          	srli	s9,a2,0x10
    1790:	019a8b33          	add	s6,s5,s9
    1794:	01db7ab3          	and	s5,s6,t4
    1798:	419a8633          	sub	a2,s5,s9
    179c:	00c887b3          	add	a5,a7,a2
    17a0:	01079b93          	slli	s7,a5,0x10
    17a4:	010bdc13          	srli	s8,s7,0x10
    17a8:	98e2                	add	a7,a7,s8
    17aa:	ff859f23          	sh	s8,-2(a1)
    17ae:	0ff8f313          	andi	t1,a7,255
    17b2:	00629323          	sh	t1,6(t0)
    17b6:	f0ae61e3          	bltu	t3,a0,16b8 <core_init_matrix+0x19e>
    17ba:	0385                	addi	t2,t2,1
    17bc:	9fca                	add	t6,t6,s2
    17be:	dca3e1e3          	bltu	t2,a0,1580 <core_init_matrix+0x66>
    17c2:	9426                	add	s0,s0,s1
    17c4:	fff40913          	addi	s2,s0,-1
    17c8:	ffc97f93          	andi	t6,s2,-4
    17cc:	5432                	lw	s0,44(sp)
    17ce:	004f8393          	addi	t2,t6,4
    17d2:	0136a223          	sw	s3,4(a3)
    17d6:	c684                	sw	s1,8(a3)
    17d8:	0146a023          	sw	s4,0(a3)
    17dc:	0076a623          	sw	t2,12(a3)
    17e0:	54a2                	lw	s1,40(sp)
    17e2:	5912                	lw	s2,36(sp)
    17e4:	5982                	lw	s3,32(sp)
    17e6:	4a72                	lw	s4,28(sp)
    17e8:	4ae2                	lw	s5,24(sp)
    17ea:	4b52                	lw	s6,20(sp)
    17ec:	4bc2                	lw	s7,16(sp)
    17ee:	4c32                	lw	s8,12(sp)
    17f0:	4ca2                	lw	s9,8(sp)
    17f2:	6145                	addi	sp,sp,48
    17f4:	8082                	ret
    17f6:	00628493          	addi	s1,t0,6
    17fa:	5a7d                	li	s4,-1
    17fc:	557d                	li	a0,-1
    17fe:	4409                	li	s0,2
    1800:	b3bd                	j	156e <core_init_matrix+0x54>

00001802 <matrix_test>:
    1802:	715d                	addi	sp,sp,-80
    1804:	c4a2                	sw	s0,72(sp)
    1806:	da56                	sw	s5,52(sp)
    1808:	d85a                	sw	s6,48(sp)
    180a:	d65e                	sw	s7,44(sp)
    180c:	747d                	lui	s0,0xfffff
    180e:	c686                	sw	ra,76(sp)
    1810:	c2a6                	sw	s1,68(sp)
    1812:	c0ca                	sw	s2,64(sp)
    1814:	de4e                	sw	s3,60(sp)
    1816:	dc52                	sw	s4,56(sp)
    1818:	d462                	sw	s8,40(sp)
    181a:	d266                	sw	s9,36(sp)
    181c:	d06a                	sw	s10,32(sp)
    181e:	ce6e                	sw	s11,28(sp)
    1820:	8aae                	mv	s5,a1
    1822:	8b32                	mv	s6,a2
    1824:	8bb6                	mv	s7,a3
    1826:	8c59                	or	s0,s0,a4
    1828:	e119                	bnez	a0,182e <matrix_test+0x2c>
    182a:	04c0106f          	j	2876 <matrix_test+0x1074>
    182e:	00151d93          	slli	s11,a0,0x1
    1832:	40a00eb3          	neg	t4,a0
    1836:	01071093          	slli	ra,a4,0x10
    183a:	966e                	add	a2,a2,s11
    183c:	0100d493          	srli	s1,ra,0x10
    1840:	832a                	mv	t1,a0
    1842:	001e9093          	slli	ra,t4,0x1
    1846:	89da                	mv	s3,s6
    1848:	86b2                	mv	a3,a2
    184a:	4a01                	li	s4,0
    184c:	0e8a                	slli	t4,t4,0x2
    184e:	00d08533          	add	a0,ra,a3
    1852:	40a685b3          	sub	a1,a3,a0
    1856:	ffe58293          	addi	t0,a1,-2
    185a:	0012d393          	srli	t2,t0,0x1
    185e:	00138793          	addi	a5,t2,1
    1862:	0077f893          	andi	a7,a5,7
    1866:	87aa                	mv	a5,a0
    1868:	08088863          	beqz	a7,18f8 <matrix_test+0xf6>
    186c:	4805                	li	a6,1
    186e:	07088c63          	beq	a7,a6,18e6 <matrix_test+0xe4>
    1872:	4c09                	li	s8,2
    1874:	07888263          	beq	a7,s8,18d8 <matrix_test+0xd6>
    1878:	4c8d                	li	s9,3
    187a:	05988863          	beq	a7,s9,18ca <matrix_test+0xc8>
    187e:	4d11                	li	s10,4
    1880:	03a88e63          	beq	a7,s10,18bc <matrix_test+0xba>
    1884:	4e15                	li	t3,5
    1886:	03c88463          	beq	a7,t3,18ae <matrix_test+0xac>
    188a:	4f19                	li	t5,6
    188c:	01e88a63          	beq	a7,t5,18a0 <matrix_test+0x9e>
    1890:	00055f83          	lhu	t6,0(a0)
    1894:	00250793          	addi	a5,a0,2
    1898:	01f48933          	add	s2,s1,t6
    189c:	01251023          	sh	s2,0(a0)
    18a0:	0007d583          	lhu	a1,0(a5)
    18a4:	0789                	addi	a5,a5,2
    18a6:	00b482b3          	add	t0,s1,a1
    18aa:	fe579f23          	sh	t0,-2(a5)
    18ae:	0007d383          	lhu	t2,0(a5)
    18b2:	0789                	addi	a5,a5,2
    18b4:	007488b3          	add	a7,s1,t2
    18b8:	ff179f23          	sh	a7,-2(a5)
    18bc:	0007d803          	lhu	a6,0(a5)
    18c0:	0789                	addi	a5,a5,2
    18c2:	01048c33          	add	s8,s1,a6
    18c6:	ff879f23          	sh	s8,-2(a5)
    18ca:	0007dc83          	lhu	s9,0(a5)
    18ce:	0789                	addi	a5,a5,2
    18d0:	01948d33          	add	s10,s1,s9
    18d4:	ffa79f23          	sh	s10,-2(a5)
    18d8:	0007de03          	lhu	t3,0(a5)
    18dc:	0789                	addi	a5,a5,2
    18de:	01c48f33          	add	t5,s1,t3
    18e2:	ffe79f23          	sh	t5,-2(a5)
    18e6:	0007df83          	lhu	t6,0(a5)
    18ea:	0789                	addi	a5,a5,2
    18ec:	01f48933          	add	s2,s1,t6
    18f0:	ff279f23          	sh	s2,-2(a5)
    18f4:	06f68563          	beq	a3,a5,195e <matrix_test+0x15c>
    18f8:	0007d383          	lhu	t2,0(a5)
    18fc:	0027d283          	lhu	t0,2(a5)
    1900:	0047dc03          	lhu	s8,4(a5)
    1904:	0067dc83          	lhu	s9,6(a5)
    1908:	0087dd03          	lhu	s10,8(a5)
    190c:	00a7d883          	lhu	a7,10(a5)
    1910:	00c7d803          	lhu	a6,12(a5)
    1914:	00e7d583          	lhu	a1,14(a5)
    1918:	00748933          	add	s2,s1,t2
    191c:	01848fb3          	add	t6,s1,s8
    1920:	005483b3          	add	t2,s1,t0
    1924:	01948f33          	add	t5,s1,s9
    1928:	01a48e33          	add	t3,s1,s10
    192c:	011482b3          	add	t0,s1,a7
    1930:	01048c33          	add	s8,s1,a6
    1934:	00b48cb3          	add	s9,s1,a1
    1938:	01279023          	sh	s2,0(a5)
    193c:	00779123          	sh	t2,2(a5)
    1940:	01f79223          	sh	t6,4(a5)
    1944:	01e79323          	sh	t5,6(a5)
    1948:	01c79423          	sh	t3,8(a5)
    194c:	00579523          	sh	t0,10(a5)
    1950:	01879623          	sh	s8,12(a5)
    1954:	01979723          	sh	s9,14(a5)
    1958:	07c1                	addi	a5,a5,16
    195a:	f8f69fe3          	bne	a3,a5,18f8 <matrix_test+0xf6>
    195e:	001a0913          	addi	s2,s4,1
    1962:	41d506b3          	sub	a3,a0,t4
    1966:	01230463          	beq	t1,s2,196e <matrix_test+0x16c>
    196a:	8a4a                	mv	s4,s2
    196c:	b5cd                	j	184e <matrix_test+0x4c>
    196e:	41200533          	neg	a0,s2
    1972:	c22a                	sw	a0,4(sp)
    1974:	00291d13          	slli	s10,s2,0x2
    1978:	8c56                	mv	s8,s5
    197a:	82d6                	mv	t0,s5
    197c:	4381                	li	t2,0
    197e:	00251c93          	slli	s9,a0,0x2
    1982:	00160533          	add	a0,a2,ra
    1986:	40a607b3          	sub	a5,a2,a0
    198a:	ffe78313          	addi	t1,a5,-2
    198e:	00135e93          	srli	t4,t1,0x1
    1992:	001e8893          	addi	a7,t4,1 # 10001 <__C_STACK_TOP__+0x1>
    1996:	0078f593          	andi	a1,a7,7
    199a:	8696                	mv	a3,t0
    199c:	87aa                	mv	a5,a0
    199e:	cdd9                	beqz	a1,1a3c <matrix_test+0x23a>
    19a0:	4805                	li	a6,1
    19a2:	09058363          	beq	a1,a6,1a28 <matrix_test+0x226>
    19a6:	4f89                	li	t6,2
    19a8:	07f58863          	beq	a1,t6,1a18 <matrix_test+0x216>
    19ac:	4f0d                	li	t5,3
    19ae:	05e58d63          	beq	a1,t5,1a08 <matrix_test+0x206>
    19b2:	4e11                	li	t3,4
    19b4:	05c58263          	beq	a1,t3,19f8 <matrix_test+0x1f6>
    19b8:	4315                	li	t1,5
    19ba:	02658763          	beq	a1,t1,19e8 <matrix_test+0x1e6>
    19be:	4e99                	li	t4,6
    19c0:	01d58c63          	beq	a1,t4,19d8 <matrix_test+0x1d6>
    19c4:	00051883          	lh	a7,0(a0)
    19c8:	00250793          	addi	a5,a0,2
    19cc:	00428693          	addi	a3,t0,4
    19d0:	02e885b3          	mul	a1,a7,a4
    19d4:	00b2a023          	sw	a1,0(t0)
    19d8:	00079803          	lh	a6,0(a5)
    19dc:	0691                	addi	a3,a3,4
    19de:	0789                	addi	a5,a5,2
    19e0:	02e80fb3          	mul	t6,a6,a4
    19e4:	fff6ae23          	sw	t6,-4(a3)
    19e8:	00079f03          	lh	t5,0(a5)
    19ec:	0691                	addi	a3,a3,4
    19ee:	0789                	addi	a5,a5,2
    19f0:	02ef0e33          	mul	t3,t5,a4
    19f4:	ffc6ae23          	sw	t3,-4(a3)
    19f8:	00079303          	lh	t1,0(a5)
    19fc:	0691                	addi	a3,a3,4
    19fe:	0789                	addi	a5,a5,2
    1a00:	02e30eb3          	mul	t4,t1,a4
    1a04:	ffd6ae23          	sw	t4,-4(a3)
    1a08:	00079883          	lh	a7,0(a5)
    1a0c:	0691                	addi	a3,a3,4
    1a0e:	0789                	addi	a5,a5,2
    1a10:	02e885b3          	mul	a1,a7,a4
    1a14:	feb6ae23          	sw	a1,-4(a3)
    1a18:	00079803          	lh	a6,0(a5)
    1a1c:	0691                	addi	a3,a3,4
    1a1e:	0789                	addi	a5,a5,2
    1a20:	02e80fb3          	mul	t6,a6,a4
    1a24:	fff6ae23          	sw	t6,-4(a3)
    1a28:	00079f03          	lh	t5,0(a5)
    1a2c:	0691                	addi	a3,a3,4
    1a2e:	0789                	addi	a5,a5,2
    1a30:	02ef0e33          	mul	t3,t5,a4
    1a34:	ffc6ae23          	sw	t3,-4(a3)
    1a38:	06f60763          	beq	a2,a5,1aa6 <matrix_test+0x2a4>
    1a3c:	00079f83          	lh	t6,0(a5)
    1a40:	00279f03          	lh	t5,2(a5)
    1a44:	00479e83          	lh	t4,4(a5)
    1a48:	00679e03          	lh	t3,6(a5)
    1a4c:	00879303          	lh	t1,8(a5)
    1a50:	00a79883          	lh	a7,10(a5)
    1a54:	00c79803          	lh	a6,12(a5)
    1a58:	00e79583          	lh	a1,14(a5)
    1a5c:	02ef8fb3          	mul	t6,t6,a4
    1a60:	02068693          	addi	a3,a3,32
    1a64:	07c1                	addi	a5,a5,16
    1a66:	02ef0f33          	mul	t5,t5,a4
    1a6a:	fff6a023          	sw	t6,-32(a3)
    1a6e:	02ee8eb3          	mul	t4,t4,a4
    1a72:	ffe6a223          	sw	t5,-28(a3)
    1a76:	02ee0e33          	mul	t3,t3,a4
    1a7a:	ffd6a423          	sw	t4,-24(a3)
    1a7e:	02e30333          	mul	t1,t1,a4
    1a82:	ffc6a623          	sw	t3,-20(a3)
    1a86:	02e888b3          	mul	a7,a7,a4
    1a8a:	fe66a823          	sw	t1,-16(a3)
    1a8e:	02e80833          	mul	a6,a6,a4
    1a92:	ff16aa23          	sw	a7,-12(a3)
    1a96:	02e585b3          	mul	a1,a1,a4
    1a9a:	ff06ac23          	sw	a6,-8(a3)
    1a9e:	feb6ae23          	sw	a1,-4(a3)
    1aa2:	f8f61de3          	bne	a2,a5,1a3c <matrix_test+0x23a>
    1aa6:	00138793          	addi	a5,t2,1
    1aaa:	92ea                	add	t0,t0,s10
    1aac:	41950633          	sub	a2,a0,s9
    1ab0:	01438463          	beq	t2,s4,1ab8 <matrix_test+0x2b6>
    1ab4:	83be                	mv	t2,a5
    1ab6:	b5f1                	j	1982 <matrix_test+0x180>
    1ab8:	4712                	lw	a4,4(sp)
    1aba:	01aa87b3          	add	a5,s5,s10
    1abe:	863e                	mv	a2,a5
    1ac0:	4501                	li	a0,0
    1ac2:	4e01                	li	t3,0
    1ac4:	4881                	li	a7,0
    1ac6:	4581                	li	a1,0
    1ac8:	070e                	slli	a4,a4,0x3
    1aca:	019603b3          	add	t2,a2,s9
    1ace:	407606b3          	sub	a3,a2,t2
    1ad2:	ffc68093          	addi	ra,a3,-4
    1ad6:	0020df93          	srli	t6,ra,0x2
    1ada:	001f8f13          	addi	t5,t6,1
    1ade:	007f7313          	andi	t1,t5,7
    1ae2:	869e                	mv	a3,t2
    1ae4:	22030c63          	beqz	t1,1d1c <matrix_test+0x51a>
    1ae8:	4e85                	li	t4,1
    1aea:	11d30163          	beq	t1,t4,1bec <matrix_test+0x3ea>
    1aee:	4809                	li	a6,2
    1af0:	0d030c63          	beq	t1,a6,1bc8 <matrix_test+0x3c6>
    1af4:	428d                	li	t0,3
    1af6:	0a530663          	beq	t1,t0,1ba2 <matrix_test+0x3a0>
    1afa:	4091                	li	ra,4
    1afc:	08130063          	beq	t1,ra,1b7c <matrix_test+0x37a>
    1b00:	4f95                	li	t6,5
    1b02:	05f30b63          	beq	t1,t6,1b58 <matrix_test+0x356>
    1b06:	4f19                	li	t5,6
    1b08:	03e30563          	beq	t1,t5,1b32 <matrix_test+0x330>
    1b0c:	0003a303          	lw	t1,0(t2)
    1b10:	0542                	slli	a0,a0,0x10
    1b12:	01055693          	srli	a3,a0,0x10
    1b16:	989a                	add	a7,a7,t1
    1b18:	53144de3          	blt	s0,a7,2852 <matrix_test+0x1050>
    1b1c:	006e2e33          	slt	t3,t3,t1
    1b20:	01c68eb3          	add	t4,a3,t3
    1b24:	010e9813          	slli	a6,t4,0x10
    1b28:	41085513          	srai	a0,a6,0x10
    1b2c:	00438693          	addi	a3,t2,4
    1b30:	8e1a                	mv	t3,t1
    1b32:	0006a083          	lw	ra,0(a3)
    1b36:	01051f93          	slli	t6,a0,0x10
    1b3a:	010fdf13          	srli	t5,t6,0x10
    1b3e:	9886                	add	a7,a7,ra
    1b40:	35144563          	blt	s0,a7,1e8a <matrix_test+0x688>
    1b44:	001e2333          	slt	t1,t3,ra
    1b48:	006f0533          	add	a0,t5,t1
    1b4c:	01051e13          	slli	t3,a0,0x10
    1b50:	410e5513          	srai	a0,t3,0x10
    1b54:	0691                	addi	a3,a3,4
    1b56:	8e06                	mv	t3,ra
    1b58:	0006a283          	lw	t0,0(a3)
    1b5c:	01051093          	slli	ra,a0,0x10
    1b60:	0100df93          	srli	t6,ra,0x10
    1b64:	9896                	add	a7,a7,t0
    1b66:	31144a63          	blt	s0,a7,1e7a <matrix_test+0x678>
    1b6a:	005e2f33          	slt	t5,t3,t0
    1b6e:	01ef8333          	add	t1,t6,t5
    1b72:	01031513          	slli	a0,t1,0x10
    1b76:	8541                	srai	a0,a0,0x10
    1b78:	0691                	addi	a3,a3,4
    1b7a:	8e16                	mv	t3,t0
    1b7c:	0006ae83          	lw	t4,0(a3)
    1b80:	01051813          	slli	a6,a0,0x10
    1b84:	01085293          	srli	t0,a6,0x10
    1b88:	98f6                	add	a7,a7,t4
    1b8a:	2f144163          	blt	s0,a7,1e6c <matrix_test+0x66a>
    1b8e:	01de20b3          	slt	ra,t3,t4
    1b92:	00128fb3          	add	t6,t0,ra
    1b96:	010f9f13          	slli	t5,t6,0x10
    1b9a:	410f5513          	srai	a0,t5,0x10
    1b9e:	0691                	addi	a3,a3,4
    1ba0:	8e76                	mv	t3,t4
    1ba2:	0006ae83          	lw	t4,0(a3)
    1ba6:	01051813          	slli	a6,a0,0x10
    1baa:	01085293          	srli	t0,a6,0x10
    1bae:	98f6                	add	a7,a7,t4
    1bb0:	2b144663          	blt	s0,a7,1e5c <matrix_test+0x65a>
    1bb4:	01de2e33          	slt	t3,t3,t4
    1bb8:	01c280b3          	add	ra,t0,t3
    1bbc:	01009f93          	slli	t6,ra,0x10
    1bc0:	410fd513          	srai	a0,t6,0x10
    1bc4:	0691                	addi	a3,a3,4
    1bc6:	8e76                	mv	t3,t4
    1bc8:	0006a303          	lw	t1,0(a3)
    1bcc:	0542                	slli	a0,a0,0x10
    1bce:	01055e93          	srli	t4,a0,0x10
    1bd2:	989a                	add	a7,a7,t1
    1bd4:	27144c63          	blt	s0,a7,1e4c <matrix_test+0x64a>
    1bd8:	006e2833          	slt	a6,t3,t1
    1bdc:	010e82b3          	add	t0,t4,a6
    1be0:	01029e13          	slli	t3,t0,0x10
    1be4:	410e5513          	srai	a0,t3,0x10
    1be8:	0691                	addi	a3,a3,4
    1bea:	8e1a                	mv	t3,t1
    1bec:	0006af03          	lw	t5,0(a3)
    1bf0:	01051313          	slli	t1,a0,0x10
    1bf4:	01035513          	srli	a0,t1,0x10
    1bf8:	98fa                	add	a7,a7,t5
    1bfa:	25144163          	blt	s0,a7,1e3c <matrix_test+0x63a>
    1bfe:	01ee2eb3          	slt	t4,t3,t5
    1c02:	01d50833          	add	a6,a0,t4
    1c06:	01081293          	slli	t0,a6,0x10
    1c0a:	4102d513          	srai	a0,t0,0x10
    1c0e:	0691                	addi	a3,a3,4
    1c10:	8e7a                	mv	t3,t5
    1c12:	10d61563          	bne	a2,a3,1d1c <matrix_test+0x51a>
    1c16:	ac19                	j	1e2c <matrix_test+0x62a>
    1c18:	00af0893          	addi	a7,t5,10
    1c1c:	0046af83          	lw	t6,4(a3)
    1c20:	01089e13          	slli	t3,a7,0x10
    1c24:	410e5293          	srai	t0,t3,0x10
    1c28:	4301                	li	t1,0
    1c2a:	01029f13          	slli	t5,t0,0x10
    1c2e:	01f308b3          	add	a7,t1,t6
    1c32:	0691                	addi	a3,a3,4
    1c34:	010f5513          	srli	a0,t5,0x10
    1c38:	11145f63          	bge	s0,a7,1d56 <matrix_test+0x554>
    1c3c:	00a50813          	addi	a6,a0,10
    1c40:	0046af03          	lw	t5,4(a3)
    1c44:	01081293          	slli	t0,a6,0x10
    1c48:	4102de13          	srai	t3,t0,0x10
    1c4c:	4881                	li	a7,0
    1c4e:	010e1513          	slli	a0,t3,0x10
    1c52:	98fa                	add	a7,a7,t5
    1c54:	01055093          	srli	ra,a0,0x10
    1c58:	13144063          	blt	s0,a7,1d78 <matrix_test+0x576>
    1c5c:	01efafb3          	slt	t6,t6,t5
    1c60:	01f08333          	add	t1,ra,t6
    1c64:	0086ae03          	lw	t3,8(a3)
    1c68:	01031e93          	slli	t4,t1,0x10
    1c6c:	410ed513          	srai	a0,t4,0x10
    1c70:	01051093          	slli	ra,a0,0x10
    1c74:	98f2                	add	a7,a7,t3
    1c76:	0100df93          	srli	t6,ra,0x10
    1c7a:	11144f63          	blt	s0,a7,1d98 <matrix_test+0x596>
    1c7e:	01cf2f33          	slt	t5,t5,t3
    1c82:	01ef8333          	add	t1,t6,t5
    1c86:	00c6a083          	lw	ra,12(a3)
    1c8a:	01031e93          	slli	t4,t1,0x10
    1c8e:	410ed513          	srai	a0,t4,0x10
    1c92:	01051f93          	slli	t6,a0,0x10
    1c96:	9886                	add	a7,a7,ra
    1c98:	010fdf13          	srli	t5,t6,0x10
    1c9c:	11144e63          	blt	s0,a7,1db8 <matrix_test+0x5b6>
    1ca0:	001e2e33          	slt	t3,t3,ra
    1ca4:	01cf0333          	add	t1,t5,t3
    1ca8:	0106af83          	lw	t6,16(a3)
    1cac:	01031e93          	slli	t4,t1,0x10
    1cb0:	410ed513          	srai	a0,t4,0x10
    1cb4:	01051f13          	slli	t5,a0,0x10
    1cb8:	98fe                	add	a7,a7,t6
    1cba:	010f5e13          	srli	t3,t5,0x10
    1cbe:	11144d63          	blt	s0,a7,1dd8 <matrix_test+0x5d6>
    1cc2:	01f0a0b3          	slt	ra,ra,t6
    1cc6:	001e0333          	add	t1,t3,ra
    1cca:	0146af03          	lw	t5,20(a3)
    1cce:	01031e93          	slli	t4,t1,0x10
    1cd2:	410ed513          	srai	a0,t4,0x10
    1cd6:	01051e13          	slli	t3,a0,0x10
    1cda:	98fa                	add	a7,a7,t5
    1cdc:	010e5093          	srli	ra,t3,0x10
    1ce0:	11144c63          	blt	s0,a7,1df8 <matrix_test+0x5f6>
    1ce4:	01efafb3          	slt	t6,t6,t5
    1ce8:	01f08333          	add	t1,ra,t6
    1cec:	0186ae03          	lw	t3,24(a3)
    1cf0:	01031e93          	slli	t4,t1,0x10
    1cf4:	410ed513          	srai	a0,t4,0x10
    1cf8:	01051093          	slli	ra,a0,0x10
    1cfc:	98f2                	add	a7,a7,t3
    1cfe:	0100df93          	srli	t6,ra,0x10
    1d02:	11144b63          	blt	s0,a7,1e18 <matrix_test+0x616>
    1d06:	01cf2f33          	slt	t5,t5,t3
    1d0a:	01ef8333          	add	t1,t6,t5
    1d0e:	01031e93          	slli	t4,t1,0x10
    1d12:	06f1                	addi	a3,a3,28
    1d14:	410ed513          	srai	a0,t4,0x10
    1d18:	10d60a63          	beq	a2,a3,1e2c <matrix_test+0x62a>
    1d1c:	0006a083          	lw	ra,0(a3)
    1d20:	01051f93          	slli	t6,a0,0x10
    1d24:	010fdf13          	srli	t5,t6,0x10
    1d28:	00188333          	add	t1,a7,ra
    1d2c:	ee6446e3          	blt	s0,t1,1c18 <matrix_test+0x416>
    1d30:	001e2533          	slt	a0,t3,ra
    1d34:	00af0eb3          	add	t4,t5,a0
    1d38:	0046af83          	lw	t6,4(a3)
    1d3c:	010e9813          	slli	a6,t4,0x10
    1d40:	41085293          	srai	t0,a6,0x10
    1d44:	01029f13          	slli	t5,t0,0x10
    1d48:	01f308b3          	add	a7,t1,t6
    1d4c:	0691                	addi	a3,a3,4
    1d4e:	010f5513          	srli	a0,t5,0x10
    1d52:	ef1445e3          	blt	s0,a7,1c3c <matrix_test+0x43a>
    1d56:	01f0a0b3          	slt	ra,ra,t6
    1d5a:	00150333          	add	t1,a0,ra
    1d5e:	0046af03          	lw	t5,4(a3)
    1d62:	01031e93          	slli	t4,t1,0x10
    1d66:	410ede13          	srai	t3,t4,0x10
    1d6a:	010e1513          	slli	a0,t3,0x10
    1d6e:	98fa                	add	a7,a7,t5
    1d70:	01055093          	srli	ra,a0,0x10
    1d74:	ef1454e3          	bge	s0,a7,1c5c <matrix_test+0x45a>
    1d78:	00a08813          	addi	a6,ra,10
    1d7c:	0086ae03          	lw	t3,8(a3)
    1d80:	01081293          	slli	t0,a6,0x10
    1d84:	4102d513          	srai	a0,t0,0x10
    1d88:	4881                	li	a7,0
    1d8a:	01051093          	slli	ra,a0,0x10
    1d8e:	98f2                	add	a7,a7,t3
    1d90:	0100df93          	srli	t6,ra,0x10
    1d94:	ef1455e3          	bge	s0,a7,1c7e <matrix_test+0x47c>
    1d98:	00af8813          	addi	a6,t6,10
    1d9c:	00c6a083          	lw	ra,12(a3)
    1da0:	01081293          	slli	t0,a6,0x10
    1da4:	4102d513          	srai	a0,t0,0x10
    1da8:	4881                	li	a7,0
    1daa:	01051f93          	slli	t6,a0,0x10
    1dae:	9886                	add	a7,a7,ra
    1db0:	010fdf13          	srli	t5,t6,0x10
    1db4:	ef1456e3          	bge	s0,a7,1ca0 <matrix_test+0x49e>
    1db8:	00af0813          	addi	a6,t5,10
    1dbc:	0106af83          	lw	t6,16(a3)
    1dc0:	01081293          	slli	t0,a6,0x10
    1dc4:	4102d513          	srai	a0,t0,0x10
    1dc8:	4881                	li	a7,0
    1dca:	01051f13          	slli	t5,a0,0x10
    1dce:	98fe                	add	a7,a7,t6
    1dd0:	010f5e13          	srli	t3,t5,0x10
    1dd4:	ef1457e3          	bge	s0,a7,1cc2 <matrix_test+0x4c0>
    1dd8:	00ae0813          	addi	a6,t3,10
    1ddc:	0146af03          	lw	t5,20(a3)
    1de0:	01081293          	slli	t0,a6,0x10
    1de4:	4102d513          	srai	a0,t0,0x10
    1de8:	4881                	li	a7,0
    1dea:	01051e13          	slli	t3,a0,0x10
    1dee:	98fa                	add	a7,a7,t5
    1df0:	010e5093          	srli	ra,t3,0x10
    1df4:	ef1458e3          	bge	s0,a7,1ce4 <matrix_test+0x4e2>
    1df8:	00a08813          	addi	a6,ra,10
    1dfc:	0186ae03          	lw	t3,24(a3)
    1e00:	01081293          	slli	t0,a6,0x10
    1e04:	4102d513          	srai	a0,t0,0x10
    1e08:	4881                	li	a7,0
    1e0a:	01051093          	slli	ra,a0,0x10
    1e0e:	98f2                	add	a7,a7,t3
    1e10:	0100df93          	srli	t6,ra,0x10
    1e14:	ef1459e3          	bge	s0,a7,1d06 <matrix_test+0x504>
    1e18:	00af8813          	addi	a6,t6,10
    1e1c:	01081293          	slli	t0,a6,0x10
    1e20:	06f1                	addi	a3,a3,28
    1e22:	4102d513          	srai	a0,t0,0x10
    1e26:	4881                	li	a7,0
    1e28:	eed61ae3          	bne	a2,a3,1d1c <matrix_test+0x51a>
    1e2c:	00158093          	addi	ra,a1,1
    1e30:	40e38633          	sub	a2,t2,a4
    1e34:	07458363          	beq	a1,s4,1e9a <matrix_test+0x698>
    1e38:	8586                	mv	a1,ra
    1e3a:	b941                	j	1aca <matrix_test+0x2c8>
    1e3c:	00a50893          	addi	a7,a0,10
    1e40:	01089e13          	slli	t3,a7,0x10
    1e44:	410e5513          	srai	a0,t3,0x10
    1e48:	4881                	li	a7,0
    1e4a:	b3d1                	j	1c0e <matrix_test+0x40c>
    1e4c:	00ae8093          	addi	ra,t4,10
    1e50:	01009f93          	slli	t6,ra,0x10
    1e54:	410fd513          	srai	a0,t6,0x10
    1e58:	4881                	li	a7,0
    1e5a:	b379                	j	1be8 <matrix_test+0x3e6>
    1e5c:	00a28893          	addi	a7,t0,10
    1e60:	01089f13          	slli	t5,a7,0x10
    1e64:	410f5513          	srai	a0,t5,0x10
    1e68:	4881                	li	a7,0
    1e6a:	bba9                	j	1bc4 <matrix_test+0x3c2>
    1e6c:	00a28313          	addi	t1,t0,10
    1e70:	01031513          	slli	a0,t1,0x10
    1e74:	8541                	srai	a0,a0,0x10
    1e76:	4881                	li	a7,0
    1e78:	b31d                	j	1b9e <matrix_test+0x39c>
    1e7a:	00af8893          	addi	a7,t6,10
    1e7e:	01089e13          	slli	t3,a7,0x10
    1e82:	410e5513          	srai	a0,t3,0x10
    1e86:	4881                	li	a7,0
    1e88:	b9c5                	j	1b78 <matrix_test+0x376>
    1e8a:	00af0e93          	addi	t4,t5,10
    1e8e:	010e9813          	slli	a6,t4,0x10
    1e92:	41085513          	srai	a0,a6,0x10
    1e96:	4881                	li	a7,0
    1e98:	b975                	j	1b54 <matrix_test+0x352>
    1e9a:	4581                	li	a1,0
    1e9c:	c63e                	sw	a5,12(sp)
    1e9e:	c43a                	sw	a4,8(sp)
    1ea0:	23e020ef          	jal	ra,40de <crc16>
    1ea4:	c22a                	sw	a0,4(sp)
    1ea6:	86de                	mv	a3,s7
    1ea8:	854a                	mv	a0,s2
    1eaa:	865a                	mv	a2,s6
    1eac:	85d6                	mv	a1,s5
    1eae:	172010ef          	jal	ra,3020 <matrix_mul_vect>
    1eb2:	4f92                	lw	t6,4(sp)
    1eb4:	4f32                	lw	t5,12(sp)
    1eb6:	4822                	lw	a6,8(sp)
    1eb8:	4501                	li	a0,0
    1eba:	4e01                	li	t3,0
    1ebc:	4881                	li	a7,0
    1ebe:	4381                	li	t2,0
    1ec0:	019f02b3          	add	t0,t5,s9
    1ec4:	405f0333          	sub	t1,t5,t0
    1ec8:	ffc30e93          	addi	t4,t1,-4
    1ecc:	002ed693          	srli	a3,t4,0x2
    1ed0:	00168713          	addi	a4,a3,1
    1ed4:	00777793          	andi	a5,a4,7
    1ed8:	8696                	mv	a3,t0
    1eda:	22078763          	beqz	a5,2108 <matrix_test+0x906>
    1ede:	4085                	li	ra,1
    1ee0:	0e178f63          	beq	a5,ra,1fde <matrix_test+0x7dc>
    1ee4:	4609                	li	a2,2
    1ee6:	0cc78b63          	beq	a5,a2,1fbc <matrix_test+0x7ba>
    1eea:	458d                	li	a1,3
    1eec:	0ab78563          	beq	a5,a1,1f96 <matrix_test+0x794>
    1ef0:	4311                	li	t1,4
    1ef2:	06678f63          	beq	a5,t1,1f70 <matrix_test+0x76e>
    1ef6:	4e95                	li	t4,5
    1ef8:	05d78b63          	beq	a5,t4,1f4e <matrix_test+0x74c>
    1efc:	4719                	li	a4,6
    1efe:	02e78563          	beq	a5,a4,1f28 <matrix_test+0x726>
    1f02:	0002a783          	lw	a5,0(t0)
    1f06:	0542                	slli	a0,a0,0x10
    1f08:	01055693          	srli	a3,a0,0x10
    1f0c:	98be                	add	a7,a7,a5
    1f0e:	15144be3          	blt	s0,a7,2864 <matrix_test+0x1062>
    1f12:	00fe2e33          	slt	t3,t3,a5
    1f16:	01c680b3          	add	ra,a3,t3
    1f1a:	01009613          	slli	a2,ra,0x10
    1f1e:	41065513          	srai	a0,a2,0x10
    1f22:	00428693          	addi	a3,t0,4
    1f26:	8e3e                	mv	t3,a5
    1f28:	0006a303          	lw	t1,0(a3)
    1f2c:	01051e93          	slli	t4,a0,0x10
    1f30:	010ed713          	srli	a4,t4,0x10
    1f34:	989a                	add	a7,a7,t1
    1f36:	33144e63          	blt	s0,a7,2272 <matrix_test+0xa70>
    1f3a:	006e27b3          	slt	a5,t3,t1
    1f3e:	00f70533          	add	a0,a4,a5
    1f42:	01051e13          	slli	t3,a0,0x10
    1f46:	410e5513          	srai	a0,t3,0x10
    1f4a:	0691                	addi	a3,a3,4
    1f4c:	8e1a                	mv	t3,t1
    1f4e:	428c                	lw	a1,0(a3)
    1f50:	01051313          	slli	t1,a0,0x10
    1f54:	01035e93          	srli	t4,t1,0x10
    1f58:	98ae                	add	a7,a7,a1
    1f5a:	31144463          	blt	s0,a7,2262 <matrix_test+0xa60>
    1f5e:	00be2733          	slt	a4,t3,a1
    1f62:	00ee87b3          	add	a5,t4,a4
    1f66:	01079513          	slli	a0,a5,0x10
    1f6a:	8541                	srai	a0,a0,0x10
    1f6c:	0691                	addi	a3,a3,4
    1f6e:	8e2e                	mv	t3,a1
    1f70:	0006a083          	lw	ra,0(a3)
    1f74:	01051613          	slli	a2,a0,0x10
    1f78:	01065593          	srli	a1,a2,0x10
    1f7c:	9886                	add	a7,a7,ra
    1f7e:	2d144b63          	blt	s0,a7,2254 <matrix_test+0xa52>
    1f82:	001e2333          	slt	t1,t3,ra
    1f86:	00658eb3          	add	t4,a1,t1
    1f8a:	010e9713          	slli	a4,t4,0x10
    1f8e:	41075513          	srai	a0,a4,0x10
    1f92:	0691                	addi	a3,a3,4
    1f94:	8e06                	mv	t3,ra
    1f96:	0006a083          	lw	ra,0(a3)
    1f9a:	01051613          	slli	a2,a0,0x10
    1f9e:	01065593          	srli	a1,a2,0x10
    1fa2:	9886                	add	a7,a7,ra
    1fa4:	2b144063          	blt	s0,a7,2244 <matrix_test+0xa42>
    1fa8:	001e2e33          	slt	t3,t3,ra
    1fac:	01c58333          	add	t1,a1,t3
    1fb0:	01031e93          	slli	t4,t1,0x10
    1fb4:	410ed513          	srai	a0,t4,0x10
    1fb8:	0691                	addi	a3,a3,4
    1fba:	8e06                	mv	t3,ra
    1fbc:	429c                	lw	a5,0(a3)
    1fbe:	0542                	slli	a0,a0,0x10
    1fc0:	01055093          	srli	ra,a0,0x10
    1fc4:	98be                	add	a7,a7,a5
    1fc6:	27144763          	blt	s0,a7,2234 <matrix_test+0xa32>
    1fca:	00fe2633          	slt	a2,t3,a5
    1fce:	00c085b3          	add	a1,ra,a2
    1fd2:	01059e13          	slli	t3,a1,0x10
    1fd6:	410e5513          	srai	a0,t3,0x10
    1fda:	0691                	addi	a3,a3,4
    1fdc:	8e3e                	mv	t3,a5
    1fde:	4298                	lw	a4,0(a3)
    1fe0:	01051793          	slli	a5,a0,0x10
    1fe4:	0107d513          	srli	a0,a5,0x10
    1fe8:	98ba                	add	a7,a7,a4
    1fea:	23144d63          	blt	s0,a7,2224 <matrix_test+0xa22>
    1fee:	00ee20b3          	slt	ra,t3,a4
    1ff2:	00150633          	add	a2,a0,ra
    1ff6:	01061593          	slli	a1,a2,0x10
    1ffa:	4105d513          	srai	a0,a1,0x10
    1ffe:	0691                	addi	a3,a3,4
    2000:	8e3a                	mv	t3,a4
    2002:	10df1363          	bne	t5,a3,2108 <matrix_test+0x906>
    2006:	a439                	j	2214 <matrix_test+0xa12>
    2008:	00a70893          	addi	a7,a4,10
    200c:	0046ae83          	lw	t4,4(a3)
    2010:	01089e13          	slli	t3,a7,0x10
    2014:	410e5593          	srai	a1,t3,0x10
    2018:	4781                	li	a5,0
    201a:	01059713          	slli	a4,a1,0x10
    201e:	01d788b3          	add	a7,a5,t4
    2022:	0691                	addi	a3,a3,4
    2024:	01075513          	srli	a0,a4,0x10
    2028:	11145d63          	bge	s0,a7,2142 <matrix_test+0x940>
    202c:	00a50613          	addi	a2,a0,10
    2030:	42d8                	lw	a4,4(a3)
    2032:	01061593          	slli	a1,a2,0x10
    2036:	4105de13          	srai	t3,a1,0x10
    203a:	4881                	li	a7,0
    203c:	010e1513          	slli	a0,t3,0x10
    2040:	98ba                	add	a7,a7,a4
    2042:	01055313          	srli	t1,a0,0x10
    2046:	11144e63          	blt	s0,a7,2162 <matrix_test+0x960>
    204a:	00eeaeb3          	slt	t4,t4,a4
    204e:	01d307b3          	add	a5,t1,t4
    2052:	0086ae03          	lw	t3,8(a3)
    2056:	01079093          	slli	ra,a5,0x10
    205a:	4100d513          	srai	a0,ra,0x10
    205e:	01051313          	slli	t1,a0,0x10
    2062:	98f2                	add	a7,a7,t3
    2064:	01035e93          	srli	t4,t1,0x10
    2068:	11144d63          	blt	s0,a7,2182 <matrix_test+0x980>
    206c:	01c72733          	slt	a4,a4,t3
    2070:	00ee87b3          	add	a5,t4,a4
    2074:	00c6a303          	lw	t1,12(a3)
    2078:	01079093          	slli	ra,a5,0x10
    207c:	4100d513          	srai	a0,ra,0x10
    2080:	01051e93          	slli	t4,a0,0x10
    2084:	989a                	add	a7,a7,t1
    2086:	010ed713          	srli	a4,t4,0x10
    208a:	11144c63          	blt	s0,a7,21a2 <matrix_test+0x9a0>
    208e:	006e2e33          	slt	t3,t3,t1
    2092:	01c707b3          	add	a5,a4,t3
    2096:	0106ae83          	lw	t4,16(a3)
    209a:	01079093          	slli	ra,a5,0x10
    209e:	4100d513          	srai	a0,ra,0x10
    20a2:	01051713          	slli	a4,a0,0x10
    20a6:	98f6                	add	a7,a7,t4
    20a8:	01075e13          	srli	t3,a4,0x10
    20ac:	11144b63          	blt	s0,a7,21c2 <matrix_test+0x9c0>
    20b0:	01d32333          	slt	t1,t1,t4
    20b4:	006e07b3          	add	a5,t3,t1
    20b8:	4ad8                	lw	a4,20(a3)
    20ba:	01079093          	slli	ra,a5,0x10
    20be:	4100d513          	srai	a0,ra,0x10
    20c2:	01051e13          	slli	t3,a0,0x10
    20c6:	98ba                	add	a7,a7,a4
    20c8:	010e5313          	srli	t1,t3,0x10
    20cc:	11144a63          	blt	s0,a7,21e0 <matrix_test+0x9de>
    20d0:	00eeaeb3          	slt	t4,t4,a4
    20d4:	01d307b3          	add	a5,t1,t4
    20d8:	0186ae03          	lw	t3,24(a3)
    20dc:	01079093          	slli	ra,a5,0x10
    20e0:	4100d513          	srai	a0,ra,0x10
    20e4:	01051313          	slli	t1,a0,0x10
    20e8:	98f2                	add	a7,a7,t3
    20ea:	01035e93          	srli	t4,t1,0x10
    20ee:	11144963          	blt	s0,a7,2200 <matrix_test+0x9fe>
    20f2:	01c72733          	slt	a4,a4,t3
    20f6:	00ee87b3          	add	a5,t4,a4
    20fa:	01079093          	slli	ra,a5,0x10
    20fe:	06f1                	addi	a3,a3,28
    2100:	4100d513          	srai	a0,ra,0x10
    2104:	10df0863          	beq	t5,a3,2214 <matrix_test+0xa12>
    2108:	0006a303          	lw	t1,0(a3)
    210c:	01051e93          	slli	t4,a0,0x10
    2110:	010ed713          	srli	a4,t4,0x10
    2114:	006887b3          	add	a5,a7,t1
    2118:	eef448e3          	blt	s0,a5,2008 <matrix_test+0x806>
    211c:	006e2533          	slt	a0,t3,t1
    2120:	00a700b3          	add	ra,a4,a0
    2124:	0046ae83          	lw	t4,4(a3)
    2128:	01009613          	slli	a2,ra,0x10
    212c:	41065593          	srai	a1,a2,0x10
    2130:	01059713          	slli	a4,a1,0x10
    2134:	01d788b3          	add	a7,a5,t4
    2138:	0691                	addi	a3,a3,4
    213a:	01075513          	srli	a0,a4,0x10
    213e:	ef1447e3          	blt	s0,a7,202c <matrix_test+0x82a>
    2142:	01d32333          	slt	t1,t1,t4
    2146:	006507b3          	add	a5,a0,t1
    214a:	42d8                	lw	a4,4(a3)
    214c:	01079093          	slli	ra,a5,0x10
    2150:	4100de13          	srai	t3,ra,0x10
    2154:	010e1513          	slli	a0,t3,0x10
    2158:	98ba                	add	a7,a7,a4
    215a:	01055313          	srli	t1,a0,0x10
    215e:	ef1456e3          	bge	s0,a7,204a <matrix_test+0x848>
    2162:	00a30613          	addi	a2,t1,10
    2166:	0086ae03          	lw	t3,8(a3)
    216a:	01061593          	slli	a1,a2,0x10
    216e:	4105d513          	srai	a0,a1,0x10
    2172:	4881                	li	a7,0
    2174:	01051313          	slli	t1,a0,0x10
    2178:	98f2                	add	a7,a7,t3
    217a:	01035e93          	srli	t4,t1,0x10
    217e:	ef1457e3          	bge	s0,a7,206c <matrix_test+0x86a>
    2182:	00ae8613          	addi	a2,t4,10
    2186:	00c6a303          	lw	t1,12(a3)
    218a:	01061593          	slli	a1,a2,0x10
    218e:	4105d513          	srai	a0,a1,0x10
    2192:	4881                	li	a7,0
    2194:	01051e93          	slli	t4,a0,0x10
    2198:	989a                	add	a7,a7,t1
    219a:	010ed713          	srli	a4,t4,0x10
    219e:	ef1458e3          	bge	s0,a7,208e <matrix_test+0x88c>
    21a2:	00a70613          	addi	a2,a4,10
    21a6:	0106ae83          	lw	t4,16(a3)
    21aa:	01061593          	slli	a1,a2,0x10
    21ae:	4105d513          	srai	a0,a1,0x10
    21b2:	4881                	li	a7,0
    21b4:	01051713          	slli	a4,a0,0x10
    21b8:	98f6                	add	a7,a7,t4
    21ba:	01075e13          	srli	t3,a4,0x10
    21be:	ef1459e3          	bge	s0,a7,20b0 <matrix_test+0x8ae>
    21c2:	00ae0613          	addi	a2,t3,10
    21c6:	4ad8                	lw	a4,20(a3)
    21c8:	01061593          	slli	a1,a2,0x10
    21cc:	4105d513          	srai	a0,a1,0x10
    21d0:	4881                	li	a7,0
    21d2:	01051e13          	slli	t3,a0,0x10
    21d6:	98ba                	add	a7,a7,a4
    21d8:	010e5313          	srli	t1,t3,0x10
    21dc:	ef145ae3          	bge	s0,a7,20d0 <matrix_test+0x8ce>
    21e0:	00a30613          	addi	a2,t1,10
    21e4:	0186ae03          	lw	t3,24(a3)
    21e8:	01061593          	slli	a1,a2,0x10
    21ec:	4105d513          	srai	a0,a1,0x10
    21f0:	4881                	li	a7,0
    21f2:	01051313          	slli	t1,a0,0x10
    21f6:	98f2                	add	a7,a7,t3
    21f8:	01035e93          	srli	t4,t1,0x10
    21fc:	ef145be3          	bge	s0,a7,20f2 <matrix_test+0x8f0>
    2200:	00ae8613          	addi	a2,t4,10
    2204:	01061593          	slli	a1,a2,0x10
    2208:	06f1                	addi	a3,a3,28
    220a:	4105d513          	srai	a0,a1,0x10
    220e:	4881                	li	a7,0
    2210:	eedf1ce3          	bne	t5,a3,2108 <matrix_test+0x906>
    2214:	00138313          	addi	t1,t2,1
    2218:	41028f33          	sub	t5,t0,a6
    221c:	07438363          	beq	t2,s4,2282 <matrix_test+0xa80>
    2220:	839a                	mv	t2,t1
    2222:	b979                	j	1ec0 <matrix_test+0x6be>
    2224:	00a50893          	addi	a7,a0,10
    2228:	01089e13          	slli	t3,a7,0x10
    222c:	410e5513          	srai	a0,t3,0x10
    2230:	4881                	li	a7,0
    2232:	b3f1                	j	1ffe <matrix_test+0x7fc>
    2234:	00a08313          	addi	t1,ra,10
    2238:	01031e93          	slli	t4,t1,0x10
    223c:	410ed513          	srai	a0,t4,0x10
    2240:	4881                	li	a7,0
    2242:	bb61                	j	1fda <matrix_test+0x7d8>
    2244:	00a58893          	addi	a7,a1,10
    2248:	01089713          	slli	a4,a7,0x10
    224c:	41075513          	srai	a0,a4,0x10
    2250:	4881                	li	a7,0
    2252:	b39d                	j	1fb8 <matrix_test+0x7b6>
    2254:	00a58793          	addi	a5,a1,10
    2258:	01079513          	slli	a0,a5,0x10
    225c:	8541                	srai	a0,a0,0x10
    225e:	4881                	li	a7,0
    2260:	bb0d                	j	1f92 <matrix_test+0x790>
    2262:	00ae8893          	addi	a7,t4,10
    2266:	01089e13          	slli	t3,a7,0x10
    226a:	410e5513          	srai	a0,t3,0x10
    226e:	4881                	li	a7,0
    2270:	b9f5                	j	1f6c <matrix_test+0x76a>
    2272:	00a70093          	addi	ra,a4,10
    2276:	01009613          	slli	a2,ra,0x10
    227a:	41065513          	srai	a0,a2,0x10
    227e:	4881                	li	a7,0
    2280:	b1e9                	j	1f4a <matrix_test+0x748>
    2282:	85fe                	mv	a1,t6
    2284:	65b010ef          	jal	ra,40de <crc16>
    2288:	85d6                	mv	a1,s5
    228a:	8a2a                	mv	s4,a0
    228c:	86de                	mv	a3,s7
    228e:	854a                	mv	a0,s2
    2290:	865a                	mv	a2,s6
    2292:	723000ef          	jal	ra,31b4 <matrix_mul_matrix>
    2296:	8cd6                	mv	s9,s5
    2298:	4501                	li	a0,0
    229a:	4381                	li	t2,0
    229c:	4581                	li	a1,0
    229e:	4f81                	li	t6,0
    22a0:	000ca803          	lw	a6,0(s9)
    22a4:	fff90f13          	addi	t5,s2,-1
    22a8:	0542                	slli	a0,a0,0x10
    22aa:	95c2                	add	a1,a1,a6
    22ac:	003f7293          	andi	t0,t5,3
    22b0:	01055e13          	srli	t3,a0,0x10
    22b4:	52b45663          	bge	s0,a1,27e0 <matrix_test+0xfde>
    22b8:	00ae0093          	addi	ra,t3,10
    22bc:	01009613          	slli	a2,ra,0x10
    22c0:	41065513          	srai	a0,a2,0x10
    22c4:	4581                	li	a1,0
    22c6:	4605                	li	a2,1
    22c8:	004c8693          	addi	a3,s9,4
    22cc:	8342                	mv	t1,a6
    22ce:	19267f63          	bgeu	a2,s2,246c <matrix_test+0xc6a>
    22d2:	10028363          	beqz	t0,23d8 <matrix_test+0xbd6>
    22d6:	04c28b63          	beq	t0,a2,232c <matrix_test+0xb2a>
    22da:	4889                	li	a7,2
    22dc:	03128463          	beq	t0,a7,2304 <matrix_test+0xb02>
    22e0:	0006a303          	lw	t1,0(a3)
    22e4:	01051393          	slli	t2,a0,0x10
    22e8:	0103df13          	srli	t5,t2,0x10
    22ec:	959a                	add	a1,a1,t1
    22ee:	54b44a63          	blt	s0,a1,2842 <matrix_test+0x1040>
    22f2:	00682833          	slt	a6,a6,t1
    22f6:	010f02b3          	add	t0,t5,a6
    22fa:	01029513          	slli	a0,t0,0x10
    22fe:	8541                	srai	a0,a0,0x10
    2300:	0605                	addi	a2,a2,1
    2302:	0691                	addi	a3,a3,4
    2304:	0006ae83          	lw	t4,0(a3)
    2308:	01051713          	slli	a4,a0,0x10
    230c:	01075793          	srli	a5,a4,0x10
    2310:	95f6                	add	a1,a1,t4
    2312:	50b44863          	blt	s0,a1,2822 <matrix_test+0x1020>
    2316:	01d32333          	slt	t1,t1,t4
    231a:	006780b3          	add	ra,a5,t1
    231e:	01009893          	slli	a7,ra,0x10
    2322:	4108d513          	srai	a0,a7,0x10
    2326:	0605                	addi	a2,a2,1
    2328:	0691                	addi	a3,a3,4
    232a:	8376                	mv	t1,t4
    232c:	0006a803          	lw	a6,0(a3)
    2330:	01051293          	slli	t0,a0,0x10
    2334:	0102d513          	srli	a0,t0,0x10
    2338:	95c2                	add	a1,a1,a6
    233a:	4ab44c63          	blt	s0,a1,27f2 <matrix_test+0xff0>
    233e:	01032e33          	slt	t3,t1,a6
    2342:	01c50eb3          	add	t4,a0,t3
    2346:	010e9713          	slli	a4,t4,0x10
    234a:	41075513          	srai	a0,a4,0x10
    234e:	0605                	addi	a2,a2,1
    2350:	0691                	addi	a3,a3,4
    2352:	09266363          	bltu	a2,s2,23d8 <matrix_test+0xbd6>
    2356:	aa19                	j	246c <matrix_test+0xc6a>
    2358:	00a38e13          	addi	t3,t2,10
    235c:	42d8                	lw	a4,4(a3)
    235e:	010e1e93          	slli	t4,t3,0x10
    2362:	410ed513          	srai	a0,t4,0x10
    2366:	4f01                	li	t5,0
    2368:	01051793          	slli	a5,a0,0x10
    236c:	00ef02b3          	add	t0,t5,a4
    2370:	0605                	addi	a2,a2,1
    2372:	0691                	addi	a3,a3,4
    2374:	0107d393          	srli	t2,a5,0x10
    2378:	08545d63          	bge	s0,t0,2412 <matrix_test+0xc10>
    237c:	00a38593          	addi	a1,t2,10
    2380:	0046ae03          	lw	t3,4(a3)
    2384:	01059813          	slli	a6,a1,0x10
    2388:	41085313          	srai	t1,a6,0x10
    238c:	4281                	li	t0,0
    238e:	01031513          	slli	a0,t1,0x10
    2392:	01c285b3          	add	a1,t0,t3
    2396:	01055e93          	srli	t4,a0,0x10
    239a:	08b44e63          	blt	s0,a1,2436 <matrix_test+0xc34>
    239e:	01c72733          	slt	a4,a4,t3
    23a2:	00ee87b3          	add	a5,t4,a4
    23a6:	0086a803          	lw	a6,8(a3)
    23aa:	01079393          	slli	t2,a5,0x10
    23ae:	4103df13          	srai	t5,t2,0x10
    23b2:	010f1313          	slli	t1,t5,0x10
    23b6:	95c2                	add	a1,a1,a6
    23b8:	01035293          	srli	t0,t1,0x10
    23bc:	08b44d63          	blt	s0,a1,2456 <matrix_test+0xc54>
    23c0:	010e2e33          	slt	t3,t3,a6
    23c4:	01c28533          	add	a0,t0,t3
    23c8:	01051e93          	slli	t4,a0,0x10
    23cc:	060d                	addi	a2,a2,3
    23ce:	410ed513          	srai	a0,t4,0x10
    23d2:	06b1                	addi	a3,a3,12
    23d4:	09267c63          	bgeu	a2,s2,246c <matrix_test+0xc6a>
    23d8:	0006a083          	lw	ra,0(a3)
    23dc:	01051893          	slli	a7,a0,0x10
    23e0:	0108d393          	srli	t2,a7,0x10
    23e4:	00158f33          	add	t5,a1,ra
    23e8:	f7e448e3          	blt	s0,t5,2358 <matrix_test+0xb56>
    23ec:	00182833          	slt	a6,a6,ra
    23f0:	01038333          	add	t1,t2,a6
    23f4:	42d8                	lw	a4,4(a3)
    23f6:	01031293          	slli	t0,t1,0x10
    23fa:	4102d513          	srai	a0,t0,0x10
    23fe:	01051793          	slli	a5,a0,0x10
    2402:	00ef02b3          	add	t0,t5,a4
    2406:	0605                	addi	a2,a2,1
    2408:	0691                	addi	a3,a3,4
    240a:	0107d393          	srli	t2,a5,0x10
    240e:	f65447e3          	blt	s0,t0,237c <matrix_test+0xb7a>
    2412:	00e0a0b3          	slt	ra,ra,a4
    2416:	001388b3          	add	a7,t2,ra
    241a:	0046ae03          	lw	t3,4(a3)
    241e:	01089f13          	slli	t5,a7,0x10
    2422:	410f5313          	srai	t1,t5,0x10
    2426:	01031513          	slli	a0,t1,0x10
    242a:	01c285b3          	add	a1,t0,t3
    242e:	01055e93          	srli	t4,a0,0x10
    2432:	f6b456e3          	bge	s0,a1,239e <matrix_test+0xb9c>
    2436:	00ae8093          	addi	ra,t4,10
    243a:	0086a803          	lw	a6,8(a3)
    243e:	01009893          	slli	a7,ra,0x10
    2442:	4108df13          	srai	t5,a7,0x10
    2446:	4581                	li	a1,0
    2448:	010f1313          	slli	t1,t5,0x10
    244c:	95c2                	add	a1,a1,a6
    244e:	01035293          	srli	t0,t1,0x10
    2452:	f6b457e3          	bge	s0,a1,23c0 <matrix_test+0xbbe>
    2456:	00a28713          	addi	a4,t0,10
    245a:	01071793          	slli	a5,a4,0x10
    245e:	060d                	addi	a2,a2,3
    2460:	4107d513          	srai	a0,a5,0x10
    2464:	4581                	li	a1,0
    2466:	06b1                	addi	a3,a3,12
    2468:	f72668e3          	bltu	a2,s2,23d8 <matrix_test+0xbd6>
    246c:	0f85                	addi	t6,t6,1
    246e:	9cea                	add	s9,s9,s10
    2470:	83c2                	mv	t2,a6
    2472:	e32fe7e3          	bltu	t6,s2,22a0 <matrix_test+0xa9e>
    2476:	85d2                	mv	a1,s4
    2478:	467010ef          	jal	ra,40de <crc16>
    247c:	865a                	mv	a2,s6
    247e:	85d6                	mv	a1,s5
    2480:	8a2a                	mv	s4,a0
    2482:	86de                	mv	a3,s7
    2484:	854a                	mv	a0,s2
    2486:	70d000ef          	jal	ra,3392 <matrix_mul_matrix_bitextract>
    248a:	4501                	li	a0,0
    248c:	4a81                	li	s5,0
    248e:	4801                	li	a6,0
    2490:	4b01                	li	s6,0
    2492:	000c2683          	lw	a3,0(s8)
    2496:	fff90b93          	addi	s7,s2,-1
    249a:	01051f93          	slli	t6,a0,0x10
    249e:	9836                	add	a6,a6,a3
    24a0:	003bfc93          	andi	s9,s7,3
    24a4:	010fd393          	srli	t2,t6,0x10
    24a8:	33045363          	bge	s0,a6,27ce <matrix_test+0xfcc>
    24ac:	00a38813          	addi	a6,t2,10
    24b0:	01081313          	slli	t1,a6,0x10
    24b4:	41035513          	srai	a0,t1,0x10
    24b8:	4801                	li	a6,0
    24ba:	4585                	li	a1,1
    24bc:	004c0613          	addi	a2,s8,4
    24c0:	8336                	mv	t1,a3
    24c2:	1b25f563          	bgeu	a1,s2,266c <matrix_test+0xe6a>
    24c6:	100c8663          	beqz	s9,25d2 <matrix_test+0xdd0>
    24ca:	04bc8c63          	beq	s9,a1,2522 <matrix_test+0xd20>
    24ce:	4289                	li	t0,2
    24d0:	025c8563          	beq	s9,t0,24fa <matrix_test+0xcf8>
    24d4:	00062303          	lw	t1,0(a2)
    24d8:	01051e13          	slli	t3,a0,0x10
    24dc:	010e5513          	srli	a0,t3,0x10
    24e0:	981a                	add	a6,a6,t1
    24e2:	35044863          	blt	s0,a6,2832 <matrix_test+0x1030>
    24e6:	0066aeb3          	slt	t4,a3,t1
    24ea:	01d50733          	add	a4,a0,t4
    24ee:	01071793          	slli	a5,a4,0x10
    24f2:	4107d513          	srai	a0,a5,0x10
    24f6:	0585                	addi	a1,a1,1
    24f8:	0611                	addi	a2,a2,4
    24fa:	00062b83          	lw	s7,0(a2)
    24fe:	01051c93          	slli	s9,a0,0x10
    2502:	010cdf93          	srli	t6,s9,0x10
    2506:	985e                	add	a6,a6,s7
    2508:	31044563          	blt	s0,a6,2812 <matrix_test+0x1010>
    250c:	017323b3          	slt	t2,t1,s7
    2510:	007f80b3          	add	ra,t6,t2
    2514:	01009893          	slli	a7,ra,0x10
    2518:	4108d513          	srai	a0,a7,0x10
    251c:	0585                	addi	a1,a1,1
    251e:	0611                	addi	a2,a2,4
    2520:	835e                	mv	t1,s7
    2522:	4214                	lw	a3,0(a2)
    2524:	01051293          	slli	t0,a0,0x10
    2528:	0102de13          	srli	t3,t0,0x10
    252c:	9836                	add	a6,a6,a3
    252e:	2d044a63          	blt	s0,a6,2802 <matrix_test+0x1000>
    2532:	00d32533          	slt	a0,t1,a3
    2536:	00ae0eb3          	add	t4,t3,a0
    253a:	010e9713          	slli	a4,t4,0x10
    253e:	41075513          	srai	a0,a4,0x10
    2542:	0585                	addi	a1,a1,1
    2544:	0611                	addi	a2,a2,4
    2546:	0925e663          	bltu	a1,s2,25d2 <matrix_test+0xdd0>
    254a:	a20d                	j	266c <matrix_test+0xe6a>
    254c:	00af8813          	addi	a6,t6,10
    2550:	00462283          	lw	t0,4(a2)
    2554:	01081313          	slli	t1,a6,0x10
    2558:	41035f13          	srai	t5,t1,0x10
    255c:	4381                	li	t2,0
    255e:	00158e13          	addi	t3,a1,1
    2562:	00538fb3          	add	t6,t2,t0
    2566:	010f1593          	slli	a1,t5,0x10
    256a:	0611                	addi	a2,a2,4
    256c:	0105d513          	srli	a0,a1,0x10
    2570:	0bf45063          	bge	s0,t6,2610 <matrix_test+0xe0e>
    2574:	00a50a93          	addi	s5,a0,10
    2578:	00462383          	lw	t2,4(a2)
    257c:	010a9b93          	slli	s7,s5,0x10
    2580:	410bdc93          	srai	s9,s7,0x10
    2584:	4f81                	li	t6,0
    2586:	010c9693          	slli	a3,s9,0x10
    258a:	007f8eb3          	add	t4,t6,t2
    258e:	0106d093          	srli	ra,a3,0x10
    2592:	0bd44163          	blt	s0,t4,2634 <matrix_test+0xe32>
    2596:	0072a8b3          	slt	a7,t0,t2
    259a:	01108f33          	add	t5,ra,a7
    259e:	4614                	lw	a3,8(a2)
    25a0:	010f1313          	slli	t1,t5,0x10
    25a4:	41035593          	srai	a1,t1,0x10
    25a8:	01059513          	slli	a0,a1,0x10
    25ac:	00de8833          	add	a6,t4,a3
    25b0:	01055713          	srli	a4,a0,0x10
    25b4:	0b044063          	blt	s0,a6,2654 <matrix_test+0xe52>
    25b8:	00d3a7b3          	slt	a5,t2,a3
    25bc:	00f70ab3          	add	s5,a4,a5
    25c0:	010a9b93          	slli	s7,s5,0x10
    25c4:	003e0593          	addi	a1,t3,3
    25c8:	410bd513          	srai	a0,s7,0x10
    25cc:	0631                	addi	a2,a2,12
    25ce:	0925ff63          	bgeu	a1,s2,266c <matrix_test+0xe6a>
    25d2:	00062b83          	lw	s7,0(a2)
    25d6:	01051c93          	slli	s9,a0,0x10
    25da:	010cdf93          	srli	t6,s9,0x10
    25de:	017803b3          	add	t2,a6,s7
    25e2:	f67445e3          	blt	s0,t2,254c <matrix_test+0xd4a>
    25e6:	0176a6b3          	slt	a3,a3,s7
    25ea:	00df80b3          	add	ra,t6,a3
    25ee:	00462283          	lw	t0,4(a2)
    25f2:	01009893          	slli	a7,ra,0x10
    25f6:	4108df13          	srai	t5,a7,0x10
    25fa:	00158e13          	addi	t3,a1,1
    25fe:	00538fb3          	add	t6,t2,t0
    2602:	010f1593          	slli	a1,t5,0x10
    2606:	0611                	addi	a2,a2,4
    2608:	0105d513          	srli	a0,a1,0x10
    260c:	f7f444e3          	blt	s0,t6,2574 <matrix_test+0xd72>
    2610:	005baeb3          	slt	t4,s7,t0
    2614:	01d50733          	add	a4,a0,t4
    2618:	00462383          	lw	t2,4(a2)
    261c:	01071793          	slli	a5,a4,0x10
    2620:	4107dc93          	srai	s9,a5,0x10
    2624:	010c9693          	slli	a3,s9,0x10
    2628:	007f8eb3          	add	t4,t6,t2
    262c:	0106d093          	srli	ra,a3,0x10
    2630:	f7d453e3          	bge	s0,t4,2596 <matrix_test+0xd94>
    2634:	00a08813          	addi	a6,ra,10
    2638:	4614                	lw	a3,8(a2)
    263a:	01081293          	slli	t0,a6,0x10
    263e:	4102d593          	srai	a1,t0,0x10
    2642:	4e81                	li	t4,0
    2644:	01059513          	slli	a0,a1,0x10
    2648:	00de8833          	add	a6,t4,a3
    264c:	01055713          	srli	a4,a0,0x10
    2650:	f70454e3          	bge	s0,a6,25b8 <matrix_test+0xdb6>
    2654:	00a70c93          	addi	s9,a4,10
    2658:	010c9f93          	slli	t6,s9,0x10
    265c:	003e0593          	addi	a1,t3,3
    2660:	410fd513          	srai	a0,t6,0x10
    2664:	4801                	li	a6,0
    2666:	0631                	addi	a2,a2,12
    2668:	f725e5e3          	bltu	a1,s2,25d2 <matrix_test+0xdd0>
    266c:	0b05                	addi	s6,s6,1
    266e:	9c6a                	add	s8,s8,s10
    2670:	8ab6                	mv	s5,a3
    2672:	e32b60e3          	bltu	s6,s2,2492 <matrix_test+0xc90>
    2676:	85d2                	mv	a1,s4
    2678:	267010ef          	jal	ra,40de <crc16>
    267c:	4401                	li	s0,0
    267e:	0009dc03          	lhu	s8,0(s3)
    2682:	fff90d13          	addi	s10,s2,-1
    2686:	4705                	li	a4,1
    2688:	409c0a33          	sub	s4,s8,s1
    268c:	01499023          	sh	s4,0(s3)
    2690:	007d7b13          	andi	s6,s10,7
    2694:	00298793          	addi	a5,s3,2
    2698:	11277463          	bgeu	a4,s2,27a0 <matrix_test+0xf9e>
    269c:	080b0e63          	beqz	s6,2738 <matrix_test+0xf36>
    26a0:	08eb0263          	beq	s6,a4,2724 <matrix_test+0xf22>
    26a4:	4e09                	li	t3,2
    26a6:	07cb0763          	beq	s6,t3,2714 <matrix_test+0xf12>
    26aa:	438d                	li	t2,3
    26ac:	047b0c63          	beq	s6,t2,2704 <matrix_test+0xf02>
    26b0:	4091                	li	ra,4
    26b2:	041b0163          	beq	s6,ra,26f4 <matrix_test+0xef2>
    26b6:	4895                	li	a7,5
    26b8:	031b0663          	beq	s6,a7,26e4 <matrix_test+0xee2>
    26bc:	4f19                	li	t5,6
    26be:	01eb0b63          	beq	s6,t5,26d4 <matrix_test+0xed2>
    26c2:	0007d303          	lhu	t1,0(a5)
    26c6:	4709                	li	a4,2
    26c8:	409302b3          	sub	t0,t1,s1
    26cc:	00579023          	sh	t0,0(a5)
    26d0:	00498793          	addi	a5,s3,4
    26d4:	0007de83          	lhu	t4,0(a5)
    26d8:	0705                	addi	a4,a4,1
    26da:	0789                	addi	a5,a5,2
    26dc:	409e86b3          	sub	a3,t4,s1
    26e0:	fed79f23          	sh	a3,-2(a5)
    26e4:	0007da83          	lhu	s5,0(a5)
    26e8:	0705                	addi	a4,a4,1
    26ea:	0789                	addi	a5,a5,2
    26ec:	409a8bb3          	sub	s7,s5,s1
    26f0:	ff779f23          	sh	s7,-2(a5)
    26f4:	0007dc83          	lhu	s9,0(a5)
    26f8:	0705                	addi	a4,a4,1
    26fa:	0789                	addi	a5,a5,2
    26fc:	409c8fb3          	sub	t6,s9,s1
    2700:	fff79f23          	sh	t6,-2(a5)
    2704:	0007d803          	lhu	a6,0(a5)
    2708:	0705                	addi	a4,a4,1
    270a:	0789                	addi	a5,a5,2
    270c:	409805b3          	sub	a1,a6,s1
    2710:	feb79f23          	sh	a1,-2(a5)
    2714:	0007d603          	lhu	a2,0(a5)
    2718:	0705                	addi	a4,a4,1
    271a:	0789                	addi	a5,a5,2
    271c:	40960c33          	sub	s8,a2,s1
    2720:	ff879f23          	sh	s8,-2(a5)
    2724:	0007dd03          	lhu	s10,0(a5)
    2728:	0789                	addi	a5,a5,2
    272a:	0705                	addi	a4,a4,1
    272c:	409d0a33          	sub	s4,s10,s1
    2730:	ff479f23          	sh	s4,-2(a5)
    2734:	07277663          	bgeu	a4,s2,27a0 <matrix_test+0xf9e>
    2738:	0007db03          	lhu	s6,0(a5)
    273c:	0027de03          	lhu	t3,2(a5)
    2740:	0047d383          	lhu	t2,4(a5)
    2744:	0067d083          	lhu	ra,6(a5)
    2748:	0087d283          	lhu	t0,8(a5)
    274c:	00a7de83          	lhu	t4,10(a5)
    2750:	00c7da83          	lhu	s5,12(a5)
    2754:	00e7d683          	lhu	a3,14(a5)
    2758:	409b0f33          	sub	t5,s6,s1
    275c:	409e0bb3          	sub	s7,t3,s1
    2760:	40938333          	sub	t1,t2,s1
    2764:	409088b3          	sub	a7,ra,s1
    2768:	40928cb3          	sub	s9,t0,s1
    276c:	409e8fb3          	sub	t6,t4,s1
    2770:	409a8833          	sub	a6,s5,s1
    2774:	409685b3          	sub	a1,a3,s1
    2778:	01e79023          	sh	t5,0(a5)
    277c:	01779123          	sh	s7,2(a5)
    2780:	00679223          	sh	t1,4(a5)
    2784:	01179323          	sh	a7,6(a5)
    2788:	01979423          	sh	s9,8(a5)
    278c:	01f79523          	sh	t6,10(a5)
    2790:	01079623          	sh	a6,12(a5)
    2794:	00b79723          	sh	a1,14(a5)
    2798:	0721                	addi	a4,a4,8
    279a:	07c1                	addi	a5,a5,16
    279c:	f9276ee3          	bltu	a4,s2,2738 <matrix_test+0xf36>
    27a0:	0405                	addi	s0,s0,1
    27a2:	99ee                	add	s3,s3,s11
    27a4:	ed246de3          	bltu	s0,s2,267e <matrix_test+0xe7c>
    27a8:	40b6                	lw	ra,76(sp)
    27aa:	4426                	lw	s0,72(sp)
    27ac:	01051493          	slli	s1,a0,0x10
    27b0:	4104d513          	srai	a0,s1,0x10
    27b4:	4906                	lw	s2,64(sp)
    27b6:	4496                	lw	s1,68(sp)
    27b8:	59f2                	lw	s3,60(sp)
    27ba:	5a62                	lw	s4,56(sp)
    27bc:	5ad2                	lw	s5,52(sp)
    27be:	5b42                	lw	s6,48(sp)
    27c0:	5bb2                	lw	s7,44(sp)
    27c2:	5c22                	lw	s8,40(sp)
    27c4:	5c92                	lw	s9,36(sp)
    27c6:	5d02                	lw	s10,32(sp)
    27c8:	4df2                	lw	s11,28(sp)
    27ca:	6161                	addi	sp,sp,80
    27cc:	8082                	ret
    27ce:	00daa0b3          	slt	ra,s5,a3
    27d2:	001388b3          	add	a7,t2,ra
    27d6:	01089f13          	slli	t5,a7,0x10
    27da:	410f5513          	srai	a0,t5,0x10
    27de:	b9f1                	j	24ba <matrix_test+0xcb8>
    27e0:	0103aeb3          	slt	t4,t2,a6
    27e4:	01de0733          	add	a4,t3,t4
    27e8:	01071793          	slli	a5,a4,0x10
    27ec:	4107d513          	srai	a0,a5,0x10
    27f0:	bcd9                	j	22c6 <matrix_test+0xac4>
    27f2:	00a50593          	addi	a1,a0,10
    27f6:	01059793          	slli	a5,a1,0x10
    27fa:	4107d513          	srai	a0,a5,0x10
    27fe:	4581                	li	a1,0
    2800:	b6b9                	j	234e <matrix_test+0xb4c>
    2802:	00ae0793          	addi	a5,t3,10
    2806:	01079a93          	slli	s5,a5,0x10
    280a:	410ad513          	srai	a0,s5,0x10
    280e:	4801                	li	a6,0
    2810:	bb0d                	j	2542 <matrix_test+0xd40>
    2812:	00af8f13          	addi	t5,t6,10
    2816:	010f1813          	slli	a6,t5,0x10
    281a:	41085513          	srai	a0,a6,0x10
    281e:	4801                	li	a6,0
    2820:	b9f5                	j	251c <matrix_test+0xd1a>
    2822:	00a78393          	addi	t2,a5,10
    2826:	01039f13          	slli	t5,t2,0x10
    282a:	410f5513          	srai	a0,t5,0x10
    282e:	4581                	li	a1,0
    2830:	bcdd                	j	2326 <matrix_test+0xb24>
    2832:	00a50693          	addi	a3,a0,10
    2836:	01069a93          	slli	s5,a3,0x10
    283a:	410ad513          	srai	a0,s5,0x10
    283e:	4801                	li	a6,0
    2840:	b95d                	j	24f6 <matrix_test+0xcf4>
    2842:	00af0593          	addi	a1,t5,10
    2846:	01059e13          	slli	t3,a1,0x10
    284a:	410e5513          	srai	a0,t3,0x10
    284e:	4581                	li	a1,0
    2850:	bc45                	j	2300 <matrix_test+0xafe>
    2852:	00a68893          	addi	a7,a3,10
    2856:	01089293          	slli	t0,a7,0x10
    285a:	4102d513          	srai	a0,t0,0x10
    285e:	4881                	li	a7,0
    2860:	accff06f          	j	1b2c <matrix_test+0x32a>
    2864:	00a68893          	addi	a7,a3,10
    2868:	01089593          	slli	a1,a7,0x10
    286c:	4105d513          	srai	a0,a1,0x10
    2870:	4881                	li	a7,0
    2872:	eb0ff06f          	j	1f22 <matrix_test+0x720>
    2876:	4581                	li	a1,0
    2878:	067010ef          	jal	ra,40de <crc16>
    287c:	86de                	mv	a3,s7
    287e:	865a                	mv	a2,s6
    2880:	84aa                	mv	s1,a0
    2882:	85d6                	mv	a1,s5
    2884:	4501                	li	a0,0
    2886:	2f69                	jal	3020 <matrix_mul_vect>
    2888:	85a6                	mv	a1,s1
    288a:	4501                	li	a0,0
    288c:	053010ef          	jal	ra,40de <crc16>
    2890:	86de                	mv	a3,s7
    2892:	865a                	mv	a2,s6
    2894:	892a                	mv	s2,a0
    2896:	85d6                	mv	a1,s5
    2898:	4501                	li	a0,0
    289a:	11b000ef          	jal	ra,31b4 <matrix_mul_matrix>
    289e:	85ca                	mv	a1,s2
    28a0:	4501                	li	a0,0
    28a2:	03d010ef          	jal	ra,40de <crc16>
    28a6:	89aa                	mv	s3,a0
    28a8:	85d6                	mv	a1,s5
    28aa:	86de                	mv	a3,s7
    28ac:	865a                	mv	a2,s6
    28ae:	4501                	li	a0,0
    28b0:	2e3000ef          	jal	ra,3392 <matrix_mul_matrix_bitextract>
    28b4:	85ce                	mv	a1,s3
    28b6:	4501                	li	a0,0
    28b8:	027010ef          	jal	ra,40de <crc16>
    28bc:	b5f5                	j	27a8 <matrix_test+0xfa6>

000028be <core_bench_matrix>:
    28be:	1141                	addi	sp,sp,-16
    28c0:	c422                	sw	s0,8(sp)
    28c2:	872e                	mv	a4,a1
    28c4:	8432                	mv	s0,a2
    28c6:	454c                	lw	a1,12(a0)
    28c8:	4514                	lw	a3,8(a0)
    28ca:	4150                	lw	a2,4(a0)
    28cc:	4108                	lw	a0,0(a0)
    28ce:	c606                	sw	ra,12(sp)
    28d0:	f33fe0ef          	jal	ra,1802 <matrix_test>
    28d4:	85a2                	mv	a1,s0
    28d6:	4422                	lw	s0,8(sp)
    28d8:	40b2                	lw	ra,12(sp)
    28da:	0141                	addi	sp,sp,16
    28dc:	0030106f          	j	40de <crc16>

000028e0 <matrix_sum>:
    28e0:	3e050163          	beqz	a0,2cc2 <matrix_sum+0x3e2>
    28e4:	40a00833          	neg	a6,a0
    28e8:	00251713          	slli	a4,a0,0x2
    28ec:	972e                	add	a4,a4,a1
    28ee:	00281893          	slli	a7,a6,0x2
    28f2:	4581                	li	a1,0
    28f4:	4781                	li	a5,0
    28f6:	4f01                	li	t5,0
    28f8:	4e01                	li	t3,0
    28fa:	080e                	slli	a6,a6,0x3
    28fc:	00e886b3          	add	a3,a7,a4
    2900:	40d70eb3          	sub	t4,a4,a3
    2904:	ffce8293          	addi	t0,t4,-4
    2908:	0022d313          	srli	t1,t0,0x2
    290c:	00130393          	addi	t2,t1,1
    2910:	0073fe93          	andi	t4,t2,7
    2914:	8336                	mv	t1,a3
    2916:	200e8a63          	beqz	t4,2b2a <matrix_sum+0x24a>
    291a:	4f85                	li	t6,1
    291c:	11fe8163          	beq	t4,t6,2a1e <matrix_sum+0x13e>
    2920:	4289                	li	t0,2
    2922:	0c5e8b63          	beq	t4,t0,29f8 <matrix_sum+0x118>
    2926:	438d                	li	t2,3
    2928:	0a7e8563          	beq	t4,t2,29d2 <matrix_sum+0xf2>
    292c:	4f91                	li	t6,4
    292e:	07fe8f63          	beq	t4,t6,29ac <matrix_sum+0xcc>
    2932:	4295                	li	t0,5
    2934:	045e8a63          	beq	t4,t0,2988 <matrix_sum+0xa8>
    2938:	4399                	li	t2,6
    293a:	027e8563          	beq	t4,t2,2964 <matrix_sum+0x84>
    293e:	0006ae83          	lw	t4,0(a3)
    2942:	07c2                	slli	a5,a5,0x10
    2944:	0107d313          	srli	t1,a5,0x10
    2948:	9e76                	add	t3,t3,t4
    294a:	37c64463          	blt	a2,t3,2cb2 <matrix_sum+0x3d2>
    294e:	01df2f33          	slt	t5,t5,t4
    2952:	01e30fb3          	add	t6,t1,t5
    2956:	010f9293          	slli	t0,t6,0x10
    295a:	4102d793          	srai	a5,t0,0x10
    295e:	00468313          	addi	t1,a3,4
    2962:	8f76                	mv	t5,t4
    2964:	00032e83          	lw	t4,0(t1)
    2968:	07c2                	slli	a5,a5,0x10
    296a:	0107df93          	srli	t6,a5,0x10
    296e:	9e76                	add	t3,t3,t4
    2970:	33c64a63          	blt	a2,t3,2ca4 <matrix_sum+0x3c4>
    2974:	01df2f33          	slt	t5,t5,t4
    2978:	01ef82b3          	add	t0,t6,t5
    297c:	01029393          	slli	t2,t0,0x10
    2980:	4103d793          	srai	a5,t2,0x10
    2984:	0311                	addi	t1,t1,4
    2986:	8f76                	mv	t5,t4
    2988:	00032e83          	lw	t4,0(t1)
    298c:	01079f93          	slli	t6,a5,0x10
    2990:	010fd293          	srli	t0,t6,0x10
    2994:	9e76                	add	t3,t3,t4
    2996:	2fc64f63          	blt	a2,t3,2c94 <matrix_sum+0x3b4>
    299a:	01df2f33          	slt	t5,t5,t4
    299e:	01e283b3          	add	t2,t0,t5
    29a2:	01039793          	slli	a5,t2,0x10
    29a6:	87c1                	srai	a5,a5,0x10
    29a8:	0311                	addi	t1,t1,4
    29aa:	8f76                	mv	t5,t4
    29ac:	00032e83          	lw	t4,0(t1)
    29b0:	01079293          	slli	t0,a5,0x10
    29b4:	0102d393          	srli	t2,t0,0x10
    29b8:	9e76                	add	t3,t3,t4
    29ba:	2dc64563          	blt	a2,t3,2c84 <matrix_sum+0x3a4>
    29be:	01df2f33          	slt	t5,t5,t4
    29c2:	01e387b3          	add	a5,t2,t5
    29c6:	01079f93          	slli	t6,a5,0x10
    29ca:	410fd793          	srai	a5,t6,0x10
    29ce:	0311                	addi	t1,t1,4
    29d0:	8f76                	mv	t5,t4
    29d2:	00032e83          	lw	t4,0(t1)
    29d6:	01079393          	slli	t2,a5,0x10
    29da:	0103df93          	srli	t6,t2,0x10
    29de:	9e76                	add	t3,t3,t4
    29e0:	29c64a63          	blt	a2,t3,2c74 <matrix_sum+0x394>
    29e4:	01df2f33          	slt	t5,t5,t4
    29e8:	01ef87b3          	add	a5,t6,t5
    29ec:	01079293          	slli	t0,a5,0x10
    29f0:	4102d793          	srai	a5,t0,0x10
    29f4:	0311                	addi	t1,t1,4
    29f6:	8f76                	mv	t5,t4
    29f8:	00032f83          	lw	t6,0(t1)
    29fc:	01079e93          	slli	t4,a5,0x10
    2a00:	010ed293          	srli	t0,t4,0x10
    2a04:	9e7e                	add	t3,t3,t6
    2a06:	25c64f63          	blt	a2,t3,2c64 <matrix_sum+0x384>
    2a0a:	01ff2f33          	slt	t5,t5,t6
    2a0e:	01e287b3          	add	a5,t0,t5
    2a12:	01079393          	slli	t2,a5,0x10
    2a16:	4103d793          	srai	a5,t2,0x10
    2a1a:	0311                	addi	t1,t1,4
    2a1c:	8f7e                	mv	t5,t6
    2a1e:	00032f83          	lw	t6,0(t1)
    2a22:	01079293          	slli	t0,a5,0x10
    2a26:	0102d793          	srli	a5,t0,0x10
    2a2a:	9e7e                	add	t3,t3,t6
    2a2c:	23c64463          	blt	a2,t3,2c54 <matrix_sum+0x374>
    2a30:	01ff2f33          	slt	t5,t5,t6
    2a34:	01e783b3          	add	t2,a5,t5
    2a38:	01039e93          	slli	t4,t2,0x10
    2a3c:	410ed793          	srai	a5,t4,0x10
    2a40:	0311                	addi	t1,t1,4
    2a42:	8f7e                	mv	t5,t6
    2a44:	0e671363          	bne	a4,t1,2b2a <matrix_sum+0x24a>
    2a48:	a2f5                	j	2c34 <matrix_sum+0x354>
    2a4a:	00a28e93          	addi	t4,t0,10
    2a4e:	00432f83          	lw	t6,4(t1)
    2a52:	010e9e13          	slli	t3,t4,0x10
    2a56:	410e5293          	srai	t0,t3,0x10
    2a5a:	4e01                	li	t3,0
    2a5c:	01029793          	slli	a5,t0,0x10
    2a60:	9e7e                	add	t3,t3,t6
    2a62:	0107d393          	srli	t2,a5,0x10
    2a66:	11c64d63          	blt	a2,t3,2b80 <matrix_sum+0x2a0>
    2a6a:	01ff2f33          	slt	t5,t5,t6
    2a6e:	01e38eb3          	add	t4,t2,t5
    2a72:	00832f03          	lw	t5,8(t1)
    2a76:	010e9293          	slli	t0,t4,0x10
    2a7a:	4102d393          	srai	t2,t0,0x10
    2a7e:	01039e93          	slli	t4,t2,0x10
    2a82:	9e7a                	add	t3,t3,t5
    2a84:	010ed293          	srli	t0,t4,0x10
    2a88:	11c64c63          	blt	a2,t3,2ba0 <matrix_sum+0x2c0>
    2a8c:	01efafb3          	slt	t6,t6,t5
    2a90:	01f287b3          	add	a5,t0,t6
    2a94:	00c32f83          	lw	t6,12(t1)
    2a98:	01079393          	slli	t2,a5,0x10
    2a9c:	4103d293          	srai	t0,t2,0x10
    2aa0:	01029793          	slli	a5,t0,0x10
    2aa4:	9e7e                	add	t3,t3,t6
    2aa6:	0107d393          	srli	t2,a5,0x10
    2aaa:	11c64b63          	blt	a2,t3,2bc0 <matrix_sum+0x2e0>
    2aae:	01ff2f33          	slt	t5,t5,t6
    2ab2:	01e38eb3          	add	t4,t2,t5
    2ab6:	01032f03          	lw	t5,16(t1)
    2aba:	010e9293          	slli	t0,t4,0x10
    2abe:	4102d393          	srai	t2,t0,0x10
    2ac2:	01039e93          	slli	t4,t2,0x10
    2ac6:	9e7a                	add	t3,t3,t5
    2ac8:	010ed293          	srli	t0,t4,0x10
    2acc:	11c64a63          	blt	a2,t3,2be0 <matrix_sum+0x300>
    2ad0:	01efafb3          	slt	t6,t6,t5
    2ad4:	01f287b3          	add	a5,t0,t6
    2ad8:	01432f83          	lw	t6,20(t1)
    2adc:	01079393          	slli	t2,a5,0x10
    2ae0:	4103d293          	srai	t0,t2,0x10
    2ae4:	01029793          	slli	a5,t0,0x10
    2ae8:	9e7e                	add	t3,t3,t6
    2aea:	0107d393          	srli	t2,a5,0x10
    2aee:	11c64963          	blt	a2,t3,2c00 <matrix_sum+0x320>
    2af2:	01ff2f33          	slt	t5,t5,t6
    2af6:	01e38eb3          	add	t4,t2,t5
    2afa:	01832f03          	lw	t5,24(t1)
    2afe:	010e9293          	slli	t0,t4,0x10
    2b02:	4102d393          	srai	t2,t0,0x10
    2b06:	01039e93          	slli	t4,t2,0x10
    2b0a:	9e7a                	add	t3,t3,t5
    2b0c:	010ed293          	srli	t0,t4,0x10
    2b10:	11c64863          	blt	a2,t3,2c20 <matrix_sum+0x340>
    2b14:	01efafb3          	slt	t6,t6,t5
    2b18:	01f287b3          	add	a5,t0,t6
    2b1c:	01079393          	slli	t2,a5,0x10
    2b20:	0371                	addi	t1,t1,28
    2b22:	4103d793          	srai	a5,t2,0x10
    2b26:	10670763          	beq	a4,t1,2c34 <matrix_sum+0x354>
    2b2a:	00032f83          	lw	t6,0(t1)
    2b2e:	07c2                	slli	a5,a5,0x10
    2b30:	0107d393          	srli	t2,a5,0x10
    2b34:	01fe0eb3          	add	t4,t3,t6
    2b38:	11d65563          	bge	a2,t4,2c42 <matrix_sum+0x362>
    2b3c:	03a9                	addi	t2,t2,10
    2b3e:	01039e93          	slli	t4,t2,0x10
    2b42:	410ed793          	srai	a5,t4,0x10
    2b46:	4e81                	li	t4,0
    2b48:	00432f03          	lw	t5,4(t1)
    2b4c:	01079e13          	slli	t3,a5,0x10
    2b50:	010e5293          	srli	t0,t3,0x10
    2b54:	01ee8e33          	add	t3,t4,t5
    2b58:	0311                	addi	t1,t1,4
    2b5a:	efc648e3          	blt	a2,t3,2a4a <matrix_sum+0x16a>
    2b5e:	01efafb3          	slt	t6,t6,t5
    2b62:	01f287b3          	add	a5,t0,t6
    2b66:	00432f83          	lw	t6,4(t1)
    2b6a:	01079393          	slli	t2,a5,0x10
    2b6e:	4103d293          	srai	t0,t2,0x10
    2b72:	01029793          	slli	a5,t0,0x10
    2b76:	9e7e                	add	t3,t3,t6
    2b78:	0107d393          	srli	t2,a5,0x10
    2b7c:	efc657e3          	bge	a2,t3,2a6a <matrix_sum+0x18a>
    2b80:	00a38e13          	addi	t3,t2,10
    2b84:	00832f03          	lw	t5,8(t1)
    2b88:	010e1793          	slli	a5,t3,0x10
    2b8c:	4107d393          	srai	t2,a5,0x10
    2b90:	4e01                	li	t3,0
    2b92:	01039e93          	slli	t4,t2,0x10
    2b96:	9e7a                	add	t3,t3,t5
    2b98:	010ed293          	srli	t0,t4,0x10
    2b9c:	efc658e3          	bge	a2,t3,2a8c <matrix_sum+0x1ac>
    2ba0:	00a28e13          	addi	t3,t0,10
    2ba4:	00c32f83          	lw	t6,12(t1)
    2ba8:	010e1e93          	slli	t4,t3,0x10
    2bac:	410ed293          	srai	t0,t4,0x10
    2bb0:	4e01                	li	t3,0
    2bb2:	01029793          	slli	a5,t0,0x10
    2bb6:	9e7e                	add	t3,t3,t6
    2bb8:	0107d393          	srli	t2,a5,0x10
    2bbc:	efc659e3          	bge	a2,t3,2aae <matrix_sum+0x1ce>
    2bc0:	00a38e13          	addi	t3,t2,10
    2bc4:	01032f03          	lw	t5,16(t1)
    2bc8:	010e1793          	slli	a5,t3,0x10
    2bcc:	4107d393          	srai	t2,a5,0x10
    2bd0:	4e01                	li	t3,0
    2bd2:	01039e93          	slli	t4,t2,0x10
    2bd6:	9e7a                	add	t3,t3,t5
    2bd8:	010ed293          	srli	t0,t4,0x10
    2bdc:	efc65ae3          	bge	a2,t3,2ad0 <matrix_sum+0x1f0>
    2be0:	00a28e13          	addi	t3,t0,10
    2be4:	01432f83          	lw	t6,20(t1)
    2be8:	010e1e93          	slli	t4,t3,0x10
    2bec:	410ed293          	srai	t0,t4,0x10
    2bf0:	4e01                	li	t3,0
    2bf2:	01029793          	slli	a5,t0,0x10
    2bf6:	9e7e                	add	t3,t3,t6
    2bf8:	0107d393          	srli	t2,a5,0x10
    2bfc:	efc65be3          	bge	a2,t3,2af2 <matrix_sum+0x212>
    2c00:	00a38e13          	addi	t3,t2,10
    2c04:	01832f03          	lw	t5,24(t1)
    2c08:	010e1793          	slli	a5,t3,0x10
    2c0c:	4107d393          	srai	t2,a5,0x10
    2c10:	4e01                	li	t3,0
    2c12:	01039e93          	slli	t4,t2,0x10
    2c16:	9e7a                	add	t3,t3,t5
    2c18:	010ed293          	srli	t0,t4,0x10
    2c1c:	efc65ce3          	bge	a2,t3,2b14 <matrix_sum+0x234>
    2c20:	00a28e13          	addi	t3,t0,10
    2c24:	010e1e93          	slli	t4,t3,0x10
    2c28:	0371                	addi	t1,t1,28
    2c2a:	410ed793          	srai	a5,t4,0x10
    2c2e:	4e01                	li	t3,0
    2c30:	ee671de3          	bne	a4,t1,2b2a <matrix_sum+0x24a>
    2c34:	0585                	addi	a1,a1,1
    2c36:	41068733          	sub	a4,a3,a6
    2c3a:	ccb511e3          	bne	a0,a1,28fc <matrix_sum+0x1c>
    2c3e:	853e                	mv	a0,a5
    2c40:	8082                	ret
    2c42:	01ff2f33          	slt	t5,t5,t6
    2c46:	01e38e33          	add	t3,t2,t5
    2c4a:	010e1293          	slli	t0,t3,0x10
    2c4e:	4102d793          	srai	a5,t0,0x10
    2c52:	bddd                	j	2b48 <matrix_sum+0x268>
    2c54:	00a78e13          	addi	t3,a5,10
    2c58:	010e1293          	slli	t0,t3,0x10
    2c5c:	4102d793          	srai	a5,t0,0x10
    2c60:	4e01                	li	t3,0
    2c62:	bbf9                	j	2a40 <matrix_sum+0x160>
    2c64:	00a28e13          	addi	t3,t0,10
    2c68:	010e1e93          	slli	t4,t3,0x10
    2c6c:	410ed793          	srai	a5,t4,0x10
    2c70:	4e01                	li	t3,0
    2c72:	b365                	j	2a1a <matrix_sum+0x13a>
    2c74:	00af8e13          	addi	t3,t6,10
    2c78:	010e1393          	slli	t2,t3,0x10
    2c7c:	4103d793          	srai	a5,t2,0x10
    2c80:	4e01                	li	t3,0
    2c82:	bb8d                	j	29f4 <matrix_sum+0x114>
    2c84:	00a38e13          	addi	t3,t2,10
    2c88:	010e1293          	slli	t0,t3,0x10
    2c8c:	4102d793          	srai	a5,t0,0x10
    2c90:	4e01                	li	t3,0
    2c92:	bb35                	j	29ce <matrix_sum+0xee>
    2c94:	00a28e13          	addi	t3,t0,10
    2c98:	010e1f93          	slli	t6,t3,0x10
    2c9c:	410fd793          	srai	a5,t6,0x10
    2ca0:	4e01                	li	t3,0
    2ca2:	b319                	j	29a8 <matrix_sum+0xc8>
    2ca4:	00af8e13          	addi	t3,t6,10
    2ca8:	010e1793          	slli	a5,t3,0x10
    2cac:	87c1                	srai	a5,a5,0x10
    2cae:	4e01                	li	t3,0
    2cb0:	b9d1                	j	2984 <matrix_sum+0xa4>
    2cb2:	00a30e13          	addi	t3,t1,10
    2cb6:	010e1393          	slli	t2,t3,0x10
    2cba:	4103d793          	srai	a5,t2,0x10
    2cbe:	4e01                	li	t3,0
    2cc0:	b979                	j	295e <matrix_sum+0x7e>
    2cc2:	4781                	li	a5,0
    2cc4:	853e                	mv	a0,a5
    2cc6:	8082                	ret

00002cc8 <matrix_mul_const>:
    2cc8:	16050163          	beqz	a0,2e2a <matrix_mul_const+0x162>
    2ccc:	1141                	addi	sp,sp,-16
    2cce:	40a003b3          	neg	t2,a0
    2cd2:	00151813          	slli	a6,a0,0x1
    2cd6:	c622                	sw	s0,12(sp)
    2cd8:	c426                	sw	s1,8(sp)
    2cda:	00139413          	slli	s0,t2,0x1
    2cde:	c24a                	sw	s2,4(sp)
    2ce0:	c04e                	sw	s3,0(sp)
    2ce2:	00251493          	slli	s1,a0,0x2
    2ce6:	9832                	add	a6,a6,a2
    2ce8:	4281                	li	t0,0
    2cea:	038a                	slli	t2,t2,0x2
    2cec:	010408b3          	add	a7,s0,a6
    2cf0:	41180633          	sub	a2,a6,a7
    2cf4:	ffe60313          	addi	t1,a2,-2
    2cf8:	00135713          	srli	a4,t1,0x1
    2cfc:	00170793          	addi	a5,a4,1
    2d00:	0077f913          	andi	s2,a5,7
    2d04:	872e                	mv	a4,a1
    2d06:	87c6                	mv	a5,a7
    2d08:	0a090063          	beqz	s2,2da8 <matrix_mul_const+0xe0>
    2d0c:	4985                	li	s3,1
    2d0e:	09390363          	beq	s2,s3,2d94 <matrix_mul_const+0xcc>
    2d12:	4e09                	li	t3,2
    2d14:	07c90863          	beq	s2,t3,2d84 <matrix_mul_const+0xbc>
    2d18:	4e8d                	li	t4,3
    2d1a:	05d90d63          	beq	s2,t4,2d74 <matrix_mul_const+0xac>
    2d1e:	4f11                	li	t5,4
    2d20:	05e90263          	beq	s2,t5,2d64 <matrix_mul_const+0x9c>
    2d24:	4f95                	li	t6,5
    2d26:	03f90763          	beq	s2,t6,2d54 <matrix_mul_const+0x8c>
    2d2a:	4619                	li	a2,6
    2d2c:	00c90c63          	beq	s2,a2,2d44 <matrix_mul_const+0x7c>
    2d30:	00089303          	lh	t1,0(a7)
    2d34:	00288793          	addi	a5,a7,2
    2d38:	00458713          	addi	a4,a1,4
    2d3c:	02d30933          	mul	s2,t1,a3
    2d40:	0125a023          	sw	s2,0(a1)
    2d44:	00079983          	lh	s3,0(a5)
    2d48:	0711                	addi	a4,a4,4
    2d4a:	0789                	addi	a5,a5,2
    2d4c:	02d98e33          	mul	t3,s3,a3
    2d50:	ffc72e23          	sw	t3,-4(a4)
    2d54:	00079e83          	lh	t4,0(a5)
    2d58:	0711                	addi	a4,a4,4
    2d5a:	0789                	addi	a5,a5,2
    2d5c:	02de8f33          	mul	t5,t4,a3
    2d60:	ffe72e23          	sw	t5,-4(a4)
    2d64:	00079f83          	lh	t6,0(a5)
    2d68:	0711                	addi	a4,a4,4
    2d6a:	0789                	addi	a5,a5,2
    2d6c:	02df8633          	mul	a2,t6,a3
    2d70:	fec72e23          	sw	a2,-4(a4)
    2d74:	00079303          	lh	t1,0(a5)
    2d78:	0711                	addi	a4,a4,4
    2d7a:	0789                	addi	a5,a5,2
    2d7c:	02d30933          	mul	s2,t1,a3
    2d80:	ff272e23          	sw	s2,-4(a4)
    2d84:	00079983          	lh	s3,0(a5)
    2d88:	0711                	addi	a4,a4,4
    2d8a:	0789                	addi	a5,a5,2
    2d8c:	02d98e33          	mul	t3,s3,a3
    2d90:	ffc72e23          	sw	t3,-4(a4)
    2d94:	00079e83          	lh	t4,0(a5)
    2d98:	0711                	addi	a4,a4,4
    2d9a:	0789                	addi	a5,a5,2
    2d9c:	02de8f33          	mul	t5,t4,a3
    2da0:	ffe72e23          	sw	t5,-4(a4)
    2da4:	07078763          	beq	a5,a6,2e12 <matrix_mul_const+0x14a>
    2da8:	00079983          	lh	s3,0(a5)
    2dac:	00279903          	lh	s2,2(a5)
    2db0:	00479f83          	lh	t6,4(a5)
    2db4:	00679f03          	lh	t5,6(a5)
    2db8:	00879e83          	lh	t4,8(a5)
    2dbc:	00a79e03          	lh	t3,10(a5)
    2dc0:	00c79303          	lh	t1,12(a5)
    2dc4:	00e79603          	lh	a2,14(a5)
    2dc8:	02d989b3          	mul	s3,s3,a3
    2dcc:	02070713          	addi	a4,a4,32
    2dd0:	07c1                	addi	a5,a5,16
    2dd2:	02d90933          	mul	s2,s2,a3
    2dd6:	ff372023          	sw	s3,-32(a4)
    2dda:	02df8fb3          	mul	t6,t6,a3
    2dde:	ff272223          	sw	s2,-28(a4)
    2de2:	02df0f33          	mul	t5,t5,a3
    2de6:	fff72423          	sw	t6,-24(a4)
    2dea:	02de8eb3          	mul	t4,t4,a3
    2dee:	ffe72623          	sw	t5,-20(a4)
    2df2:	02de0e33          	mul	t3,t3,a3
    2df6:	ffd72823          	sw	t4,-16(a4)
    2dfa:	02d30333          	mul	t1,t1,a3
    2dfe:	ffc72a23          	sw	t3,-12(a4)
    2e02:	02d60633          	mul	a2,a2,a3
    2e06:	fe672c23          	sw	t1,-8(a4)
    2e0a:	fec72e23          	sw	a2,-4(a4)
    2e0e:	f9079de3          	bne	a5,a6,2da8 <matrix_mul_const+0xe0>
    2e12:	0285                	addi	t0,t0,1
    2e14:	95a6                	add	a1,a1,s1
    2e16:	40788833          	sub	a6,a7,t2
    2e1a:	ec5519e3          	bne	a0,t0,2cec <matrix_mul_const+0x24>
    2e1e:	4432                	lw	s0,12(sp)
    2e20:	44a2                	lw	s1,8(sp)
    2e22:	4912                	lw	s2,4(sp)
    2e24:	4982                	lw	s3,0(sp)
    2e26:	0141                	addi	sp,sp,16
    2e28:	8082                	ret
    2e2a:	8082                	ret

00002e2c <matrix_add_const>:
    2e2c:	1e050063          	beqz	a0,300c <matrix_add_const+0x1e0>
    2e30:	40a002b3          	neg	t0,a0
    2e34:	01061693          	slli	a3,a2,0x10
    2e38:	00151793          	slli	a5,a0,0x1
    2e3c:	00129393          	slli	t2,t0,0x1
    2e40:	82c1                	srli	a3,a3,0x10
    2e42:	00f58633          	add	a2,a1,a5
    2e46:	4f81                	li	t6,0
    2e48:	028a                	slli	t0,t0,0x2
    2e4a:	00c385b3          	add	a1,t2,a2
    2e4e:	40b60733          	sub	a4,a2,a1
    2e52:	ffe70313          	addi	t1,a4,-2
    2e56:	00135813          	srli	a6,t1,0x1
    2e5a:	00180893          	addi	a7,a6,1
    2e5e:	0078fe13          	andi	t3,a7,7
    2e62:	87ae                	mv	a5,a1
    2e64:	080e0863          	beqz	t3,2ef4 <matrix_add_const+0xc8>
    2e68:	4e85                	li	t4,1
    2e6a:	07de0c63          	beq	t3,t4,2ee2 <matrix_add_const+0xb6>
    2e6e:	4f09                	li	t5,2
    2e70:	07ee0263          	beq	t3,t5,2ed4 <matrix_add_const+0xa8>
    2e74:	470d                	li	a4,3
    2e76:	04ee0863          	beq	t3,a4,2ec6 <matrix_add_const+0x9a>
    2e7a:	4311                	li	t1,4
    2e7c:	026e0e63          	beq	t3,t1,2eb8 <matrix_add_const+0x8c>
    2e80:	4815                	li	a6,5
    2e82:	030e0463          	beq	t3,a6,2eaa <matrix_add_const+0x7e>
    2e86:	4899                	li	a7,6
    2e88:	011e0a63          	beq	t3,a7,2e9c <matrix_add_const+0x70>
    2e8c:	0005de03          	lhu	t3,0(a1)
    2e90:	00258793          	addi	a5,a1,2
    2e94:	01c68eb3          	add	t4,a3,t3
    2e98:	01d59023          	sh	t4,0(a1)
    2e9c:	0007df03          	lhu	t5,0(a5)
    2ea0:	0789                	addi	a5,a5,2
    2ea2:	01e68733          	add	a4,a3,t5
    2ea6:	fee79f23          	sh	a4,-2(a5)
    2eaa:	0007d303          	lhu	t1,0(a5)
    2eae:	0789                	addi	a5,a5,2
    2eb0:	00668833          	add	a6,a3,t1
    2eb4:	ff079f23          	sh	a6,-2(a5)
    2eb8:	0007d883          	lhu	a7,0(a5)
    2ebc:	0789                	addi	a5,a5,2
    2ebe:	01168e33          	add	t3,a3,a7
    2ec2:	ffc79f23          	sh	t3,-2(a5)
    2ec6:	0007de83          	lhu	t4,0(a5)
    2eca:	0789                	addi	a5,a5,2
    2ecc:	01d68f33          	add	t5,a3,t4
    2ed0:	ffe79f23          	sh	t5,-2(a5)
    2ed4:	0007d703          	lhu	a4,0(a5)
    2ed8:	0789                	addi	a5,a5,2
    2eda:	00e68333          	add	t1,a3,a4
    2ede:	fe679f23          	sh	t1,-2(a5)
    2ee2:	0007d803          	lhu	a6,0(a5)
    2ee6:	0789                	addi	a5,a5,2
    2ee8:	010688b3          	add	a7,a3,a6
    2eec:	ff179f23          	sh	a7,-2(a5)
    2ef0:	10f60963          	beq	a2,a5,3002 <matrix_add_const+0x1d6>
    2ef4:	1141                	addi	sp,sp,-16
    2ef6:	c622                	sw	s0,12(sp)
    2ef8:	0007d403          	lhu	s0,0(a5)
    2efc:	0027df03          	lhu	t5,2(a5)
    2f00:	0047de83          	lhu	t4,4(a5)
    2f04:	0067de03          	lhu	t3,6(a5)
    2f08:	0087d303          	lhu	t1,8(a5)
    2f0c:	00a7d883          	lhu	a7,10(a5)
    2f10:	00c7d803          	lhu	a6,12(a5)
    2f14:	00e7d703          	lhu	a4,14(a5)
    2f18:	9436                	add	s0,s0,a3
    2f1a:	9f36                	add	t5,t5,a3
    2f1c:	9eb6                	add	t4,t4,a3
    2f1e:	9e36                	add	t3,t3,a3
    2f20:	9336                	add	t1,t1,a3
    2f22:	98b6                	add	a7,a7,a3
    2f24:	9836                	add	a6,a6,a3
    2f26:	9736                	add	a4,a4,a3
    2f28:	00879023          	sh	s0,0(a5)
    2f2c:	01e79123          	sh	t5,2(a5)
    2f30:	01d79223          	sh	t4,4(a5)
    2f34:	01c79323          	sh	t3,6(a5)
    2f38:	00679423          	sh	t1,8(a5)
    2f3c:	01179523          	sh	a7,10(a5)
    2f40:	01079623          	sh	a6,12(a5)
    2f44:	00e79723          	sh	a4,14(a5)
    2f48:	07c1                	addi	a5,a5,16
    2f4a:	faf617e3          	bne	a2,a5,2ef8 <matrix_add_const+0xcc>
    2f4e:	0f85                	addi	t6,t6,1
    2f50:	40558633          	sub	a2,a1,t0
    2f54:	0bf50463          	beq	a0,t6,2ffc <matrix_add_const+0x1d0>
    2f58:	00c385b3          	add	a1,t2,a2
    2f5c:	40b607b3          	sub	a5,a2,a1
    2f60:	ffe78413          	addi	s0,a5,-2
    2f64:	00145f13          	srli	t5,s0,0x1
    2f68:	001f0e93          	addi	t4,t5,1
    2f6c:	007efe13          	andi	t3,t4,7
    2f70:	87ae                	mv	a5,a1
    2f72:	f80e03e3          	beqz	t3,2ef8 <matrix_add_const+0xcc>
    2f76:	4305                	li	t1,1
    2f78:	066e0463          	beq	t3,t1,2fe0 <matrix_add_const+0x1b4>
    2f7c:	4889                	li	a7,2
    2f7e:	051e0a63          	beq	t3,a7,2fd2 <matrix_add_const+0x1a6>
    2f82:	480d                	li	a6,3
    2f84:	050e0063          	beq	t3,a6,2fc4 <matrix_add_const+0x198>
    2f88:	4711                	li	a4,4
    2f8a:	02ee0663          	beq	t3,a4,2fb6 <matrix_add_const+0x18a>
    2f8e:	4415                	li	s0,5
    2f90:	008e0c63          	beq	t3,s0,2fa8 <matrix_add_const+0x17c>
    2f94:	4f19                	li	t5,6
    2f96:	07ee1c63          	bne	t3,t5,300e <matrix_add_const+0x1e2>
    2f9a:	0007d303          	lhu	t1,0(a5)
    2f9e:	0789                	addi	a5,a5,2
    2fa0:	006688b3          	add	a7,a3,t1
    2fa4:	ff179f23          	sh	a7,-2(a5)
    2fa8:	0007d803          	lhu	a6,0(a5)
    2fac:	0789                	addi	a5,a5,2
    2fae:	01068733          	add	a4,a3,a6
    2fb2:	fee79f23          	sh	a4,-2(a5)
    2fb6:	0007d403          	lhu	s0,0(a5)
    2fba:	0789                	addi	a5,a5,2
    2fbc:	00868f33          	add	t5,a3,s0
    2fc0:	ffe79f23          	sh	t5,-2(a5)
    2fc4:	0007de83          	lhu	t4,0(a5)
    2fc8:	0789                	addi	a5,a5,2
    2fca:	01d68e33          	add	t3,a3,t4
    2fce:	ffc79f23          	sh	t3,-2(a5)
    2fd2:	0007d303          	lhu	t1,0(a5)
    2fd6:	0789                	addi	a5,a5,2
    2fd8:	006688b3          	add	a7,a3,t1
    2fdc:	ff179f23          	sh	a7,-2(a5)
    2fe0:	0007d803          	lhu	a6,0(a5)
    2fe4:	0789                	addi	a5,a5,2
    2fe6:	01068733          	add	a4,a3,a6
    2fea:	fee79f23          	sh	a4,-2(a5)
    2fee:	f0f615e3          	bne	a2,a5,2ef8 <matrix_add_const+0xcc>
    2ff2:	0f85                	addi	t6,t6,1
    2ff4:	40558633          	sub	a2,a1,t0
    2ff8:	f7f510e3          	bne	a0,t6,2f58 <matrix_add_const+0x12c>
    2ffc:	4432                	lw	s0,12(sp)
    2ffe:	0141                	addi	sp,sp,16
    3000:	8082                	ret
    3002:	0f85                	addi	t6,t6,1
    3004:	40558633          	sub	a2,a1,t0
    3008:	e5f511e3          	bne	a0,t6,2e4a <matrix_add_const+0x1e>
    300c:	8082                	ret
    300e:	0005de83          	lhu	t4,0(a1)
    3012:	00258793          	addi	a5,a1,2
    3016:	01d68e33          	add	t3,a3,t4
    301a:	01c59023          	sh	t3,0(a1)
    301e:	bfb5                	j	2f9a <matrix_add_const+0x16e>

00003020 <matrix_mul_vect>:
    3020:	18050963          	beqz	a0,31b2 <matrix_mul_vect+0x192>
    3024:	7179                	addi	sp,sp,-48
    3026:	00151f93          	slli	t6,a0,0x1
    302a:	050a                	slli	a0,a0,0x2
    302c:	d622                	sw	s0,44(sp)
    302e:	d426                	sw	s1,40(sp)
    3030:	d24a                	sw	s2,36(sp)
    3032:	d04e                	sw	s3,32(sp)
    3034:	ce52                	sw	s4,28(sp)
    3036:	cc56                	sw	s5,24(sp)
    3038:	ca5a                	sw	s6,20(sp)
    303a:	c85e                	sw	s7,16(sp)
    303c:	c662                	sw	s8,12(sp)
    303e:	00a58f33          	add	t5,a1,a0
    3042:	01f68eb3          	add	t4,a3,t6
    3046:	40de88b3          	sub	a7,t4,a3
    304a:	ffe88293          	addi	t0,a7,-2
    304e:	0012d313          	srli	t1,t0,0x1
    3052:	00130393          	addi	t2,t1,1
    3056:	0073f413          	andi	s0,t2,7
    305a:	87b6                	mv	a5,a3
    305c:	8732                	mv	a4,a2
    305e:	4301                	li	t1,0
    3060:	c44d                	beqz	s0,310a <matrix_mul_vect+0xea>
    3062:	4485                	li	s1,1
    3064:	08940863          	beq	s0,s1,30f4 <matrix_mul_vect+0xd4>
    3068:	4809                	li	a6,2
    306a:	07040c63          	beq	s0,a6,30e2 <matrix_mul_vect+0xc2>
    306e:	490d                	li	s2,3
    3070:	07240063          	beq	s0,s2,30d0 <matrix_mul_vect+0xb0>
    3074:	4991                	li	s3,4
    3076:	05340463          	beq	s0,s3,30be <matrix_mul_vect+0x9e>
    307a:	4a15                	li	s4,5
    307c:	03440863          	beq	s0,s4,30ac <matrix_mul_vect+0x8c>
    3080:	4a99                	li	s5,6
    3082:	01540c63          	beq	s0,s5,309a <matrix_mul_vect+0x7a>
    3086:	00061b03          	lh	s6,0(a2)
    308a:	00069b83          	lh	s7,0(a3)
    308e:	00260713          	addi	a4,a2,2
    3092:	00268793          	addi	a5,a3,2
    3096:	037b0333          	mul	t1,s6,s7
    309a:	00071c03          	lh	s8,0(a4)
    309e:	00079e03          	lh	t3,0(a5)
    30a2:	0709                	addi	a4,a4,2
    30a4:	0789                	addi	a5,a5,2
    30a6:	03cc0533          	mul	a0,s8,t3
    30aa:	932a                	add	t1,t1,a0
    30ac:	00071883          	lh	a7,0(a4)
    30b0:	00079283          	lh	t0,0(a5)
    30b4:	0709                	addi	a4,a4,2
    30b6:	0789                	addi	a5,a5,2
    30b8:	025883b3          	mul	t2,a7,t0
    30bc:	931e                	add	t1,t1,t2
    30be:	00071403          	lh	s0,0(a4)
    30c2:	00079483          	lh	s1,0(a5)
    30c6:	0709                	addi	a4,a4,2
    30c8:	0789                	addi	a5,a5,2
    30ca:	02940833          	mul	a6,s0,s1
    30ce:	9342                	add	t1,t1,a6
    30d0:	00071903          	lh	s2,0(a4)
    30d4:	00079983          	lh	s3,0(a5)
    30d8:	0709                	addi	a4,a4,2
    30da:	0789                	addi	a5,a5,2
    30dc:	03390a33          	mul	s4,s2,s3
    30e0:	9352                	add	t1,t1,s4
    30e2:	00071a83          	lh	s5,0(a4)
    30e6:	00079b03          	lh	s6,0(a5)
    30ea:	0709                	addi	a4,a4,2
    30ec:	0789                	addi	a5,a5,2
    30ee:	036a8bb3          	mul	s7,s5,s6
    30f2:	935e                	add	t1,t1,s7
    30f4:	00071c03          	lh	s8,0(a4)
    30f8:	00079e03          	lh	t3,0(a5)
    30fc:	0789                	addi	a5,a5,2
    30fe:	0709                	addi	a4,a4,2
    3100:	03cc0533          	mul	a0,s8,t3
    3104:	932a                	add	t1,t1,a0
    3106:	08fe8563          	beq	t4,a5,3190 <matrix_mul_vect+0x170>
    310a:	00071283          	lh	t0,0(a4)
    310e:	00079883          	lh	a7,0(a5)
    3112:	00279c03          	lh	s8,2(a5)
    3116:	00271983          	lh	s3,2(a4)
    311a:	00471503          	lh	a0,4(a4)
    311e:	00479b83          	lh	s7,4(a5)
    3122:	03128833          	mul	a6,t0,a7
    3126:	00671403          	lh	s0,6(a4)
    312a:	00679b03          	lh	s6,6(a5)
    312e:	00871383          	lh	t2,8(a4)
    3132:	00879a83          	lh	s5,8(a5)
    3136:	00a71283          	lh	t0,10(a4)
    313a:	00a79a03          	lh	s4,10(a5)
    313e:	00c71e03          	lh	t3,12(a4)
    3142:	00c79903          	lh	s2,12(a5)
    3146:	00e71883          	lh	a7,14(a4)
    314a:	038989b3          	mul	s3,s3,s8
    314e:	00e79483          	lh	s1,14(a5)
    3152:	9342                	add	t1,t1,a6
    3154:	07c1                	addi	a5,a5,16
    3156:	0741                	addi	a4,a4,16
    3158:	03750c33          	mul	s8,a0,s7
    315c:	01330533          	add	a0,t1,s3
    3160:	03640bb3          	mul	s7,s0,s6
    3164:	01850433          	add	s0,a0,s8
    3168:	03538b33          	mul	s6,t2,s5
    316c:	01740833          	add	a6,s0,s7
    3170:	034283b3          	mul	t2,t0,s4
    3174:	01680ab3          	add	s5,a6,s6
    3178:	032e02b3          	mul	t0,t3,s2
    317c:	007a8a33          	add	s4,s5,t2
    3180:	02988e33          	mul	t3,a7,s1
    3184:	005a0933          	add	s2,s4,t0
    3188:	01c90333          	add	t1,s2,t3
    318c:	f6fe9fe3          	bne	t4,a5,310a <matrix_mul_vect+0xea>
    3190:	0065a023          	sw	t1,0(a1)
    3194:	0591                	addi	a1,a1,4
    3196:	967e                	add	a2,a2,t6
    3198:	eabf17e3          	bne	t5,a1,3046 <matrix_mul_vect+0x26>
    319c:	5432                	lw	s0,44(sp)
    319e:	54a2                	lw	s1,40(sp)
    31a0:	5912                	lw	s2,36(sp)
    31a2:	5982                	lw	s3,32(sp)
    31a4:	4a72                	lw	s4,28(sp)
    31a6:	4ae2                	lw	s5,24(sp)
    31a8:	4b52                	lw	s6,20(sp)
    31aa:	4bc2                	lw	s7,16(sp)
    31ac:	4c32                	lw	s8,12(sp)
    31ae:	6145                	addi	sp,sp,48
    31b0:	8082                	ret
    31b2:	8082                	ret

000031b4 <matrix_mul_matrix>:
    31b4:	1c050e63          	beqz	a0,3390 <matrix_mul_matrix+0x1dc>
    31b8:	7139                	addi	sp,sp,-64
    31ba:	d05e                	sw	s7,32(sp)
    31bc:	8baa                	mv	s7,a0
    31be:	00151813          	slli	a6,a0,0x1
    31c2:	002b9793          	slli	a5,s7,0x2
    31c6:	d25a                	sw	s6,36(sp)
    31c8:	ce62                	sw	s8,28(sp)
    31ca:	cc66                	sw	s9,24(sp)
    31cc:	ca6a                	sw	s10,20(sp)
    31ce:	de22                	sw	s0,60(sp)
    31d0:	dc26                	sw	s1,56(sp)
    31d2:	da4a                	sw	s2,52(sp)
    31d4:	d84e                	sw	s3,48(sp)
    31d6:	d652                	sw	s4,44(sp)
    31d8:	d456                	sw	s5,40(sp)
    31da:	c86e                	sw	s11,16(sp)
    31dc:	8d36                	mv	s10,a3
    31de:	8532                	mv	a0,a2
    31e0:	010603b3          	add	t2,a2,a6
    31e4:	c63e                	sw	a5,12(sp)
    31e6:	8c2e                	mv	s8,a1
    31e8:	01068b33          	add	s6,a3,a6
    31ec:	4c81                	li	s9,0
    31ee:	866a                	mv	a2,s10
    31f0:	82e2                	mv	t0,s8
    31f2:	40a38733          	sub	a4,t2,a0
    31f6:	ffe70313          	addi	t1,a4,-2
    31fa:	00135413          	srli	s0,t1,0x1
    31fe:	00140493          	addi	s1,s0,1 # fffff001 <__C_STACK_TOP__+0xfffef001>
    3202:	0074f913          	andi	s2,s1,7
    3206:	85b2                	mv	a1,a2
    3208:	86aa                	mv	a3,a0
    320a:	4781                	li	a5,0
    320c:	0a090663          	beqz	s2,32b8 <matrix_mul_matrix+0x104>
    3210:	4885                	li	a7,1
    3212:	09190863          	beq	s2,a7,32a2 <matrix_mul_matrix+0xee>
    3216:	4989                	li	s3,2
    3218:	07390c63          	beq	s2,s3,3290 <matrix_mul_matrix+0xdc>
    321c:	4a0d                	li	s4,3
    321e:	07490063          	beq	s2,s4,327e <matrix_mul_matrix+0xca>
    3222:	4a91                	li	s5,4
    3224:	05590463          	beq	s2,s5,326c <matrix_mul_matrix+0xb8>
    3228:	4d95                	li	s11,5
    322a:	03b90863          	beq	s2,s11,325a <matrix_mul_matrix+0xa6>
    322e:	4e19                	li	t3,6
    3230:	01c90c63          	beq	s2,t3,3248 <matrix_mul_matrix+0x94>
    3234:	00051e83          	lh	t4,0(a0)
    3238:	00061f03          	lh	t5,0(a2)
    323c:	00250693          	addi	a3,a0,2
    3240:	010605b3          	add	a1,a2,a6
    3244:	03ee87b3          	mul	a5,t4,t5
    3248:	00069f83          	lh	t6,0(a3)
    324c:	00059703          	lh	a4,0(a1)
    3250:	0689                	addi	a3,a3,2
    3252:	95c2                	add	a1,a1,a6
    3254:	02ef8333          	mul	t1,t6,a4
    3258:	979a                	add	a5,a5,t1
    325a:	00069403          	lh	s0,0(a3)
    325e:	00059483          	lh	s1,0(a1)
    3262:	0689                	addi	a3,a3,2
    3264:	95c2                	add	a1,a1,a6
    3266:	02940933          	mul	s2,s0,s1
    326a:	97ca                	add	a5,a5,s2
    326c:	00069983          	lh	s3,0(a3)
    3270:	00059883          	lh	a7,0(a1)
    3274:	0689                	addi	a3,a3,2
    3276:	95c2                	add	a1,a1,a6
    3278:	03198a33          	mul	s4,s3,a7
    327c:	97d2                	add	a5,a5,s4
    327e:	00069a83          	lh	s5,0(a3)
    3282:	00059d83          	lh	s11,0(a1)
    3286:	0689                	addi	a3,a3,2
    3288:	95c2                	add	a1,a1,a6
    328a:	03ba8e33          	mul	t3,s5,s11
    328e:	97f2                	add	a5,a5,t3
    3290:	00069e83          	lh	t4,0(a3)
    3294:	00059f03          	lh	t5,0(a1)
    3298:	0689                	addi	a3,a3,2
    329a:	95c2                	add	a1,a1,a6
    329c:	03ee8fb3          	mul	t6,t4,t5
    32a0:	97fe                	add	a5,a5,t6
    32a2:	00069703          	lh	a4,0(a3)
    32a6:	00059303          	lh	t1,0(a1)
    32aa:	0689                	addi	a3,a3,2
    32ac:	95c2                	add	a1,a1,a6
    32ae:	02670433          	mul	s0,a4,t1
    32b2:	97a2                	add	a5,a5,s0
    32b4:	0ad38363          	beq	t2,a3,335a <matrix_mul_matrix+0x1a6>
    32b8:	010584b3          	add	s1,a1,a6
    32bc:	00069983          	lh	s3,0(a3)
    32c0:	00059a03          	lh	s4,0(a1)
    32c4:	00049f03          	lh	t5,0(s1)
    32c8:	00269a83          	lh	s5,2(a3)
    32cc:	03498733          	mul	a4,s3,s4
    32d0:	010488b3          	add	a7,s1,a6
    32d4:	01088e33          	add	t3,a7,a6
    32d8:	00089d83          	lh	s11,0(a7)
    32dc:	00469903          	lh	s2,4(a3)
    32e0:	010e0fb3          	add	t6,t3,a6
    32e4:	000e1a03          	lh	s4,0(t3)
    32e8:	00669403          	lh	s0,6(a3)
    32ec:	010f8333          	add	t1,t6,a6
    32f0:	00869e83          	lh	t4,8(a3)
    32f4:	03ea8ab3          	mul	s5,s5,t5
    32f8:	000f9983          	lh	s3,0(t6)
    32fc:	010308b3          	add	a7,t1,a6
    3300:	00a69e03          	lh	t3,10(a3)
    3304:	00031483          	lh	s1,0(t1)
    3308:	010885b3          	add	a1,a7,a6
    330c:	00c69303          	lh	t1,12(a3)
    3310:	00089f83          	lh	t6,0(a7)
    3314:	00059f03          	lh	t5,0(a1)
    3318:	00e69883          	lh	a7,14(a3)
    331c:	03b90933          	mul	s2,s2,s11
    3320:	97ba                	add	a5,a5,a4
    3322:	01578db3          	add	s11,a5,s5
    3326:	06c1                	addi	a3,a3,16
    3328:	95c2                	add	a1,a1,a6
    332a:	03440433          	mul	s0,s0,s4
    332e:	012d8733          	add	a4,s11,s2
    3332:	033e8a33          	mul	s4,t4,s3
    3336:	00870eb3          	add	t4,a4,s0
    333a:	029e09b3          	mul	s3,t3,s1
    333e:	014e8e33          	add	t3,t4,s4
    3342:	03f304b3          	mul	s1,t1,t6
    3346:	013e0333          	add	t1,t3,s3
    334a:	03e88ab3          	mul	s5,a7,t5
    334e:	00930fb3          	add	t6,t1,s1
    3352:	015f87b3          	add	a5,t6,s5
    3356:	f6d391e3          	bne	t2,a3,32b8 <matrix_mul_matrix+0x104>
    335a:	00f2a023          	sw	a5,0(t0)
    335e:	0609                	addi	a2,a2,2
    3360:	0291                	addi	t0,t0,4
    3362:	e8cb18e3          	bne	s6,a2,31f2 <matrix_mul_matrix+0x3e>
    3366:	4632                	lw	a2,12(sp)
    3368:	0c85                	addi	s9,s9,1
    336a:	9542                	add	a0,a0,a6
    336c:	93c2                	add	t2,t2,a6
    336e:	9c32                	add	s8,s8,a2
    3370:	e79b9fe3          	bne	s7,s9,31ee <matrix_mul_matrix+0x3a>
    3374:	5472                	lw	s0,60(sp)
    3376:	54e2                	lw	s1,56(sp)
    3378:	5952                	lw	s2,52(sp)
    337a:	59c2                	lw	s3,48(sp)
    337c:	5a32                	lw	s4,44(sp)
    337e:	5aa2                	lw	s5,40(sp)
    3380:	5b12                	lw	s6,36(sp)
    3382:	5b82                	lw	s7,32(sp)
    3384:	4c72                	lw	s8,28(sp)
    3386:	4ce2                	lw	s9,24(sp)
    3388:	4d52                	lw	s10,20(sp)
    338a:	4dc2                	lw	s11,16(sp)
    338c:	6121                	addi	sp,sp,64
    338e:	8082                	ret
    3390:	8082                	ret

00003392 <matrix_mul_matrix_bitextract>:
    3392:	18050e63          	beqz	a0,352e <matrix_mul_matrix_bitextract+0x19c>
    3396:	1101                	addi	sp,sp,-32
    3398:	00151e13          	slli	t3,a0,0x1
    339c:	cc26                	sw	s1,24(sp)
    339e:	84b6                	mv	s1,a3
    33a0:	ce22                	sw	s0,28(sp)
    33a2:	ca4a                	sw	s2,20(sp)
    33a4:	c84e                	sw	s3,16(sp)
    33a6:	c652                	sw	s4,12(sp)
    33a8:	c456                	sw	s5,8(sp)
    33aa:	c25a                	sw	s6,4(sp)
    33ac:	8fb2                	mv	t6,a2
    33ae:	01c60f33          	add	t5,a2,t3
    33b2:	00251913          	slli	s2,a0,0x2
    33b6:	86ae                	mv	a3,a1
    33b8:	01c483b3          	add	t2,s1,t3
    33bc:	4401                	li	s0,0
    33be:	8ea6                	mv	t4,s1
    33c0:	82b6                	mv	t0,a3
    33c2:	41ff07b3          	sub	a5,t5,t6
    33c6:	ffe78313          	addi	t1,a5,-2
    33ca:	00135593          	srli	a1,t1,0x1
    33ce:	00158613          	addi	a2,a1,1
    33d2:	00367813          	andi	a6,a2,3
    33d6:	8376                	mv	t1,t4
    33d8:	867e                	mv	a2,t6
    33da:	4981                	li	s3,0
    33dc:	08080463          	beqz	a6,3464 <matrix_mul_matrix_bitextract+0xd2>
    33e0:	4705                	li	a4,1
    33e2:	04e80c63          	beq	a6,a4,343a <matrix_mul_matrix_bitextract+0xa8>
    33e6:	4889                	li	a7,2
    33e8:	03180663          	beq	a6,a7,3414 <matrix_mul_matrix_bitextract+0x82>
    33ec:	000f9983          	lh	s3,0(t6)
    33f0:	000e9a03          	lh	s4,0(t4)
    33f4:	002f8613          	addi	a2,t6,2
    33f8:	01ce8333          	add	t1,t4,t3
    33fc:	03498ab3          	mul	s5,s3,s4
    3400:	402adb13          	srai	s6,s5,0x2
    3404:	405ad793          	srai	a5,s5,0x5
    3408:	00fb7593          	andi	a1,s6,15
    340c:	07f7f813          	andi	a6,a5,127
    3410:	030589b3          	mul	s3,a1,a6
    3414:	00061883          	lh	a7,0(a2)
    3418:	00031703          	lh	a4,0(t1)
    341c:	0609                	addi	a2,a2,2
    341e:	9372                	add	t1,t1,t3
    3420:	02e88a33          	mul	s4,a7,a4
    3424:	402a5a93          	srai	s5,s4,0x2
    3428:	405a5b13          	srai	s6,s4,0x5
    342c:	00faf593          	andi	a1,s5,15
    3430:	07fb7793          	andi	a5,s6,127
    3434:	02f58833          	mul	a6,a1,a5
    3438:	99c2                	add	s3,s3,a6
    343a:	00061883          	lh	a7,0(a2)
    343e:	00031703          	lh	a4,0(t1)
    3442:	0609                	addi	a2,a2,2
    3444:	9372                	add	t1,t1,t3
    3446:	02e88a33          	mul	s4,a7,a4
    344a:	402a5a93          	srai	s5,s4,0x2
    344e:	405a5b13          	srai	s6,s4,0x5
    3452:	00faf593          	andi	a1,s5,15
    3456:	07fb7793          	andi	a5,s6,127
    345a:	02f58833          	mul	a6,a1,a5
    345e:	99c2                	add	s3,s3,a6
    3460:	0acf0263          	beq	t5,a2,3504 <matrix_mul_matrix_bitextract+0x172>
    3464:	01c30733          	add	a4,t1,t3
    3468:	00061a03          	lh	s4,0(a2)
    346c:	00031a83          	lh	s5,0(t1)
    3470:	01c70b33          	add	s6,a4,t3
    3474:	00071783          	lh	a5,0(a4)
    3478:	00261883          	lh	a7,2(a2)
    347c:	01cb0333          	add	t1,s6,t3
    3480:	00461803          	lh	a6,4(a2)
    3484:	000b1b03          	lh	s6,0(s6)
    3488:	035a0733          	mul	a4,s4,s5
    348c:	00661583          	lh	a1,6(a2)
    3490:	00031a83          	lh	s5,0(t1)
    3494:	0621                	addi	a2,a2,8
    3496:	9372                	add	t1,t1,t3
    3498:	02f888b3          	mul	a7,a7,a5
    349c:	40575a13          	srai	s4,a4,0x5
    34a0:	40275793          	srai	a5,a4,0x2
    34a4:	00f7f713          	andi	a4,a5,15
    34a8:	07fa7793          	andi	a5,s4,127
    34ac:	03680833          	mul	a6,a6,s6
    34b0:	4028db13          	srai	s6,a7,0x2
    34b4:	4058d893          	srai	a7,a7,0x5
    34b8:	00fb7a13          	andi	s4,s6,15
    34bc:	07f8fb13          	andi	s6,a7,127
    34c0:	035585b3          	mul	a1,a1,s5
    34c4:	40285a93          	srai	s5,a6,0x2
    34c8:	40585813          	srai	a6,a6,0x5
    34cc:	00fafa93          	andi	s5,s5,15
    34d0:	07f87813          	andi	a6,a6,127
    34d4:	02f707b3          	mul	a5,a4,a5
    34d8:	4055d893          	srai	a7,a1,0x5
    34dc:	4025d713          	srai	a4,a1,0x2
    34e0:	8b3d                	andi	a4,a4,15
    34e2:	07f8f593          	andi	a1,a7,127
    34e6:	036a0a33          	mul	s4,s4,s6
    34ea:	99be                	add	s3,s3,a5
    34ec:	030a8b33          	mul	s6,s5,a6
    34f0:	01498ab3          	add	s5,s3,s4
    34f4:	02b70833          	mul	a6,a4,a1
    34f8:	016a87b3          	add	a5,s5,s6
    34fc:	010789b3          	add	s3,a5,a6
    3500:	f6cf12e3          	bne	t5,a2,3464 <matrix_mul_matrix_bitextract+0xd2>
    3504:	0132a023          	sw	s3,0(t0)
    3508:	0e89                	addi	t4,t4,2
    350a:	0291                	addi	t0,t0,4
    350c:	ebd39be3          	bne	t2,t4,33c2 <matrix_mul_matrix_bitextract+0x30>
    3510:	0405                	addi	s0,s0,1
    3512:	9ff2                	add	t6,t6,t3
    3514:	9f72                	add	t5,t5,t3
    3516:	96ca                	add	a3,a3,s2
    3518:	ea8513e3          	bne	a0,s0,33be <matrix_mul_matrix_bitextract+0x2c>
    351c:	4472                	lw	s0,28(sp)
    351e:	44e2                	lw	s1,24(sp)
    3520:	4952                	lw	s2,20(sp)
    3522:	49c2                	lw	s3,16(sp)
    3524:	4a32                	lw	s4,12(sp)
    3526:	4aa2                	lw	s5,8(sp)
    3528:	4b12                	lw	s6,4(sp)
    352a:	6105                	addi	sp,sp,32
    352c:	8082                	ret
    352e:	8082                	ret

00003530 <iterate>:
    3530:	1101                	addi	sp,sp,-32
    3532:	c64e                	sw	s3,12(sp)
    3534:	01c52983          	lw	s3,28(a0)
    3538:	ce06                	sw	ra,28(sp)
    353a:	cc22                	sw	s0,24(sp)
    353c:	ca26                	sw	s1,20(sp)
    353e:	c84a                	sw	s2,16(sp)
    3540:	c452                	sw	s4,8(sp)
    3542:	c256                	sw	s5,4(sp)
    3544:	02052c23          	sw	zero,56(a0)
    3548:	02052e23          	sw	zero,60(a0)
    354c:	16098c63          	beqz	s3,36c4 <iterate+0x194>
    3550:	0039f793          	andi	a5,s3,3
    3554:	842a                	mv	s0,a0
    3556:	4481                	li	s1,0
    3558:	cfc9                	beqz	a5,35f2 <iterate+0xc2>
    355a:	4705                	li	a4,1
    355c:	06e78263          	beq	a5,a4,35c0 <iterate+0x90>
    3560:	4089                	li	ra,2
    3562:	02178863          	beq	a5,ra,3592 <iterate+0x62>
    3566:	4585                	li	a1,1
    3568:	af5fd0ef          	jal	ra,105c <core_bench_list>
    356c:	03845583          	lhu	a1,56(s0)
    3570:	4485                	li	s1,1
    3572:	0fd000ef          	jal	ra,3e6e <crcu16>
    3576:	02a41c23          	sh	a0,56(s0)
    357a:	55fd                	li	a1,-1
    357c:	8522                	mv	a0,s0
    357e:	adffd0ef          	jal	ra,105c <core_bench_list>
    3582:	03845583          	lhu	a1,56(s0)
    3586:	0e9000ef          	jal	ra,3e6e <crcu16>
    358a:	02a41c23          	sh	a0,56(s0)
    358e:	02a41d23          	sh	a0,58(s0)
    3592:	4585                	li	a1,1
    3594:	8522                	mv	a0,s0
    3596:	ac7fd0ef          	jal	ra,105c <core_bench_list>
    359a:	03845583          	lhu	a1,56(s0)
    359e:	0d1000ef          	jal	ra,3e6e <crcu16>
    35a2:	02a41c23          	sh	a0,56(s0)
    35a6:	55fd                	li	a1,-1
    35a8:	8522                	mv	a0,s0
    35aa:	ab3fd0ef          	jal	ra,105c <core_bench_list>
    35ae:	03845583          	lhu	a1,56(s0)
    35b2:	0bd000ef          	jal	ra,3e6e <crcu16>
    35b6:	02a41c23          	sh	a0,56(s0)
    35ba:	12048a63          	beqz	s1,36ee <iterate+0x1be>
    35be:	0485                	addi	s1,s1,1
    35c0:	4585                	li	a1,1
    35c2:	8522                	mv	a0,s0
    35c4:	a99fd0ef          	jal	ra,105c <core_bench_list>
    35c8:	03845583          	lhu	a1,56(s0)
    35cc:	0a3000ef          	jal	ra,3e6e <crcu16>
    35d0:	02a41c23          	sh	a0,56(s0)
    35d4:	55fd                	li	a1,-1
    35d6:	8522                	mv	a0,s0
    35d8:	a85fd0ef          	jal	ra,105c <core_bench_list>
    35dc:	03845583          	lhu	a1,56(s0)
    35e0:	08f000ef          	jal	ra,3e6e <crcu16>
    35e4:	02a41c23          	sh	a0,56(s0)
    35e8:	0e048d63          	beqz	s1,36e2 <iterate+0x1b2>
    35ec:	0485                	addi	s1,s1,1
    35ee:	0c998b63          	beq	s3,s1,36c4 <iterate+0x194>
    35f2:	4585                	li	a1,1
    35f4:	8522                	mv	a0,s0
    35f6:	a67fd0ef          	jal	ra,105c <core_bench_list>
    35fa:	03845583          	lhu	a1,56(s0)
    35fe:	00148913          	addi	s2,s1,1
    3602:	06d000ef          	jal	ra,3e6e <crcu16>
    3606:	02a41c23          	sh	a0,56(s0)
    360a:	55fd                	li	a1,-1
    360c:	8522                	mv	a0,s0
    360e:	a4ffd0ef          	jal	ra,105c <core_bench_list>
    3612:	03845583          	lhu	a1,56(s0)
    3616:	059000ef          	jal	ra,3e6e <crcu16>
    361a:	82aa                	mv	t0,a0
    361c:	02541c23          	sh	t0,56(s0)
    3620:	4585                	li	a1,1
    3622:	8522                	mv	a0,s0
    3624:	e099                	bnez	s1,362a <iterate+0xfa>
    3626:	02541d23          	sh	t0,58(s0)
    362a:	a33fd0ef          	jal	ra,105c <core_bench_list>
    362e:	03845583          	lhu	a1,56(s0)
    3632:	03d000ef          	jal	ra,3e6e <crcu16>
    3636:	02a41c23          	sh	a0,56(s0)
    363a:	55fd                	li	a1,-1
    363c:	8522                	mv	a0,s0
    363e:	a1ffd0ef          	jal	ra,105c <core_bench_list>
    3642:	03845583          	lhu	a1,56(s0)
    3646:	029000ef          	jal	ra,3e6e <crcu16>
    364a:	02a41c23          	sh	a0,56(s0)
    364e:	00091463          	bnez	s2,3656 <iterate+0x126>
    3652:	02a41d23          	sh	a0,58(s0)
    3656:	4585                	li	a1,1
    3658:	8522                	mv	a0,s0
    365a:	a03fd0ef          	jal	ra,105c <core_bench_list>
    365e:	03845583          	lhu	a1,56(s0)
    3662:	00190a93          	addi	s5,s2,1
    3666:	00290a13          	addi	s4,s2,2
    366a:	005000ef          	jal	ra,3e6e <crcu16>
    366e:	02a41c23          	sh	a0,56(s0)
    3672:	55fd                	li	a1,-1
    3674:	8522                	mv	a0,s0
    3676:	9e7fd0ef          	jal	ra,105c <core_bench_list>
    367a:	03845583          	lhu	a1,56(s0)
    367e:	00390493          	addi	s1,s2,3
    3682:	7ec000ef          	jal	ra,3e6e <crcu16>
    3686:	832a                	mv	t1,a0
    3688:	02641c23          	sh	t1,56(s0)
    368c:	4585                	li	a1,1
    368e:	8522                	mv	a0,s0
    3690:	000a9463          	bnez	s5,3698 <iterate+0x168>
    3694:	02641d23          	sh	t1,58(s0)
    3698:	9c5fd0ef          	jal	ra,105c <core_bench_list>
    369c:	03845583          	lhu	a1,56(s0)
    36a0:	7ce000ef          	jal	ra,3e6e <crcu16>
    36a4:	02a41c23          	sh	a0,56(s0)
    36a8:	55fd                	li	a1,-1
    36aa:	8522                	mv	a0,s0
    36ac:	9b1fd0ef          	jal	ra,105c <core_bench_list>
    36b0:	03845583          	lhu	a1,56(s0)
    36b4:	7ba000ef          	jal	ra,3e6e <crcu16>
    36b8:	02a41c23          	sh	a0,56(s0)
    36bc:	000a0e63          	beqz	s4,36d8 <iterate+0x1a8>
    36c0:	f29999e3          	bne	s3,s1,35f2 <iterate+0xc2>
    36c4:	40f2                	lw	ra,28(sp)
    36c6:	4462                	lw	s0,24(sp)
    36c8:	44d2                	lw	s1,20(sp)
    36ca:	4942                	lw	s2,16(sp)
    36cc:	49b2                	lw	s3,12(sp)
    36ce:	4a22                	lw	s4,8(sp)
    36d0:	4a92                	lw	s5,4(sp)
    36d2:	4501                	li	a0,0
    36d4:	6105                	addi	sp,sp,32
    36d6:	8082                	ret
    36d8:	02a41d23          	sh	a0,58(s0)
    36dc:	f0999be3          	bne	s3,s1,35f2 <iterate+0xc2>
    36e0:	b7d5                	j	36c4 <iterate+0x194>
    36e2:	02a41d23          	sh	a0,58(s0)
    36e6:	0485                	addi	s1,s1,1
    36e8:	f09995e3          	bne	s3,s1,35f2 <iterate+0xc2>
    36ec:	bfe1                	j	36c4 <iterate+0x194>
    36ee:	02a41d23          	sh	a0,58(s0)
    36f2:	0485                	addi	s1,s1,1
    36f4:	b5f1                	j	35c0 <iterate+0x90>

000036f6 <main>:
    36f6:	7119                	addi	sp,sp,-128
    36f8:	0030                	addi	a2,sp,8
    36fa:	004c                	addi	a1,sp,4
    36fc:	04e10513          	addi	a0,sp,78
    3700:	de86                	sw	ra,124(sp)
    3702:	dca2                	sw	s0,120(sp)
    3704:	daa6                	sw	s1,116(sp)
    3706:	d8ca                	sw	s2,112(sp)
    3708:	d6ce                	sw	s3,108(sp)
    370a:	d4d2                	sw	s4,104(sp)
    370c:	d2d6                	sw	s5,100(sp)
    370e:	d0da                	sw	s6,96(sp)
    3710:	cede                	sw	s7,92(sp)
    3712:	cce2                	sw	s8,88(sp)
    3714:	cae6                	sw	s9,84(sp)
    3716:	c8ea                	sw	s10,80(sp)
    3718:	c202                	sw	zero,4(sp)
    371a:	c23fc0ef          	jal	ra,33c <portable_init>
    371e:	4505                	li	a0,1
    3720:	2bf9                	jal	3cfe <get_seed_32>
    3722:	00a11623          	sh	a0,12(sp)
    3726:	4509                	li	a0,2
    3728:	2bd9                	jal	3cfe <get_seed_32>
    372a:	00a11723          	sh	a0,14(sp)
    372e:	450d                	li	a0,3
    3730:	23f9                	jal	3cfe <get_seed_32>
    3732:	00a11823          	sh	a0,16(sp)
    3736:	4511                	li	a0,4
    3738:	23d9                	jal	3cfe <get_seed_32>
    373a:	d42a                	sw	a0,40(sp)
    373c:	4515                	li	a0,5
    373e:	23c1                	jal	3cfe <get_seed_32>
    3740:	48050763          	beqz	a0,3bce <main+0x4d8>
    3744:	87aa                	mv	a5,a0
    3746:	d62a                	sw	a0,44(sp)
    3748:	4732                	lw	a4,12(sp)
    374a:	50071a63          	bnez	a4,3c5e <main+0x568>
    374e:	01011383          	lh	t2,16(sp)
    3752:	52038263          	beqz	t2,3c76 <main+0x580>
    3756:	6599                	lui	a1,0x6
    3758:	b9458493          	addi	s1,a1,-1132 # 5b94 <static_memblk>
    375c:	0027ff13          	andi	t5,a5,2
    3760:	0017f913          	andi	s2,a5,1
    3764:	01e03533          	snez	a0,t5
    3768:	ca26                	sw	s1,20(sp)
    376a:	04011623          	sh	zero,76(sp)
    376e:	0047f813          	andi	a6,a5,4
    3772:	00a90a33          	add	s4,s2,a0
    3776:	00080863          	beqz	a6,3786 <main+0x90>
    377a:	001a0893          	addi	a7,s4,1
    377e:	01089993          	slli	s3,a7,0x10
    3782:	0109da13          	srli	s4,s3,0x10
    3786:	7d000a93          	li	s5,2000
    378a:	034ad533          	divu	a0,s5,s4
    378e:	4c81                	li	s9,0
    3790:	d22a                	sw	a0,36(sp)
    3792:	4a091a63          	bnez	s2,3c46 <main+0x550>
    3796:	480f1a63          	bnez	t5,3c2a <main+0x534>
    379a:	48081063          	bnez	a6,3c1a <main+0x524>
    379e:	1c091b63          	bnez	s2,3974 <main+0x27e>
    37a2:	1e0f1463          	bnez	t5,398a <main+0x294>
    37a6:	0047f693          	andi	a3,a5,4
    37aa:	c699                	beqz	a3,37b8 <main+0xc2>
    37ac:	5602                	lw	a2,32(sp)
    37ae:	00c11583          	lh	a1,12(sp)
    37b2:	5512                	lw	a0,36(sp)
    37b4:	131000ef          	jal	ra,40e4 <core_init_state>
    37b8:	50a2                	lw	ra,40(sp)
    37ba:	04009063          	bnez	ra,37fa <main+0x104>
    37be:	4b05                	li	s6,1
    37c0:	a011                	j	37c4 <main+0xce>
    37c2:	5b22                	lw	s6,40(sp)
    37c4:	002b1293          	slli	t0,s6,0x2
    37c8:	01628333          	add	t1,t0,s6
    37cc:	00131393          	slli	t2,t1,0x1
    37d0:	d41e                	sw	t2,40(sp)
    37d2:	b33fc0ef          	jal	ra,304 <start_time>
    37d6:	0068                	addi	a0,sp,12
    37d8:	3ba1                	jal	3530 <iterate>
    37da:	b37fc0ef          	jal	ra,310 <stop_time>
    37de:	b3ffc0ef          	jal	ra,31c <get_time>
    37e2:	b4dfc0ef          	jal	ra,32e <time_in_secs>
    37e6:	dd71                	beqz	a0,37c2 <main+0xcc>
    37e8:	4429                	li	s0,10
    37ea:	02a455b3          	divu	a1,s0,a0
    37ee:	5922                	lw	s2,40(sp)
    37f0:	00158493          	addi	s1,a1,1
    37f4:	02990633          	mul	a2,s2,s1
    37f8:	d432                	sw	a2,40(sp)
    37fa:	b0bfc0ef          	jal	ra,304 <start_time>
    37fe:	0068                	addi	a0,sp,12
    3800:	3b05                	jal	3530 <iterate>
    3802:	b0ffc0ef          	jal	ra,310 <stop_time>
    3806:	b17fc0ef          	jal	ra,31c <get_time>
    380a:	892a                	mv	s2,a0
    380c:	00c11503          	lh	a0,12(sp)
    3810:	4581                	li	a1,0
    3812:	0cd000ef          	jal	ra,40de <crc16>
    3816:	85aa                	mv	a1,a0
    3818:	00e11503          	lh	a0,14(sp)
    381c:	0c3000ef          	jal	ra,40de <crc16>
    3820:	85aa                	mv	a1,a0
    3822:	01011503          	lh	a0,16(sp)
    3826:	0b9000ef          	jal	ra,40de <crc16>
    382a:	85aa                	mv	a1,a0
    382c:	02411503          	lh	a0,36(sp)
    3830:	0af000ef          	jal	ra,40de <crc16>
    3834:	84aa                	mv	s1,a0
    3836:	6521                	lui	a0,0x8
    3838:	b0550813          	addi	a6,a0,-1275 # 7b05 <__BSS_END__+0x1785>
    383c:	49048763          	beq	s1,a6,3cca <main+0x5d4>
    3840:	16987463          	bgeu	a6,s1,39a8 <main+0x2b2>
    3844:	69a5                	lui	s3,0x9
    3846:	a0298a13          	addi	s4,s3,-1534 # 8a02 <__BSS_END__+0x2682>
    384a:	49448863          	beq	s1,s4,3cda <main+0x5e4>
    384e:	6b3d                	lui	s6,0xf
    3850:	9f5b0b93          	addi	s7,s6,-1547 # e9f5 <__BSS_END__+0x8675>
    3854:	19749c63          	bne	s1,s7,39ec <main+0x2f6>
    3858:	00005c37          	lui	s8,0x5
    385c:	3e8c0513          	addi	a0,s8,1000 # 53e8 <__umoddi3+0x4d0>
    3860:	c48fd0ef          	jal	ra,ca8 <sc_printf>
    3864:	4e8d                	li	t4,3
    3866:	6b99                	lui	s7,0x6
    3868:	b40ba783          	lw	a5,-1216(s7) # 5b40 <default_num_contexts>
    386c:	4d01                	li	s10,0
    386e:	4c01                	li	s8,0
    3870:	48078563          	beqz	a5,3cfa <main+0x604>
    3874:	6699                	lui	a3,0x6
    3876:	001e9093          	slli	ra,t4,0x1
    387a:	99468293          	addi	t0,a3,-1644 # 5994 <list_known_crc>
    387e:	00128cb3          	add	s9,t0,ra
    3882:	00005b37          	lui	s6,0x5
    3886:	00005ab7          	lui	s5,0x5
    388a:	00005a37          	lui	s4,0x5
    388e:	a82d                	j	38c8 <main+0x1d2>
    3890:	018402b3          	add	t0,s0,s8
    3894:	00229413          	slli	s0,t0,0x2
    3898:	05010313          	addi	t1,sp,80
    389c:	008303b3          	add	t2,t1,s0
    38a0:	ffc3de83          	lhu	t4,-4(t2)
    38a4:	9d76                	add	s10,s10,t4
    38a6:	0c05                	addi	s8,s8,1
    38a8:	010d1f93          	slli	t6,s10,0x10
    38ac:	b40baf03          	lw	t5,-1216(s7)
    38b0:	010fd413          	srli	s0,t6,0x10
    38b4:	010c1713          	slli	a4,s8,0x10
    38b8:	01041793          	slli	a5,s0,0x10
    38bc:	01075c13          	srli	s8,a4,0x10
    38c0:	4107dd13          	srai	s10,a5,0x10
    38c4:	13ec7863          	bgeu	s8,t5,39f4 <main+0x2fe>
    38c8:	004c1413          	slli	s0,s8,0x4
    38cc:	01840333          	add	t1,s0,s8
    38d0:	00231393          	slli	t2,t1,0x2
    38d4:	088c                	addi	a1,sp,80
    38d6:	007589b3          	add	s3,a1,t2
    38da:	fdc9a603          	lw	a2,-36(s3)
    38de:	fe099e23          	sh	zero,-4(s3)
    38e2:	00167513          	andi	a0,a2,1
    38e6:	c115                	beqz	a0,390a <main+0x214>
    38e8:	ff69d603          	lhu	a2,-10(s3)
    38ec:	000cd683          	lhu	a3,0(s9)
    38f0:	00d60d63          	beq	a2,a3,390a <main+0x214>
    38f4:	85e2                	mv	a1,s8
    38f6:	444b0513          	addi	a0,s6,1092 # 5444 <__umoddi3+0x52c>
    38fa:	baefd0ef          	jal	ra,ca8 <sc_printf>
    38fe:	ffc9d803          	lhu	a6,-4(s3)
    3902:	00180893          	addi	a7,a6,1
    3906:	ff199e23          	sh	a7,-4(s3)
    390a:	01840e33          	add	t3,s0,s8
    390e:	002e1e93          	slli	t4,t3,0x2
    3912:	05010f13          	addi	t5,sp,80
    3916:	01df09b3          	add	s3,t5,t4
    391a:	fdc9a783          	lw	a5,-36(s3)
    391e:	0027ff93          	andi	t6,a5,2
    3922:	020f8563          	beqz	t6,394c <main+0x256>
    3926:	ff89d603          	lhu	a2,-8(s3)
    392a:	00ccd683          	lhu	a3,12(s9)
    392e:	00d60f63          	beq	a2,a3,394c <main+0x256>
    3932:	85e2                	mv	a1,s8
    3934:	474a8513          	addi	a0,s5,1140 # 5474 <__umoddi3+0x55c>
    3938:	b70fd0ef          	jal	ra,ca8 <sc_printf>
    393c:	ffc9d703          	lhu	a4,-4(s3)
    3940:	fdc9a783          	lw	a5,-36(s3)
    3944:	00170693          	addi	a3,a4,1
    3948:	fed99e23          	sh	a3,-4(s3)
    394c:	0047f093          	andi	ra,a5,4
    3950:	f40080e3          	beqz	ra,3890 <main+0x19a>
    3954:	018405b3          	add	a1,s0,s8
    3958:	00259613          	slli	a2,a1,0x2
    395c:	0888                	addi	a0,sp,80
    395e:	00c509b3          	add	s3,a0,a2
    3962:	ffa9d603          	lhu	a2,-6(s3)
    3966:	018cd683          	lhu	a3,24(s9)
    396a:	06d61163          	bne	a2,a3,39cc <main+0x2d6>
    396e:	ffc9de83          	lhu	t4,-4(s3)
    3972:	bf0d                	j	38a4 <main+0x1ae>
    3974:	00c11603          	lh	a2,12(sp)
    3978:	45e2                	lw	a1,24(sp)
    397a:	8b5fd0ef          	jal	ra,122e <core_list_init>
    397e:	57b2                	lw	a5,44(sp)
    3980:	d82a                	sw	a0,48(sp)
    3982:	0027ff13          	andi	t5,a5,2
    3986:	e20f00e3          	beqz	t5,37a6 <main+0xb0>
    398a:	00e11783          	lh	a5,14(sp)
    398e:	00c11f83          	lh	t6,12(sp)
    3992:	45f2                	lw	a1,28(sp)
    3994:	5512                	lw	a0,36(sp)
    3996:	01079713          	slli	a4,a5,0x10
    399a:	1854                	addi	a3,sp,52
    399c:	01f76633          	or	a2,a4,t6
    39a0:	b7bfd0ef          	jal	ra,151a <core_init_matrix>
    39a4:	57b2                	lw	a5,44(sp)
    39a6:	b501                	j	37a6 <main+0xb0>
    39a8:	6c89                	lui	s9,0x2
    39aa:	8f2c8d13          	addi	s10,s9,-1806 # 18f2 <matrix_test+0xf0>
    39ae:	33a48e63          	beq	s1,s10,3cea <main+0x5f4>
    39b2:	6f15                	lui	t5,0x5
    39b4:	eaff0f93          	addi	t6,t5,-337 # 4eaf <__udivdi3+0x3cb>
    39b8:	03f49a63          	bne	s1,t6,39ec <main+0x2f6>
    39bc:	00005737          	lui	a4,0x5
    39c0:	3b470513          	addi	a0,a4,948 # 53b4 <__umoddi3+0x49c>
    39c4:	ae4fd0ef          	jal	ra,ca8 <sc_printf>
    39c8:	4e89                	li	t4,2
    39ca:	bd71                	j	3866 <main+0x170>
    39cc:	85e2                	mv	a1,s8
    39ce:	4a8a0513          	addi	a0,s4,1192 # 54a8 <__umoddi3+0x590>
    39d2:	ad6fd0ef          	jal	ra,ca8 <sc_printf>
    39d6:	ffc9d803          	lhu	a6,-4(s3)
    39da:	00180893          	addi	a7,a6,1
    39de:	01089e13          	slli	t3,a7,0x10
    39e2:	010e5e93          	srli	t4,t3,0x10
    39e6:	ffd99e23          	sh	t4,-4(s3)
    39ea:	bd6d                	j	38a4 <main+0x1ae>
    39ec:	6bc1                	lui	s7,0x10
    39ee:	fffb8413          	addi	s0,s7,-1 # ffff <__BSS_END__+0x9c7f>
    39f2:	6b99                	lui	s7,0x6
    39f4:	26b9                	jal	3d42 <check_data_types>
    39f6:	5592                	lw	a1,36(sp)
    39f8:	00005b37          	lui	s6,0x5
    39fc:	00a40cb3          	add	s9,s0,a0
    3a00:	4d8b0513          	addi	a0,s6,1240 # 54d8 <__umoddi3+0x5c0>
    3a04:	aa4fd0ef          	jal	ra,ca8 <sc_printf>
    3a08:	00005a37          	lui	s4,0x5
    3a0c:	85ca                	mv	a1,s2
    3a0e:	4f0a0513          	addi	a0,s4,1264 # 54f0 <__umoddi3+0x5d8>
    3a12:	a96fd0ef          	jal	ra,ca8 <sc_printf>
    3a16:	854a                	mv	a0,s2
    3a18:	917fc0ef          	jal	ra,32e <time_in_secs>
    3a1c:	000056b7          	lui	a3,0x5
    3a20:	85aa                	mv	a1,a0
    3a22:	50868513          	addi	a0,a3,1288 # 5508 <__umoddi3+0x5f0>
    3a26:	a82fd0ef          	jal	ra,ca8 <sc_printf>
    3a2a:	010c9a93          	slli	s5,s9,0x10
    3a2e:	854a                	mv	a0,s2
    3a30:	010ad413          	srli	s0,s5,0x10
    3a34:	8fbfc0ef          	jal	ra,32e <time_in_secs>
    3a38:	26051363          	bnez	a0,3c9e <main+0x5a8>
    3a3c:	854a                	mv	a0,s2
    3a3e:	8f1fc0ef          	jal	ra,32e <time_in_secs>
    3a42:	4925                	li	s2,9
    3a44:	24a97563          	bgeu	s2,a0,3c8e <main+0x598>
    3a48:	b40ba603          	lw	a2,-1216(s7) # 5b40 <default_num_contexts>
    3a4c:	5822                	lw	a6,40(sp)
    3a4e:	01041593          	slli	a1,s0,0x10
    3a52:	4105dd13          	srai	s10,a1,0x10
    3a56:	02c805b3          	mul	a1,a6,a2
    3a5a:	00005537          	lui	a0,0x5
    3a5e:	57850513          	addi	a0,a0,1400 # 5578 <__umoddi3+0x660>
    3a62:	00005c37          	lui	s8,0x5
    3a66:	a42fd0ef          	jal	ra,ca8 <sc_printf>
    3a6a:	000058b7          	lui	a7,0x5
    3a6e:	00005e37          	lui	t3,0x5
    3a72:	59088593          	addi	a1,a7,1424 # 5590 <__umoddi3+0x678>
    3a76:	59ce0513          	addi	a0,t3,1436 # 559c <__umoddi3+0x684>
    3a7a:	a2efd0ef          	jal	ra,ca8 <sc_printf>
    3a7e:	00005eb7          	lui	t4,0x5
    3a82:	00005f37          	lui	t5,0x5
    3a86:	5b4e8593          	addi	a1,t4,1460 # 55b4 <__umoddi3+0x69c>
    3a8a:	5ecf0513          	addi	a0,t5,1516 # 55ec <__umoddi3+0x6d4>
    3a8e:	a1afd0ef          	jal	ra,ca8 <sc_printf>
    3a92:	00005fb7          	lui	t6,0x5
    3a96:	604c0593          	addi	a1,s8,1540 # 5604 <__umoddi3+0x6ec>
    3a9a:	60cf8513          	addi	a0,t6,1548 # 560c <__umoddi3+0x6f4>
    3a9e:	a0afd0ef          	jal	ra,ca8 <sc_printf>
    3aa2:	85a6                	mv	a1,s1
    3aa4:	000054b7          	lui	s1,0x5
    3aa8:	62448513          	addi	a0,s1,1572 # 5624 <__umoddi3+0x70c>
    3aac:	9fcfd0ef          	jal	ra,ca8 <sc_printf>
    3ab0:	5b32                	lw	s6,44(sp)
    3ab2:	001b7713          	andi	a4,s6,1
    3ab6:	c339                	beqz	a4,3afc <main+0x406>
    3ab8:	b40bac83          	lw	s9,-1216(s7)
    3abc:	040c8063          	beqz	s9,3afc <main+0x406>
    3ac0:	4901                	li	s2,0
    3ac2:	00005b37          	lui	s6,0x5
    3ac6:	00491793          	slli	a5,s2,0x4
    3aca:	01278ab3          	add	s5,a5,s2
    3ace:	0894                	addi	a3,sp,80
    3ad0:	002a9a13          	slli	s4,s5,0x2
    3ad4:	014680b3          	add	ra,a3,s4
    3ad8:	ff60d603          	lhu	a2,-10(ra)
    3adc:	85ca                	mv	a1,s2
    3ade:	640b0513          	addi	a0,s6,1600 # 5640 <__umoddi3+0x728>
    3ae2:	9c6fd0ef          	jal	ra,ca8 <sc_printf>
    3ae6:	00190993          	addi	s3,s2,1
    3aea:	b40ba283          	lw	t0,-1216(s7)
    3aee:	01099313          	slli	t1,s3,0x10
    3af2:	01035913          	srli	s2,t1,0x10
    3af6:	fc5968e3          	bltu	s2,t0,3ac6 <main+0x3d0>
    3afa:	5b32                	lw	s6,44(sp)
    3afc:	002b7393          	andi	t2,s6,2
    3b00:	04038563          	beqz	t2,3b4a <main+0x454>
    3b04:	b40ba403          	lw	s0,-1216(s7)
    3b08:	1a040c63          	beqz	s0,3cc0 <main+0x5ca>
    3b0c:	4481                	li	s1,0
    3b0e:	00005c37          	lui	s8,0x5
    3b12:	00449613          	slli	a2,s1,0x4
    3b16:	00960533          	add	a0,a2,s1
    3b1a:	00251813          	slli	a6,a0,0x2
    3b1e:	05010893          	addi	a7,sp,80
    3b22:	01088e33          	add	t3,a7,a6
    3b26:	ff8e5603          	lhu	a2,-8(t3)
    3b2a:	85a6                	mv	a1,s1
    3b2c:	65cc0513          	addi	a0,s8,1628 # 565c <__umoddi3+0x744>
    3b30:	978fd0ef          	jal	ra,ca8 <sc_printf>
    3b34:	00148f13          	addi	t5,s1,1
    3b38:	b40bae83          	lw	t4,-1216(s7)
    3b3c:	010f1f93          	slli	t6,t5,0x10
    3b40:	010fd493          	srli	s1,t6,0x10
    3b44:	fdd4e7e3          	bltu	s1,t4,3b12 <main+0x41c>
    3b48:	5b32                	lw	s6,44(sp)
    3b4a:	004b7713          	andi	a4,s6,4
    3b4e:	e359                	bnez	a4,3bd4 <main+0x4de>
    3b50:	b40ba383          	lw	t2,-1216(s7)
    3b54:	4481                	li	s1,0
    3b56:	00005c37          	lui	s8,0x5
    3b5a:	02038d63          	beqz	t2,3b94 <main+0x49e>
    3b5e:	00449593          	slli	a1,s1,0x4
    3b62:	00958633          	add	a2,a1,s1
    3b66:	00261513          	slli	a0,a2,0x2
    3b6a:	05010813          	addi	a6,sp,80
    3b6e:	00a808b3          	add	a7,a6,a0
    3b72:	ff48d603          	lhu	a2,-12(a7)
    3b76:	85a6                	mv	a1,s1
    3b78:	694c0513          	addi	a0,s8,1684 # 5694 <__umoddi3+0x77c>
    3b7c:	92cfd0ef          	jal	ra,ca8 <sc_printf>
    3b80:	00148e93          	addi	t4,s1,1
    3b84:	b40bae03          	lw	t3,-1216(s7)
    3b88:	010e9f13          	slli	t5,t4,0x10
    3b8c:	010f5493          	srli	s1,t5,0x10
    3b90:	fdc4e7e3          	bltu	s1,t3,3b5e <main+0x468>
    3b94:	0e0d0663          	beqz	s10,3c80 <main+0x58a>
    3b98:	0ba05c63          	blez	s10,3c50 <main+0x55a>
    3b9c:	00005d37          	lui	s10,0x5
    3ba0:	6fcd0513          	addi	a0,s10,1788 # 56fc <__umoddi3+0x7e4>
    3ba4:	904fd0ef          	jal	ra,ca8 <sc_printf>
    3ba8:	04e10513          	addi	a0,sp,78
    3bac:	fb2fc0ef          	jal	ra,35e <portable_fini>
    3bb0:	50f6                	lw	ra,124(sp)
    3bb2:	5466                	lw	s0,120(sp)
    3bb4:	54d6                	lw	s1,116(sp)
    3bb6:	5946                	lw	s2,112(sp)
    3bb8:	59b6                	lw	s3,108(sp)
    3bba:	5a26                	lw	s4,104(sp)
    3bbc:	5a96                	lw	s5,100(sp)
    3bbe:	5b06                	lw	s6,96(sp)
    3bc0:	4bf6                	lw	s7,92(sp)
    3bc2:	4c66                	lw	s8,88(sp)
    3bc4:	4cd6                	lw	s9,84(sp)
    3bc6:	4d46                	lw	s10,80(sp)
    3bc8:	4501                	li	a0,0
    3bca:	6109                	addi	sp,sp,128
    3bcc:	8082                	ret
    3bce:	479d                	li	a5,7
    3bd0:	d63e                	sw	a5,44(sp)
    3bd2:	be9d                	j	3748 <main+0x52>
    3bd4:	b40bac83          	lw	s9,-1216(s7)
    3bd8:	fa0c8ee3          	beqz	s9,3b94 <main+0x49e>
    3bdc:	4401                	li	s0,0
    3bde:	00005ab7          	lui	s5,0x5
    3be2:	00441793          	slli	a5,s0,0x4
    3be6:	00878a33          	add	s4,a5,s0
    3bea:	002a1693          	slli	a3,s4,0x2
    3bee:	05010093          	addi	ra,sp,80
    3bf2:	00d082b3          	add	t0,ra,a3
    3bf6:	ffa2d603          	lhu	a2,-6(t0)
    3bfa:	85a2                	mv	a1,s0
    3bfc:	678a8513          	addi	a0,s5,1656 # 5678 <__umoddi3+0x760>
    3c00:	8a8fd0ef          	jal	ra,ca8 <sc_printf>
    3c04:	00140313          	addi	t1,s0,1
    3c08:	b40ba983          	lw	s3,-1216(s7)
    3c0c:	01031913          	slli	s2,t1,0x10
    3c10:	01095413          	srli	s0,s2,0x10
    3c14:	fd3467e3          	bltu	s0,s3,3be2 <main+0x4ec>
    3c18:	bf25                	j	3b50 <main+0x45a>
    3c1a:	02ac8e33          	mul	t3,s9,a0
    3c1e:	01c48eb3          	add	t4,s1,t3
    3c22:	d076                	sw	t4,32(sp)
    3c24:	b6090fe3          	beqz	s2,37a2 <main+0xac>
    3c28:	b3b1                	j	3974 <main+0x27e>
    3c2a:	02ac8b33          	mul	s6,s9,a0
    3c2e:	001c8b93          	addi	s7,s9,1
    3c32:	010b9c13          	slli	s8,s7,0x10
    3c36:	010c5c93          	srli	s9,s8,0x10
    3c3a:	01648d33          	add	s10,s1,s6
    3c3e:	ce6a                	sw	s10,28(sp)
    3c40:	b4080fe3          	beqz	a6,379e <main+0xa8>
    3c44:	bfd9                	j	3c1a <main+0x524>
    3c46:	cc26                	sw	s1,24(sp)
    3c48:	4c85                	li	s9,1
    3c4a:	b40f08e3          	beqz	t5,379a <main+0xa4>
    3c4e:	bff1                	j	3c2a <main+0x534>
    3c50:	00005bb7          	lui	s7,0x5
    3c54:	710b8513          	addi	a0,s7,1808 # 5710 <__umoddi3+0x7f8>
    3c58:	850fd0ef          	jal	ra,ca8 <sc_printf>
    3c5c:	b7b1                	j	3ba8 <main+0x4b2>
    3c5e:	4685                	li	a3,1
    3c60:	aed71be3          	bne	a4,a3,3756 <main+0x60>
    3c64:	01011083          	lh	ra,16(sp)
    3c68:	ae0097e3          	bnez	ra,3756 <main+0x60>
    3c6c:	341532b7          	lui	t0,0x34153
    3c70:	41528313          	addi	t1,t0,1045 # 34153415 <__C_STACK_TOP__+0x34143415>
    3c74:	c61a                	sw	t1,12(sp)
    3c76:	06600413          	li	s0,102
    3c7a:	00811823          	sh	s0,16(sp)
    3c7e:	bce1                	j	3756 <main+0x60>
    3c80:	00005fb7          	lui	t6,0x5
    3c84:	6b0f8513          	addi	a0,t6,1712 # 56b0 <__umoddi3+0x798>
    3c88:	820fd0ef          	jal	ra,ca8 <sc_printf>
    3c8c:	bf31                	j	3ba8 <main+0x4b2>
    3c8e:	000053b7          	lui	t2,0x5
    3c92:	53838513          	addi	a0,t2,1336 # 5538 <__umoddi3+0x620>
    3c96:	812fd0ef          	jal	ra,ca8 <sc_printf>
    3c9a:	0405                	addi	s0,s0,1
    3c9c:	b375                	j	3a48 <main+0x352>
    3c9e:	b40ba083          	lw	ra,-1216(s7)
    3ca2:	52a2                	lw	t0,40(sp)
    3ca4:	854a                	mv	a0,s2
    3ca6:	021289b3          	mul	s3,t0,ra
    3caa:	e84fc0ef          	jal	ra,32e <time_in_secs>
    3cae:	00005337          	lui	t1,0x5
    3cb2:	02a9d5b3          	divu	a1,s3,a0
    3cb6:	52030513          	addi	a0,t1,1312 # 5520 <__umoddi3+0x608>
    3cba:	feffc0ef          	jal	ra,ca8 <sc_printf>
    3cbe:	bbbd                	j	3a3c <main+0x346>
    3cc0:	004b7593          	andi	a1,s6,4
    3cc4:	ec0598e3          	bnez	a1,3b94 <main+0x49e>
    3cc8:	b561                	j	3b50 <main+0x45a>
    3cca:	000058b7          	lui	a7,0x5
    3cce:	38888513          	addi	a0,a7,904 # 5388 <__umoddi3+0x470>
    3cd2:	fd7fc0ef          	jal	ra,ca8 <sc_printf>
    3cd6:	4e85                	li	t4,1
    3cd8:	b679                	j	3866 <main+0x170>
    3cda:	00005ab7          	lui	s5,0x5
    3cde:	358a8513          	addi	a0,s5,856 # 5358 <__umoddi3+0x440>
    3ce2:	fc7fc0ef          	jal	ra,ca8 <sc_printf>
    3ce6:	4e81                	li	t4,0
    3ce8:	bebd                	j	3866 <main+0x170>
    3cea:	00005e37          	lui	t3,0x5
    3cee:	418e0513          	addi	a0,t3,1048 # 5418 <__umoddi3+0x500>
    3cf2:	fb7fc0ef          	jal	ra,ca8 <sc_printf>
    3cf6:	4e91                	li	t4,4
    3cf8:	b6bd                	j	3866 <main+0x170>
    3cfa:	4401                	li	s0,0
    3cfc:	b9e5                	j	39f4 <main+0x2fe>

00003cfe <get_seed_32>:
    3cfe:	4795                	li	a5,5
    3d00:	02a7ef63          	bltu	a5,a0,3d3e <get_seed_32+0x40>
    3d04:	6299                	lui	t0,0x6
    3d06:	050a                	slli	a0,a0,0x2
    3d08:	9b828313          	addi	t1,t0,-1608 # 59b8 <state_known_crc+0xc>
    3d0c:	006503b3          	add	t2,a0,t1
    3d10:	0003a583          	lw	a1,0(t2)
    3d14:	8582                	jr	a1
    3d16:	6619                	lui	a2,0x6
    3d18:	b8862503          	lw	a0,-1144(a2) # 5b88 <seed5_volatile>
    3d1c:	8082                	ret
    3d1e:	6899                	lui	a7,0x6
    3d20:	b908a503          	lw	a0,-1136(a7) # 5b90 <seed1_volatile>
    3d24:	8082                	ret
    3d26:	6819                	lui	a6,0x6
    3d28:	b8c82503          	lw	a0,-1140(a6) # 5b8c <seed2_volatile>
    3d2c:	8082                	ret
    3d2e:	6719                	lui	a4,0x6
    3d30:	b4872503          	lw	a0,-1208(a4) # 5b48 <seed3_volatile>
    3d34:	8082                	ret
    3d36:	6699                	lui	a3,0x6
    3d38:	b446a503          	lw	a0,-1212(a3) # 5b44 <seed4_volatile>
    3d3c:	8082                	ret
    3d3e:	4501                	li	a0,0
    3d40:	8082                	ret

00003d42 <check_data_types>:
    3d42:	4501                	li	a0,0
    3d44:	8082                	ret

00003d46 <crcu8>:
    3d46:	00b546b3          	xor	a3,a0,a1
    3d4a:	0016f293          	andi	t0,a3,1
    3d4e:	00155713          	srli	a4,a0,0x1
    3d52:	0015d613          	srli	a2,a1,0x1
    3d56:	00028b63          	beqz	t0,3d6c <crcu8+0x26>
    3d5a:	7369                	lui	t1,0xffffa
    3d5c:	00130393          	addi	t2,t1,1 # ffffa001 <__C_STACK_TOP__+0xfffea001>
    3d60:	007647b3          	xor	a5,a2,t2
    3d64:	01079593          	slli	a1,a5,0x10
    3d68:	0105d613          	srli	a2,a1,0x10
    3d6c:	00e64833          	xor	a6,a2,a4
    3d70:	00187893          	andi	a7,a6,1
    3d74:	00255e13          	srli	t3,a0,0x2
    3d78:	00165293          	srli	t0,a2,0x1
    3d7c:	00088b63          	beqz	a7,3d92 <crcu8+0x4c>
    3d80:	7ee9                	lui	t4,0xffffa
    3d82:	001e8f13          	addi	t5,t4,1 # ffffa001 <__C_STACK_TOP__+0xfffea001>
    3d86:	01e2cfb3          	xor	t6,t0,t5
    3d8a:	010f9693          	slli	a3,t6,0x10
    3d8e:	0106d293          	srli	t0,a3,0x10
    3d92:	01c2c733          	xor	a4,t0,t3
    3d96:	00177313          	andi	t1,a4,1
    3d9a:	00355393          	srli	t2,a0,0x3
    3d9e:	0012d893          	srli	a7,t0,0x1
    3da2:	00030b63          	beqz	t1,3db8 <crcu8+0x72>
    3da6:	75e9                	lui	a1,0xffffa
    3da8:	00158613          	addi	a2,a1,1 # ffffa001 <__C_STACK_TOP__+0xfffea001>
    3dac:	00c8c7b3          	xor	a5,a7,a2
    3db0:	01079813          	slli	a6,a5,0x10
    3db4:	01085893          	srli	a7,a6,0x10
    3db8:	0078ce33          	xor	t3,a7,t2
    3dbc:	001e7e93          	andi	t4,t3,1
    3dc0:	00455f13          	srli	t5,a0,0x4
    3dc4:	0018d313          	srli	t1,a7,0x1
    3dc8:	000e8b63          	beqz	t4,3dde <crcu8+0x98>
    3dcc:	7fe9                	lui	t6,0xffffa
    3dce:	001f8693          	addi	a3,t6,1 # ffffa001 <__C_STACK_TOP__+0xfffea001>
    3dd2:	00d342b3          	xor	t0,t1,a3
    3dd6:	01029713          	slli	a4,t0,0x10
    3dda:	01075313          	srli	t1,a4,0x10
    3dde:	01e343b3          	xor	t2,t1,t5
    3de2:	0013f593          	andi	a1,t2,1
    3de6:	00555613          	srli	a2,a0,0x5
    3dea:	00135e93          	srli	t4,t1,0x1
    3dee:	c991                	beqz	a1,3e02 <crcu8+0xbc>
    3df0:	7869                	lui	a6,0xffffa
    3df2:	00180893          	addi	a7,a6,1 # ffffa001 <__C_STACK_TOP__+0xfffea001>
    3df6:	011ec7b3          	xor	a5,t4,a7
    3dfa:	01079e13          	slli	t3,a5,0x10
    3dfe:	010e5e93          	srli	t4,t3,0x10
    3e02:	00cecf33          	xor	t5,t4,a2
    3e06:	001f7f93          	andi	t6,t5,1
    3e0a:	00655693          	srli	a3,a0,0x6
    3e0e:	001ed593          	srli	a1,t4,0x1
    3e12:	000f8b63          	beqz	t6,3e28 <crcu8+0xe2>
    3e16:	72e9                	lui	t0,0xffffa
    3e18:	00128713          	addi	a4,t0,1 # ffffa001 <__C_STACK_TOP__+0xfffea001>
    3e1c:	00e5c333          	xor	t1,a1,a4
    3e20:	01031393          	slli	t2,t1,0x10
    3e24:	0103d593          	srli	a1,t2,0x10
    3e28:	00d5c633          	xor	a2,a1,a3
    3e2c:	00167813          	andi	a6,a2,1
    3e30:	00755893          	srli	a7,a0,0x7
    3e34:	0015df13          	srli	t5,a1,0x1
    3e38:	00080b63          	beqz	a6,3e4e <crcu8+0x108>
    3e3c:	7569                	lui	a0,0xffffa
    3e3e:	00150e13          	addi	t3,a0,1 # ffffa001 <__C_STACK_TOP__+0xfffea001>
    3e42:	01cf47b3          	xor	a5,t5,t3
    3e46:	01079e93          	slli	t4,a5,0x10
    3e4a:	010edf13          	srli	t5,t4,0x10
    3e4e:	001f7f93          	andi	t6,t5,1
    3e52:	001f5513          	srli	a0,t5,0x1
    3e56:	011f8b63          	beq	t6,a7,3e6c <crcu8+0x126>
    3e5a:	76e9                	lui	a3,0xffffa
    3e5c:	00168293          	addi	t0,a3,1 # ffffa001 <__C_STACK_TOP__+0xfffea001>
    3e60:	00554733          	xor	a4,a0,t0
    3e64:	01071313          	slli	t1,a4,0x10
    3e68:	01035513          	srli	a0,t1,0x10
    3e6c:	8082                	ret

00003e6e <crcu16>:
    3e6e:	00a5c633          	xor	a2,a1,a0
    3e72:	0ff57693          	andi	a3,a0,255
    3e76:	00167293          	andi	t0,a2,1
    3e7a:	0016d713          	srli	a4,a3,0x1
    3e7e:	0015d813          	srli	a6,a1,0x1
    3e82:	00028b63          	beqz	t0,3e98 <crcu16+0x2a>
    3e86:	7369                	lui	t1,0xffffa
    3e88:	00130393          	addi	t2,t1,1 # ffffa001 <__C_STACK_TOP__+0xfffea001>
    3e8c:	007847b3          	xor	a5,a6,t2
    3e90:	01079593          	slli	a1,a5,0x10
    3e94:	0105d813          	srli	a6,a1,0x10
    3e98:	00e848b3          	xor	a7,a6,a4
    3e9c:	0018fe13          	andi	t3,a7,1
    3ea0:	0026de93          	srli	t4,a3,0x2
    3ea4:	00185313          	srli	t1,a6,0x1
    3ea8:	000e0b63          	beqz	t3,3ebe <crcu16+0x50>
    3eac:	7f69                	lui	t5,0xffffa
    3eae:	001f0f93          	addi	t6,t5,1 # ffffa001 <__C_STACK_TOP__+0xfffea001>
    3eb2:	01f34633          	xor	a2,t1,t6
    3eb6:	01061293          	slli	t0,a2,0x10
    3eba:	0102d313          	srli	t1,t0,0x10
    3ebe:	01d34733          	xor	a4,t1,t4
    3ec2:	00177393          	andi	t2,a4,1
    3ec6:	0036d593          	srli	a1,a3,0x3
    3eca:	00135e93          	srli	t4,t1,0x1
    3ece:	00038b63          	beqz	t2,3ee4 <crcu16+0x76>
    3ed2:	7869                	lui	a6,0xffffa
    3ed4:	00180893          	addi	a7,a6,1 # ffffa001 <__C_STACK_TOP__+0xfffea001>
    3ed8:	011ec7b3          	xor	a5,t4,a7
    3edc:	01079e13          	slli	t3,a5,0x10
    3ee0:	010e5e93          	srli	t4,t3,0x10
    3ee4:	00becf33          	xor	t5,t4,a1
    3ee8:	001f7f93          	andi	t6,t5,1
    3eec:	0046d293          	srli	t0,a3,0x4
    3ef0:	001ed593          	srli	a1,t4,0x1
    3ef4:	000f8b63          	beqz	t6,3f0a <crcu16+0x9c>
    3ef8:	7669                	lui	a2,0xffffa
    3efa:	00160313          	addi	t1,a2,1 # ffffa001 <__C_STACK_TOP__+0xfffea001>
    3efe:	0065c733          	xor	a4,a1,t1
    3f02:	01071393          	slli	t2,a4,0x10
    3f06:	0103d593          	srli	a1,t2,0x10
    3f0a:	0055c833          	xor	a6,a1,t0
    3f0e:	00187893          	andi	a7,a6,1
    3f12:	0056de13          	srli	t3,a3,0x5
    3f16:	0015d293          	srli	t0,a1,0x1
    3f1a:	00088b63          	beqz	a7,3f30 <crcu16+0xc2>
    3f1e:	7ee9                	lui	t4,0xffffa
    3f20:	001e8f13          	addi	t5,t4,1 # ffffa001 <__C_STACK_TOP__+0xfffea001>
    3f24:	01e2c7b3          	xor	a5,t0,t5
    3f28:	01079f93          	slli	t6,a5,0x10
    3f2c:	010fd293          	srli	t0,t6,0x10
    3f30:	01c2c633          	xor	a2,t0,t3
    3f34:	00167313          	andi	t1,a2,1
    3f38:	0066d713          	srli	a4,a3,0x6
    3f3c:	0012de13          	srli	t3,t0,0x1
    3f40:	00030b63          	beqz	t1,3f56 <crcu16+0xe8>
    3f44:	73e9                	lui	t2,0xffffa
    3f46:	00138593          	addi	a1,t2,1 # ffffa001 <__C_STACK_TOP__+0xfffea001>
    3f4a:	00be4833          	xor	a6,t3,a1
    3f4e:	01081893          	slli	a7,a6,0x10
    3f52:	0108de13          	srli	t3,a7,0x10
    3f56:	00ee4eb3          	xor	t4,t3,a4
    3f5a:	001eff13          	andi	t5,t4,1
    3f5e:	829d                	srli	a3,a3,0x7
    3f60:	001e5313          	srli	t1,t3,0x1
    3f64:	000f0b63          	beqz	t5,3f7a <crcu16+0x10c>
    3f68:	7fe9                	lui	t6,0xffffa
    3f6a:	001f8293          	addi	t0,t6,1 # ffffa001 <__C_STACK_TOP__+0xfffea001>
    3f6e:	005347b3          	xor	a5,t1,t0
    3f72:	01079613          	slli	a2,a5,0x10
    3f76:	01065313          	srli	t1,a2,0x10
    3f7a:	00137713          	andi	a4,t1,1
    3f7e:	00135e13          	srli	t3,t1,0x1
    3f82:	00d70b63          	beq	a4,a3,3f98 <crcu16+0x12a>
    3f86:	73e9                	lui	t2,0xffffa
    3f88:	00138593          	addi	a1,t2,1 # ffffa001 <__C_STACK_TOP__+0xfffea001>
    3f8c:	00be4833          	xor	a6,t3,a1
    3f90:	01081893          	slli	a7,a6,0x10
    3f94:	0108de13          	srli	t3,a7,0x10
    3f98:	8121                	srli	a0,a0,0x8
    3f9a:	01c54eb3          	xor	t4,a0,t3
    3f9e:	0ff57f13          	andi	t5,a0,255
    3fa2:	001eff93          	andi	t6,t4,1
    3fa6:	001f5693          	srli	a3,t5,0x1
    3faa:	001e5713          	srli	a4,t3,0x1
    3fae:	000f8b63          	beqz	t6,3fc4 <crcu16+0x156>
    3fb2:	72e9                	lui	t0,0xffffa
    3fb4:	00128793          	addi	a5,t0,1 # ffffa001 <__C_STACK_TOP__+0xfffea001>
    3fb8:	00f74633          	xor	a2,a4,a5
    3fbc:	01061313          	slli	t1,a2,0x10
    3fc0:	01035713          	srli	a4,t1,0x10
    3fc4:	00e6c3b3          	xor	t2,a3,a4
    3fc8:	0013f593          	andi	a1,t2,1
    3fcc:	002f5813          	srli	a6,t5,0x2
    3fd0:	00175f93          	srli	t6,a4,0x1
    3fd4:	c991                	beqz	a1,3fe8 <crcu16+0x17a>
    3fd6:	78e9                	lui	a7,0xffffa
    3fd8:	00188e13          	addi	t3,a7,1 # ffffa001 <__C_STACK_TOP__+0xfffea001>
    3fdc:	01cfc533          	xor	a0,t6,t3
    3fe0:	01051e93          	slli	t4,a0,0x10
    3fe4:	010edf93          	srli	t6,t4,0x10
    3fe8:	010fc6b3          	xor	a3,t6,a6
    3fec:	0016f293          	andi	t0,a3,1
    3ff0:	003f5613          	srli	a2,t5,0x3
    3ff4:	001fd593          	srli	a1,t6,0x1
    3ff8:	00028b63          	beqz	t0,400e <crcu16+0x1a0>
    3ffc:	77e9                	lui	a5,0xffffa
    3ffe:	00178313          	addi	t1,a5,1 # ffffa001 <__C_STACK_TOP__+0xfffea001>
    4002:	0065c733          	xor	a4,a1,t1
    4006:	01071393          	slli	t2,a4,0x10
    400a:	0103d593          	srli	a1,t2,0x10
    400e:	00c5c833          	xor	a6,a1,a2
    4012:	00187893          	andi	a7,a6,1
    4016:	004f5e13          	srli	t3,t5,0x4
    401a:	0015d293          	srli	t0,a1,0x1
    401e:	00088b63          	beqz	a7,4034 <crcu16+0x1c6>
    4022:	7ee9                	lui	t4,0xffffa
    4024:	001e8f93          	addi	t6,t4,1 # ffffa001 <__C_STACK_TOP__+0xfffea001>
    4028:	01f2c533          	xor	a0,t0,t6
    402c:	01051693          	slli	a3,a0,0x10
    4030:	0106d293          	srli	t0,a3,0x10
    4034:	01c2c633          	xor	a2,t0,t3
    4038:	00167793          	andi	a5,a2,1
    403c:	005f5313          	srli	t1,t5,0x5
    4040:	0012d893          	srli	a7,t0,0x1
    4044:	cb91                	beqz	a5,4058 <crcu16+0x1ea>
    4046:	7769                	lui	a4,0xffffa
    4048:	00170393          	addi	t2,a4,1 # ffffa001 <__C_STACK_TOP__+0xfffea001>
    404c:	0078c5b3          	xor	a1,a7,t2
    4050:	01059813          	slli	a6,a1,0x10
    4054:	01085893          	srli	a7,a6,0x10
    4058:	0068ce33          	xor	t3,a7,t1
    405c:	001e7e93          	andi	t4,t3,1
    4060:	006f5f93          	srli	t6,t5,0x6
    4064:	0018d313          	srli	t1,a7,0x1
    4068:	000e8b63          	beqz	t4,407e <crcu16+0x210>
    406c:	76e9                	lui	a3,0xffffa
    406e:	00168293          	addi	t0,a3,1 # ffffa001 <__C_STACK_TOP__+0xfffea001>
    4072:	00534533          	xor	a0,t1,t0
    4076:	01051613          	slli	a2,a0,0x10
    407a:	01065313          	srli	t1,a2,0x10
    407e:	01f347b3          	xor	a5,t1,t6
    4082:	0017f393          	andi	t2,a5,1
    4086:	007f5f13          	srli	t5,t5,0x7
    408a:	00135e13          	srli	t3,t1,0x1
    408e:	00038b63          	beqz	t2,40a4 <crcu16+0x236>
    4092:	7769                	lui	a4,0xffffa
    4094:	00170593          	addi	a1,a4,1 # ffffa001 <__C_STACK_TOP__+0xfffea001>
    4098:	00be4833          	xor	a6,t3,a1
    409c:	01081893          	slli	a7,a6,0x10
    40a0:	0108de13          	srli	t3,a7,0x10
    40a4:	001e7e93          	andi	t4,t3,1
    40a8:	001e5513          	srli	a0,t3,0x1
    40ac:	01ee8a63          	beq	t4,t5,40c0 <crcu16+0x252>
    40b0:	7fe9                	lui	t6,0xffffa
    40b2:	001f8693          	addi	a3,t6,1 # ffffa001 <__C_STACK_TOP__+0xfffea001>
    40b6:	00d542b3          	xor	t0,a0,a3
    40ba:	01029513          	slli	a0,t0,0x10
    40be:	8141                	srli	a0,a0,0x10
    40c0:	8082                	ret

000040c2 <crcu32>:
    40c2:	1141                	addi	sp,sp,-16
    40c4:	c422                	sw	s0,8(sp)
    40c6:	842a                	mv	s0,a0
    40c8:	0542                	slli	a0,a0,0x10
    40ca:	8141                	srli	a0,a0,0x10
    40cc:	c606                	sw	ra,12(sp)
    40ce:	3345                	jal	3e6e <crcu16>
    40d0:	85aa                	mv	a1,a0
    40d2:	01045513          	srli	a0,s0,0x10
    40d6:	4422                	lw	s0,8(sp)
    40d8:	40b2                	lw	ra,12(sp)
    40da:	0141                	addi	sp,sp,16
    40dc:	bb49                	j	3e6e <crcu16>

000040de <crc16>:
    40de:	0542                	slli	a0,a0,0x10
    40e0:	8141                	srli	a0,a0,0x10
    40e2:	b371                	j	3e6e <crcu16>

000040e4 <core_init_state>:
    40e4:	0585                	addi	a1,a1,1
    40e6:	4781                	li	a5,0
    40e8:	4681                	li	a3,0
    40ea:	01059293          	slli	t0,a1,0x10
    40ee:	00f68733          	add	a4,a3,a5
    40f2:	0102d593          	srli	a1,t0,0x10
    40f6:	6319                	lui	t1,0x6
    40f8:	6e19                	lui	t3,0x6
    40fa:	fff50893          	addi	a7,a0,-1
    40fe:	00170293          	addi	t0,a4,1
    4102:	4f81                	li	t6,0
    4104:	4811                	li	a6,4
    4106:	02c00e93          	li	t4,44
    410a:	4f21                	li	t5,8
    410c:	9e430313          	addi	t1,t1,-1564 # 59e4 <intpat>
    4110:	9d0e0e13          	addi	t3,t3,-1584 # 59d0 <state_known_crc+0x24>
    4114:	0512fa63          	bgeu	t0,a7,4168 <core_init_state+0x84>
    4118:	e7e5                	bnez	a5,4200 <core_init_state+0x11c>
    411a:	0075f293          	andi	t0,a1,7
    411e:	ffd28793          	addi	a5,t0,-3
    4122:	01079f93          	slli	t6,a5,0x10
    4126:	0035d393          	srli	t2,a1,0x3
    412a:	010fd293          	srli	t0,t6,0x10
    412e:	0033f713          	andi	a4,t2,3
    4132:	12586e63          	bltu	a6,t0,426e <core_init_state+0x18a>
    4136:	00229793          	slli	a5,t0,0x2
    413a:	01c783b3          	add	t2,a5,t3
    413e:	0003af83          	lw	t6,0(t2)
    4142:	00271293          	slli	t0,a4,0x2
    4146:	00530733          	add	a4,t1,t0
    414a:	8f82                	jr	t6
    414c:	01072f83          	lw	t6,16(a4)
    4150:	47a1                	li	a5,8
    4152:	0585                	addi	a1,a1,1
    4154:	01059713          	slli	a4,a1,0x10
    4158:	01075593          	srli	a1,a4,0x10
    415c:	00f68733          	add	a4,a3,a5
    4160:	00170293          	addi	t0,a4,1
    4164:	fb12eae3          	bltu	t0,a7,4118 <core_init_state+0x34>
    4168:	00d607b3          	add	a5,a2,a3
    416c:	962a                	add	a2,a2,a0
    416e:	08a6f063          	bgeu	a3,a0,41ee <core_init_state+0x10a>
    4172:	40f603b3          	sub	t2,a2,a5
    4176:	0073f513          	andi	a0,t2,7
    417a:	c539                	beqz	a0,41c8 <core_init_state+0xe4>
    417c:	4685                	li	a3,1
    417e:	04d50063          	beq	a0,a3,41be <core_init_state+0xda>
    4182:	4809                	li	a6,2
    4184:	03050a63          	beq	a0,a6,41b8 <core_init_state+0xd4>
    4188:	488d                	li	a7,3
    418a:	03150463          	beq	a0,a7,41b2 <core_init_state+0xce>
    418e:	4e91                	li	t4,4
    4190:	01d50e63          	beq	a0,t4,41ac <core_init_state+0xc8>
    4194:	4f15                	li	t5,5
    4196:	01e50863          	beq	a0,t5,41a6 <core_init_state+0xc2>
    419a:	4f99                	li	t6,6
    419c:	0ff51163          	bne	a0,t6,427e <core_init_state+0x19a>
    41a0:	00078023          	sb	zero,0(a5)
    41a4:	0785                	addi	a5,a5,1
    41a6:	00078023          	sb	zero,0(a5)
    41aa:	0785                	addi	a5,a5,1
    41ac:	00078023          	sb	zero,0(a5)
    41b0:	0785                	addi	a5,a5,1
    41b2:	00078023          	sb	zero,0(a5)
    41b6:	0785                	addi	a5,a5,1
    41b8:	00078023          	sb	zero,0(a5)
    41bc:	0785                	addi	a5,a5,1
    41be:	00078023          	sb	zero,0(a5)
    41c2:	0785                	addi	a5,a5,1
    41c4:	0cc78163          	beq	a5,a2,4286 <core_init_state+0x1a2>
    41c8:	00078023          	sb	zero,0(a5)
    41cc:	000780a3          	sb	zero,1(a5)
    41d0:	00078123          	sb	zero,2(a5)
    41d4:	000781a3          	sb	zero,3(a5)
    41d8:	00078223          	sb	zero,4(a5)
    41dc:	000782a3          	sb	zero,5(a5)
    41e0:	00078323          	sb	zero,6(a5)
    41e4:	000783a3          	sb	zero,7(a5)
    41e8:	07a1                	addi	a5,a5,8
    41ea:	fcc79fe3          	bne	a5,a2,41c8 <core_init_state+0xe4>
    41ee:	8082                	ret
    41f0:	02072f83          	lw	t6,32(a4)
    41f4:	47a1                	li	a5,8
    41f6:	bfb1                	j	4152 <core_init_state+0x6e>
    41f8:	03072f83          	lw	t6,48(a4)
    41fc:	47a1                	li	a5,8
    41fe:	bf91                	j	4152 <core_init_state+0x6e>
    4200:	000fc383          	lbu	t2,0(t6)
    4204:	96b2                	add	a3,a3,a2
    4206:	00768023          	sb	t2,0(a3)
    420a:	001fc383          	lbu	t2,1(t6)
    420e:	007680a3          	sb	t2,1(a3)
    4212:	002fc383          	lbu	t2,2(t6)
    4216:	00768123          	sb	t2,2(a3)
    421a:	003fc383          	lbu	t2,3(t6)
    421e:	007681a3          	sb	t2,3(a3)
    4222:	03078463          	beq	a5,a6,424a <core_init_state+0x166>
    4226:	004fc383          	lbu	t2,4(t6)
    422a:	00768223          	sb	t2,4(a3)
    422e:	005fc383          	lbu	t2,5(t6)
    4232:	007682a3          	sb	t2,5(a3)
    4236:	006fc383          	lbu	t2,6(t6)
    423a:	00768323          	sb	t2,6(a3)
    423e:	01e79663          	bne	a5,t5,424a <core_init_state+0x166>
    4242:	007fcf83          	lbu	t6,7(t6)
    4246:	01f683a3          	sb	t6,7(a3)
    424a:	8696                	mv	a3,t0
    424c:	0075f293          	andi	t0,a1,7
    4250:	ffd28793          	addi	a5,t0,-3
    4254:	9732                	add	a4,a4,a2
    4256:	01079f93          	slli	t6,a5,0x10
    425a:	01d70023          	sb	t4,0(a4)
    425e:	0035d393          	srli	t2,a1,0x3
    4262:	010fd293          	srli	t0,t6,0x10
    4266:	0033f713          	andi	a4,t2,3
    426a:	ec5876e3          	bgeu	a6,t0,4136 <core_init_state+0x52>
    426e:	00271393          	slli	t2,a4,0x2
    4272:	007302b3          	add	t0,t1,t2
    4276:	0002af83          	lw	t6,0(t0)
    427a:	4791                	li	a5,4
    427c:	bdd9                	j	4152 <core_init_state+0x6e>
    427e:	00078023          	sb	zero,0(a5)
    4282:	0785                	addi	a5,a5,1
    4284:	bf31                	j	41a0 <core_init_state+0xbc>
    4286:	8082                	ret

00004288 <core_state_transition>:
    4288:	411c                	lw	a5,0(a0)
    428a:	0007c683          	lbu	a3,0(a5)
    428e:	26068663          	beqz	a3,44fa <core_state_transition+0x272>
    4292:	02c00813          	li	a6,44
    4296:	00178713          	addi	a4,a5,1
    429a:	25068663          	beq	a3,a6,44e6 <core_state_transition+0x25e>
    429e:	0005a883          	lw	a7,0(a1)
    42a2:	fd068613          	addi	a2,a3,-48
    42a6:	0ff67293          	andi	t0,a2,255
    42aa:	4325                	li	t1,9
    42ac:	00188393          	addi	t2,a7,1
    42b0:	0a536163          	bltu	t1,t0,4352 <core_state_transition+0xca>
    42b4:	0075a023          	sw	t2,0(a1)
    42b8:	0017c303          	lbu	t1,1(a5)
    42bc:	12030763          	beqz	t1,43ea <core_state_transition+0x162>
    42c0:	00278e13          	addi	t3,a5,2
    42c4:	13030263          	beq	t1,a6,43e8 <core_state_transition+0x160>
    42c8:	fd030613          	addi	a2,t1,-48
    42cc:	02e00f13          	li	t5,46
    42d0:	4fa5                	li	t6,9
    42d2:	02c00893          	li	a7,44
    42d6:	0ff67813          	andi	a6,a2,255
    42da:	03e30463          	beq	t1,t5,4302 <core_state_transition+0x7a>
    42de:	0b0fe163          	bltu	t6,a6,4380 <core_state_transition+0xf8>
    42e2:	00174303          	lbu	t1,1(a4)
    42e6:	001e0393          	addi	t2,t3,1
    42ea:	8772                	mv	a4,t3
    42ec:	0e030e63          	beqz	t1,43e8 <core_state_transition+0x160>
    42f0:	23130063          	beq	t1,a7,4510 <core_state_transition+0x288>
    42f4:	fd030613          	addi	a2,t1,-48
    42f8:	8e1e                	mv	t3,t2
    42fa:	0ff67813          	andi	a6,a2,255
    42fe:	ffe310e3          	bne	t1,t5,42de <core_state_transition+0x56>
    4302:	499c                	lw	a5,16(a1)
    4304:	00178e93          	addi	t4,a5,1
    4308:	01d5a823          	sw	t4,16(a1)
    430c:	00174383          	lbu	t2,1(a4)
    4310:	1e038d63          	beqz	t2,450a <core_state_transition+0x282>
    4314:	02c00713          	li	a4,44
    4318:	001e0e93          	addi	t4,t3,1
    431c:	1ce38263          	beq	t2,a4,44e0 <core_state_transition+0x258>
    4320:	04500f13          	li	t5,69
    4324:	4fa5                	li	t6,9
    4326:	02c00893          	li	a7,44
    432a:	fd038813          	addi	a6,t2,-48
    432e:	0df3f693          	andi	a3,t2,223
    4332:	0ff87293          	andi	t0,a6,255
    4336:	0be68c63          	beq	a3,t5,43ee <core_state_transition+0x166>
    433a:	165ff063          	bgeu	t6,t0,449a <core_state_transition+0x212>
    433e:	0145a303          	lw	t1,20(a1)
    4342:	8776                	mv	a4,t4
    4344:	4385                	li	t2,1
    4346:	00130613          	addi	a2,t1,1
    434a:	c9d0                	sw	a2,20(a1)
    434c:	c118                	sw	a4,0(a0)
    434e:	851e                	mv	a0,t2
    4350:	8082                	ret
    4352:	02b00e13          	li	t3,43
    4356:	03c68f63          	beq	a3,t3,4394 <core_state_transition+0x10c>
    435a:	02d00e93          	li	t4,45
    435e:	03d68b63          	beq	a3,t4,4394 <core_state_transition+0x10c>
    4362:	02e00f13          	li	t5,46
    4366:	15e68563          	beq	a3,t5,44b0 <core_state_transition+0x228>
    436a:	0045af83          	lw	t6,4(a1)
    436e:	0075a023          	sw	t2,0(a1)
    4372:	4385                	li	t2,1
    4374:	001f8693          	addi	a3,t6,1
    4378:	c1d4                	sw	a3,4(a1)
    437a:	c118                	sw	a4,0(a0)
    437c:	851e                	mv	a0,t2
    437e:	8082                	ret
    4380:	4994                	lw	a3,16(a1)
    4382:	8772                	mv	a4,t3
    4384:	4385                	li	t2,1
    4386:	00168293          	addi	t0,a3,1
    438a:	0055a823          	sw	t0,16(a1)
    438e:	c118                	sw	a4,0(a0)
    4390:	851e                	mv	a0,t2
    4392:	8082                	ret
    4394:	0075a023          	sw	t2,0(a1)
    4398:	0017c883          	lbu	a7,1(a5)
    439c:	16088263          	beqz	a7,4500 <core_state_transition+0x278>
    43a0:	00278713          	addi	a4,a5,2
    43a4:	15088e63          	beq	a7,a6,4500 <core_state_transition+0x278>
    43a8:	4590                	lw	a2,8(a1)
    43aa:	fd088813          	addi	a6,a7,-48
    43ae:	0ff87293          	andi	t0,a6,255
    43b2:	4325                	li	t1,9
    43b4:	00160393          	addi	t2,a2,1
    43b8:	00537c63          	bgeu	t1,t0,43d0 <core_state_transition+0x148>
    43bc:	02e00e13          	li	t3,46
    43c0:	11c88463          	beq	a7,t3,44c8 <core_state_transition+0x240>
    43c4:	0075a423          	sw	t2,8(a1)
    43c8:	4385                	li	t2,1
    43ca:	c118                	sw	a4,0(a0)
    43cc:	851e                	mv	a0,t2
    43ce:	8082                	ret
    43d0:	0075a423          	sw	t2,8(a1)
    43d4:	0027c303          	lbu	t1,2(a5)
    43d8:	00030963          	beqz	t1,43ea <core_state_transition+0x162>
    43dc:	02c00e93          	li	t4,44
    43e0:	00170e13          	addi	t3,a4,1
    43e4:	efd312e3          	bne	t1,t4,42c8 <core_state_transition+0x40>
    43e8:	8772                	mv	a4,t3
    43ea:	4391                	li	t2,4
    43ec:	b74d                	j	438e <core_state_transition+0x106>
    43ee:	49dc                	lw	a5,20(a1)
    43f0:	00178713          	addi	a4,a5,1
    43f4:	c9d8                	sw	a4,20(a1)
    43f6:	001e4e03          	lbu	t3,1(t3)
    43fa:	0e0e0d63          	beqz	t3,44f4 <core_state_transition+0x26c>
    43fe:	02c00f13          	li	t5,44
    4402:	001e8713          	addi	a4,t4,1
    4406:	0fee0863          	beq	t3,t5,44f6 <core_state_transition+0x26e>
    440a:	00c5af83          	lw	t6,12(a1)
    440e:	fd5e0893          	addi	a7,t3,-43
    4412:	0fd8f813          	andi	a6,a7,253
    4416:	001f8693          	addi	a3,t6,1
    441a:	c5d4                	sw	a3,12(a1)
    441c:	00080663          	beqz	a6,4428 <core_state_transition+0x1a0>
    4420:	4385                	li	t2,1
    4422:	c118                	sw	a4,0(a0)
    4424:	851e                	mv	a0,t2
    4426:	8082                	ret
    4428:	001ec283          	lbu	t0,1(t4)
    442c:	0c028263          	beqz	t0,44f0 <core_state_transition+0x268>
    4430:	002e8713          	addi	a4,t4,2
    4434:	0be28e63          	beq	t0,t5,44f0 <core_state_transition+0x268>
    4438:	0185a303          	lw	t1,24(a1)
    443c:	fd028613          	addi	a2,t0,-48
    4440:	0ff67393          	andi	t2,a2,255
    4444:	00130e13          	addi	t3,t1,1
    4448:	47a5                	li	a5,9
    444a:	01c5ac23          	sw	t3,24(a1)
    444e:	fc77e9e3          	bltu	a5,t2,4420 <core_state_transition+0x198>
    4452:	002ec283          	lbu	t0,2(t4)
    4456:	08028b63          	beqz	t0,44ec <core_state_transition+0x264>
    445a:	003e8613          	addi	a2,t4,3
    445e:	09e28663          	beq	t0,t5,44ea <core_state_transition+0x262>
    4462:	4ea5                	li	t4,9
    4464:	02c00f13          	li	t5,44
    4468:	fd028f93          	addi	t6,t0,-48
    446c:	0ffff893          	andi	a7,t6,255
    4470:	011efa63          	bgeu	t4,a7,4484 <core_state_transition+0x1fc>
    4474:	0045a803          	lw	a6,4(a1)
    4478:	8732                	mv	a4,a2
    447a:	4385                	li	t2,1
    447c:	00180693          	addi	a3,a6,1
    4480:	c1d4                	sw	a3,4(a1)
    4482:	b731                	j	438e <core_state_transition+0x106>
    4484:	00174283          	lbu	t0,1(a4)
    4488:	00160313          	addi	t1,a2,1
    448c:	8732                	mv	a4,a2
    448e:	04028e63          	beqz	t0,44ea <core_state_transition+0x262>
    4492:	07e28963          	beq	t0,t5,4504 <core_state_transition+0x27c>
    4496:	861a                	mv	a2,t1
    4498:	bfc1                	j	4468 <core_state_transition+0x1e0>
    449a:	001e4383          	lbu	t2,1(t3)
    449e:	001e8713          	addi	a4,t4,1
    44a2:	8e76                	mv	t3,t4
    44a4:	02038e63          	beqz	t2,44e0 <core_state_transition+0x258>
    44a8:	03138d63          	beq	t2,a7,44e2 <core_state_transition+0x25a>
    44ac:	8eba                	mv	t4,a4
    44ae:	bdb5                	j	432a <core_state_transition+0xa2>
    44b0:	0075a023          	sw	t2,0(a1)
    44b4:	0017c383          	lbu	t2,1(a5)
    44b8:	02038563          	beqz	t2,44e2 <core_state_transition+0x25a>
    44bc:	00278e93          	addi	t4,a5,2
    44c0:	03038063          	beq	t2,a6,44e0 <core_state_transition+0x258>
    44c4:	8e3a                	mv	t3,a4
    44c6:	bda9                	j	4320 <core_state_transition+0x98>
    44c8:	0075a423          	sw	t2,8(a1)
    44cc:	0027c383          	lbu	t2,2(a5)
    44d0:	00038963          	beqz	t2,44e2 <core_state_transition+0x25a>
    44d4:	02c00793          	li	a5,44
    44d8:	00170e93          	addi	t4,a4,1
    44dc:	fef394e3          	bne	t2,a5,44c4 <core_state_transition+0x23c>
    44e0:	8776                	mv	a4,t4
    44e2:	4395                	li	t2,5
    44e4:	b56d                	j	438e <core_state_transition+0x106>
    44e6:	4381                	li	t2,0
    44e8:	b55d                	j	438e <core_state_transition+0x106>
    44ea:	8732                	mv	a4,a2
    44ec:	439d                	li	t2,7
    44ee:	b545                	j	438e <core_state_transition+0x106>
    44f0:	4399                	li	t2,6
    44f2:	bd71                	j	438e <core_state_transition+0x106>
    44f4:	8776                	mv	a4,t4
    44f6:	438d                	li	t2,3
    44f8:	bd59                	j	438e <core_state_transition+0x106>
    44fa:	873e                	mv	a4,a5
    44fc:	4381                	li	t2,0
    44fe:	bd41                	j	438e <core_state_transition+0x106>
    4500:	4389                	li	t2,2
    4502:	b571                	j	438e <core_state_transition+0x106>
    4504:	871a                	mv	a4,t1
    4506:	439d                	li	t2,7
    4508:	b559                	j	438e <core_state_transition+0x106>
    450a:	8772                	mv	a4,t3
    450c:	4395                	li	t2,5
    450e:	b541                	j	438e <core_state_transition+0x106>
    4510:	871e                	mv	a4,t2
    4512:	4391                	li	t2,4
    4514:	bdad                	j	438e <core_state_transition+0x106>

00004516 <core_bench_state>:
    4516:	7119                	addi	sp,sp,-128
    4518:	dca2                	sw	s0,120(sp)
    451a:	d6ce                	sw	s3,108(sp)
    451c:	d4d2                	sw	s4,104(sp)
