
/home/xxxx/github/scr1/build/dhrystone21.elf:     file format elf32-littleriscv


Disassembly of section .text.init:

00000000 <SIM_EXIT-0xf4>:
	...

000000f4 <SIM_EXIT>:
  f4:	00000013          	nop

000000f8 <SIM_STOP>:
  f8:	0000006f          	j	f8 <SIM_STOP>
  fc:	ffff                	0xffff
  fe:	ffff                	0xffff

Disassembly of section .text:

00000100 <machine_trap_entry-0xc0>:
	...

000001c0 <machine_trap_entry>:
     1c0:	0a20006f          	j	262 <trap_entry>
     1c4:	00000013          	nop
     1c8:	00000013          	nop
     1cc:	00000013          	nop
     1d0:	00000013          	nop
     1d4:	00000013          	nop
     1d8:	00000013          	nop
     1dc:	00000013          	nop
     1e0:	00000013          	nop
     1e4:	00000013          	nop
     1e8:	00000013          	nop
     1ec:	00000013          	nop
     1f0:	00000013          	nop
     1f4:	00000013          	nop
     1f8:	00000013          	nop
     1fc:	00000013          	nop

00000200 <_start>:
     200:	00003597          	auipc	a1,0x3
     204:	38058593          	addi	a1,a1,896 # 3580 <__BSS_START__>
     208:	00006617          	auipc	a2,0x6
     20c:	bf860613          	addi	a2,a2,-1032 # 5e00 <__BSS_END__>
     210:	a021                	j	218 <_start+0x18>
     212:	0005a023          	sw	zero,0(a1)
     216:	0591                	addi	a1,a1,4
     218:	fec59de3          	bne	a1,a2,212 <_start+0x12>
     21c:	6191                	lui	gp,0x4
     21e:	d6018193          	addi	gp,gp,-672 # 3d60 <_gp>
     222:	00010117          	auipc	sp,0x10
     226:	dde10113          	addi	sp,sp,-546 # 10000 <__C_STACK_TOP__>
     22a:	004902b7          	lui	t0,0x490
     22e:	4305                	li	t1,1
     230:	0062a023          	sw	t1,0(t0) # 490000 <__C_STACK_TOP__+0x480000>
     234:	004902b7          	lui	t0,0x490
     238:	00428293          	addi	t0,t0,4 # 490004 <__C_STACK_TOP__+0x480004>
     23c:	06300313          	li	t1,99
     240:	0062a023          	sw	t1,0(t0)
     244:	004902b7          	lui	t0,0x490
     248:	01028293          	addi	t0,t0,16 # 490010 <__C_STACK_TOP__+0x480010>
     24c:	537d                	li	t1,-1
     24e:	0062a023          	sw	t1,0(t0)
     252:	0062a223          	sw	t1,4(t0)
     256:	4501                	li	a0,0
     258:	4581                	li	a1,0
     25a:	217000ef          	jal	ra,c70 <main>
     25e:	0960006f          	j	2f4 <handle_trap>

00000262 <trap_entry>:
     262:	716d                	addi	sp,sp,-272
     264:	c206                	sw	ra,4(sp)
     266:	c40a                	sw	sp,8(sp)
     268:	c60e                	sw	gp,12(sp)
     26a:	c812                	sw	tp,16(sp)
     26c:	ca16                	sw	t0,20(sp)
     26e:	cc1a                	sw	t1,24(sp)
     270:	ce1e                	sw	t2,28(sp)
     272:	d022                	sw	s0,32(sp)
     274:	d226                	sw	s1,36(sp)
     276:	d42a                	sw	a0,40(sp)
     278:	d62e                	sw	a1,44(sp)
     27a:	d832                	sw	a2,48(sp)
     27c:	da36                	sw	a3,52(sp)
     27e:	dc3a                	sw	a4,56(sp)
     280:	de3e                	sw	a5,60(sp)
     282:	c0c2                	sw	a6,64(sp)
     284:	c2c6                	sw	a7,68(sp)
     286:	c4ca                	sw	s2,72(sp)
     288:	c6ce                	sw	s3,76(sp)
     28a:	c8d2                	sw	s4,80(sp)
     28c:	cad6                	sw	s5,84(sp)
     28e:	ccda                	sw	s6,88(sp)
     290:	cede                	sw	s7,92(sp)
     292:	d0e2                	sw	s8,96(sp)
     294:	d2e6                	sw	s9,100(sp)
     296:	d4ea                	sw	s10,104(sp)
     298:	d6ee                	sw	s11,108(sp)
     29a:	d8f2                	sw	t3,112(sp)
     29c:	daf6                	sw	t4,116(sp)
     29e:	dcfa                	sw	t5,120(sp)
     2a0:	defe                	sw	t6,124(sp)
     2a2:	34202573          	csrr	a0,mcause
     2a6:	341025f3          	csrr	a1,mepc
     2aa:	860a                	mv	a2,sp
     2ac:	048000ef          	jal	ra,2f4 <handle_trap>
     2b0:	4092                	lw	ra,4(sp)
     2b2:	4122                	lw	sp,8(sp)
     2b4:	41b2                	lw	gp,12(sp)
     2b6:	4242                	lw	tp,16(sp)
     2b8:	42d2                	lw	t0,20(sp)
     2ba:	4362                	lw	t1,24(sp)
     2bc:	43f2                	lw	t2,28(sp)
     2be:	5402                	lw	s0,32(sp)
     2c0:	5492                	lw	s1,36(sp)
     2c2:	5522                	lw	a0,40(sp)
     2c4:	55b2                	lw	a1,44(sp)
     2c6:	5642                	lw	a2,48(sp)
     2c8:	56d2                	lw	a3,52(sp)
     2ca:	5762                	lw	a4,56(sp)
     2cc:	57f2                	lw	a5,60(sp)
     2ce:	4806                	lw	a6,64(sp)
     2d0:	4896                	lw	a7,68(sp)
     2d2:	4926                	lw	s2,72(sp)
     2d4:	49b6                	lw	s3,76(sp)
     2d6:	4a46                	lw	s4,80(sp)
     2d8:	4ad6                	lw	s5,84(sp)
     2da:	4b66                	lw	s6,88(sp)
     2dc:	4bf6                	lw	s7,92(sp)
     2de:	5c06                	lw	s8,96(sp)
     2e0:	5c96                	lw	s9,100(sp)
     2e2:	5d26                	lw	s10,104(sp)
     2e4:	5db6                	lw	s11,108(sp)
     2e6:	5e46                	lw	t3,112(sp)
     2e8:	5ed6                	lw	t4,116(sp)
     2ea:	5f66                	lw	t5,120(sp)
     2ec:	5ff6                	lw	t6,124(sp)
     2ee:	6151                	addi	sp,sp,272
     2f0:	30200073          	mret

000002f4 <handle_trap>:
     2f4:	e01ff06f          	j	f4 <SIM_EXIT>
     2f8:	0000                	unimp
     2fa:	0000                	unimp
	...

000002fe <printf_putch>:
     2fe:	04022603          	lw	a2,64(tp) # 40 <buflen.1937>
     302:	00020293          	mv	t0,tp
     306:	00160593          	addi	a1,a2,1
     30a:	00c28333          	add	t1,t0,a2
     30e:	04b22023          	sw	a1,64(tp) # 40 <buflen.1937>
     312:	00a30023          	sb	a0,0(t1)
     316:	43a9                	li	t2,10
     318:	00750763          	beq	a0,t2,326 <printf_putch+0x28>
     31c:	04000513          	li	a0,64
     320:	00a58563          	beq	a1,a0,32a <printf_putch+0x2c>
     324:	8082                	ret
     326:	0eb05d63          	blez	a1,420 <STACK_SIZE+0x20>
     32a:	00020e13          	mv	t3,tp
     32e:	001e0793          	addi	a5,t3,1
     332:	fff7ce83          	lbu	t4,-1(a5)
     336:	fffe4f13          	not	t5,t3
     33a:	f0000fb7          	lui	t6,0xf0000
     33e:	01ee06b3          	add	a3,t3,t5
     342:	00b68633          	add	a2,a3,a1
     346:	01df8023          	sb	t4,0(t6) # f0000000 <__C_STACK_TOP__+0xefff0000>
     34a:	fff58713          	addi	a4,a1,-1
     34e:	00767293          	andi	t0,a2,7
     352:	0ce05763          	blez	a4,420 <STACK_SIZE+0x20>
     356:	06028e63          	beqz	t0,3d2 <printf_putch+0xd4>
     35a:	4305                	li	t1,1
     35c:	06628063          	beq	t0,t1,3bc <printf_putch+0xbe>
     360:	4389                	li	t2,2
     362:	04728863          	beq	t0,t2,3b2 <printf_putch+0xb4>
     366:	450d                	li	a0,3
     368:	04a28063          	beq	t0,a0,3a8 <printf_putch+0xaa>
     36c:	4891                	li	a7,4
     36e:	03128863          	beq	t0,a7,39e <printf_putch+0xa0>
     372:	4e95                	li	t4,5
     374:	03d28063          	beq	t0,t4,394 <printf_putch+0x96>
     378:	4f19                	li	t5,6
     37a:	01e28863          	beq	t0,t5,38a <printf_putch+0x8c>
     37e:	001e4683          	lbu	a3,1(t3)
     382:	002e0793          	addi	a5,t3,2
     386:	00df8023          	sb	a3,0(t6)
     38a:	0007c603          	lbu	a2,0(a5)
     38e:	0785                	addi	a5,a5,1
     390:	00cf8023          	sb	a2,0(t6)
     394:	0007c703          	lbu	a4,0(a5)
     398:	0785                	addi	a5,a5,1
     39a:	00ef8023          	sb	a4,0(t6)
     39e:	0007c283          	lbu	t0,0(a5)
     3a2:	0785                	addi	a5,a5,1
     3a4:	005f8023          	sb	t0,0(t6)
     3a8:	0007c303          	lbu	t1,0(a5)
     3ac:	0785                	addi	a5,a5,1
     3ae:	006f8023          	sb	t1,0(t6)
     3b2:	0007c383          	lbu	t2,0(a5)
     3b6:	0785                	addi	a5,a5,1
     3b8:	007f8023          	sb	t2,0(t6)
     3bc:	0785                	addi	a5,a5,1
     3be:	fff7c503          	lbu	a0,-1(a5)
     3c2:	40fe08b3          	sub	a7,t3,a5
     3c6:	00b88eb3          	add	t4,a7,a1
     3ca:	00af8023          	sb	a0,0(t6)
     3ce:	05d05963          	blez	t4,420 <STACK_SIZE+0x20>
     3d2:	0007cf03          	lbu	t5,0(a5)
     3d6:	07a1                	addi	a5,a5,8
     3d8:	40fe0533          	sub	a0,t3,a5
     3dc:	01ef8023          	sb	t5,0(t6)
     3e0:	ff97c683          	lbu	a3,-7(a5)
     3e4:	00b508b3          	add	a7,a0,a1
     3e8:	00df8023          	sb	a3,0(t6)
     3ec:	ffa7c603          	lbu	a2,-6(a5)
     3f0:	00cf8023          	sb	a2,0(t6)
     3f4:	ffb7c703          	lbu	a4,-5(a5)
     3f8:	00ef8023          	sb	a4,0(t6)
     3fc:	ffc7c283          	lbu	t0,-4(a5)
     400:	005f8023          	sb	t0,0(t6)
     404:	ffd7c303          	lbu	t1,-3(a5)
     408:	006f8023          	sb	t1,0(t6)
     40c:	ffe7c383          	lbu	t2,-2(a5)
     410:	007f8023          	sb	t2,0(t6)
     414:	fff7ce83          	lbu	t4,-1(a5)
     418:	01df8023          	sb	t4,0(t6)
     41c:	fb104be3          	bgtz	a7,3d2 <printf_putch+0xd4>
     420:	04022023          	sw	zero,64(tp) # 40 <buflen.1937>
     424:	8082                	ret

00000426 <vprintfmt.constprop.0>:
     426:	714d                	addi	sp,sp,-336
     428:	13612823          	sw	s6,304(sp)
     42c:	13812423          	sw	s8,296(sp)
     430:	6b09                	lui	s6,0x2
     432:	40000c37          	lui	s8,0x40000
     436:	14112623          	sw	ra,332(sp)
     43a:	06100793          	li	a5,97
     43e:	660b0093          	addi	ra,s6,1632 # 2660 <__umoddi3+0x42c>
     442:	fffc0293          	addi	t0,s8,-1 # 3fffffff <__C_STACK_TOP__+0x3ffeffff>
     446:	14812423          	sw	s0,328(sp)
     44a:	13712623          	sw	s7,300(sp)
     44e:	14912223          	sw	s1,324(sp)
     452:	15212023          	sw	s2,320(sp)
     456:	13312e23          	sw	s3,316(sp)
     45a:	13412c23          	sw	s4,312(sp)
     45e:	13512a23          	sw	s5,308(sp)
     462:	13912223          	sw	s9,292(sp)
     466:	13a12023          	sw	s10,288(sp)
     46a:	11b12e23          	sw	s11,284(sp)
     46e:	842a                	mv	s0,a0
     470:	8bae                	mv	s7,a1
     472:	c43e                	sw	a5,8(sp)
     474:	c206                	sw	ra,4(sp)
     476:	c616                	sw	t0,12(sp)
     478:	00044503          	lbu	a0,0(s0)
     47c:	02500313          	li	t1,37
     480:	00650c63          	beq	a0,t1,498 <vprintfmt.constprop.0+0x72>
     484:	c539                	beqz	a0,4d2 <vprintfmt.constprop.0+0xac>
     486:	4581                	li	a1,0
     488:	3d9d                	jal	2fe <printf_putch>
     48a:	0405                	addi	s0,s0,1
     48c:	00044503          	lbu	a0,0(s0)
     490:	02500313          	li	t1,37
     494:	fe6518e3          	bne	a0,t1,484 <vprintfmt.constprop.0+0x5e>
     498:	00144903          	lbu	s2,1(s0)
     49c:	00140493          	addi	s1,s0,1
     4a0:	8b26                	mv	s6,s1
     4a2:	02000993          	li	s3,32
     4a6:	5dfd                	li	s11,-1
     4a8:	5a7d                	li	s4,-1
     4aa:	4681                	li	a3,0
     4ac:	05500593          	li	a1,85
     4b0:	4725                	li	a4,9
     4b2:	fdd90393          	addi	t2,s2,-35
     4b6:	0ff3f613          	andi	a2,t2,255
     4ba:	001b0413          	addi	s0,s6,1
     4be:	52c5eb63          	bltu	a1,a2,9f4 <vprintfmt.constprop.0+0x5ce>
     4c2:	4a92                	lw	s5,4(sp)
     4c4:	00261893          	slli	a7,a2,0x2
     4c8:	01588cb3          	add	s9,a7,s5
     4cc:	000cad03          	lw	s10,0(s9)
     4d0:	8d02                	jr	s10
     4d2:	14c12083          	lw	ra,332(sp)
     4d6:	14812403          	lw	s0,328(sp)
     4da:	14412483          	lw	s1,324(sp)
     4de:	14012903          	lw	s2,320(sp)
     4e2:	13c12983          	lw	s3,316(sp)
     4e6:	13812a03          	lw	s4,312(sp)
     4ea:	13412a83          	lw	s5,308(sp)
     4ee:	13012b03          	lw	s6,304(sp)
     4f2:	12c12b83          	lw	s7,300(sp)
     4f6:	12812c03          	lw	s8,296(sp)
     4fa:	12412c83          	lw	s9,292(sp)
     4fe:	12012d03          	lw	s10,288(sp)
     502:	11c12d83          	lw	s11,284(sp)
     506:	6171                	addi	sp,sp,336
     508:	8082                	ret
     50a:	89ca                	mv	s3,s2
     50c:	001b4903          	lbu	s2,1(s6)
     510:	8b22                	mv	s6,s0
     512:	b745                	j	4b2 <vprintfmt.constprop.0+0x8c>
     514:	4929                	li	s2,10
     516:	4a81                	li	s5,0
     518:	4305                	li	t1,1
     51a:	32d35d63          	bge	t1,a3,854 <vprintfmt.constprop.0+0x42e>
     51e:	0b9d                	addi	s7,s7,7
     520:	ff8bf613          	andi	a2,s7,-8
     524:	00062c83          	lw	s9,0(a2)
     528:	00462b03          	lw	s6,4(a2)
     52c:	00860b93          	addi	s7,a2,8
     530:	864a                	mv	a2,s2
     532:	4681                	li	a3,0
     534:	8566                	mv	a0,s9
     536:	85da                	mv	a1,s6
     538:	4fd010ef          	jal	ra,2234 <__umoddi3>
     53c:	c82a                	sw	a0,16(sp)
     53e:	8daa                	mv	s11,a0
     540:	4d6a8063          	beq	s5,s6,a00 <vprintfmt.constprop.0+0x5da>
     544:	01410d13          	addi	s10,sp,20
     548:	4485                	li	s1,1
     54a:	864a                	mv	a2,s2
     54c:	4681                	li	a3,0
     54e:	8566                	mv	a0,s9
     550:	85da                	mv	a1,s6
     552:	0af010ef          	jal	ra,1e00 <__udivdi3>
     556:	864a                	mv	a2,s2
     558:	4681                	li	a3,0
     55a:	8caa                	mv	s9,a0
     55c:	8b2e                	mv	s6,a1
     55e:	4d7010ef          	jal	ra,2234 <__umoddi3>
     562:	00ad2023          	sw	a0,0(s10)
     566:	8daa                	mv	s11,a0
     568:	00148c13          	addi	s8,s1,1
     56c:	0d11                	addi	s10,s10,4
     56e:	016a8463          	beq	s5,s6,576 <vprintfmt.constprop.0+0x150>
     572:	84e2                	mv	s1,s8
     574:	bfd9                	j	54a <vprintfmt.constprop.0+0x124>
     576:	ff2cfee3          	bgeu	s9,s2,572 <vprintfmt.constprop.0+0x14c>
     57a:	0b4c5d63          	bge	s8,s4,634 <vprintfmt.constprop.0+0x20e>
     57e:	fffc4513          	not	a0,s8
     582:	014506b3          	add	a3,a0,s4
     586:	fffa0913          	addi	s2,s4,-1
     58a:	4581                	li	a1,0
     58c:	854e                	mv	a0,s3
     58e:	0076fa93          	andi	s5,a3,7
     592:	33b5                	jal	2fe <printf_putch>
     594:	0b2c5063          	bge	s8,s2,634 <vprintfmt.constprop.0+0x20e>
     598:	060a8363          	beqz	s5,5fe <vprintfmt.constprop.0+0x1d8>
     59c:	4585                	li	a1,1
     59e:	04ba8a63          	beq	s5,a1,5f2 <vprintfmt.constprop.0+0x1cc>
     5a2:	4809                	li	a6,2
     5a4:	050a8363          	beq	s5,a6,5ea <vprintfmt.constprop.0+0x1c4>
     5a8:	470d                	li	a4,3
     5aa:	02ea8c63          	beq	s5,a4,5e2 <vprintfmt.constprop.0+0x1bc>
     5ae:	4e11                	li	t3,4
     5b0:	03ca8563          	beq	s5,t3,5da <vprintfmt.constprop.0+0x1b4>
     5b4:	4e95                	li	t4,5
     5b6:	01da8e63          	beq	s5,t4,5d2 <vprintfmt.constprop.0+0x1ac>
     5ba:	4f19                	li	t5,6
     5bc:	01ea8763          	beq	s5,t5,5ca <vprintfmt.constprop.0+0x1a4>
     5c0:	4581                	li	a1,0
     5c2:	854e                	mv	a0,s3
     5c4:	3b2d                	jal	2fe <printf_putch>
     5c6:	ffea0913          	addi	s2,s4,-2
     5ca:	4581                	li	a1,0
     5cc:	854e                	mv	a0,s3
     5ce:	3b05                	jal	2fe <printf_putch>
     5d0:	197d                	addi	s2,s2,-1
     5d2:	4581                	li	a1,0
     5d4:	854e                	mv	a0,s3
     5d6:	3325                	jal	2fe <printf_putch>
     5d8:	197d                	addi	s2,s2,-1
     5da:	4581                	li	a1,0
     5dc:	854e                	mv	a0,s3
     5de:	3305                	jal	2fe <printf_putch>
     5e0:	197d                	addi	s2,s2,-1
     5e2:	4581                	li	a1,0
     5e4:	854e                	mv	a0,s3
     5e6:	3b21                	jal	2fe <printf_putch>
     5e8:	197d                	addi	s2,s2,-1
     5ea:	4581                	li	a1,0
     5ec:	854e                	mv	a0,s3
     5ee:	3b01                	jal	2fe <printf_putch>
     5f0:	197d                	addi	s2,s2,-1
     5f2:	197d                	addi	s2,s2,-1
     5f4:	4581                	li	a1,0
     5f6:	854e                	mv	a0,s3
     5f8:	3319                	jal	2fe <printf_putch>
     5fa:	032c5d63          	bge	s8,s2,634 <vprintfmt.constprop.0+0x20e>
     5fe:	4581                	li	a1,0
     600:	854e                	mv	a0,s3
     602:	39f5                	jal	2fe <printf_putch>
     604:	4581                	li	a1,0
     606:	854e                	mv	a0,s3
     608:	39dd                	jal	2fe <printf_putch>
     60a:	4581                	li	a1,0
     60c:	854e                	mv	a0,s3
     60e:	39c5                	jal	2fe <printf_putch>
     610:	4581                	li	a1,0
     612:	854e                	mv	a0,s3
     614:	31ed                	jal	2fe <printf_putch>
     616:	4581                	li	a1,0
     618:	854e                	mv	a0,s3
     61a:	31d5                	jal	2fe <printf_putch>
     61c:	4581                	li	a1,0
     61e:	854e                	mv	a0,s3
     620:	39f9                	jal	2fe <printf_putch>
     622:	4581                	li	a1,0
     624:	854e                	mv	a0,s3
     626:	39e1                	jal	2fe <printf_putch>
     628:	1961                	addi	s2,s2,-8
     62a:	4581                	li	a1,0
     62c:	854e                	mv	a0,s3
     62e:	39c1                	jal	2fe <printf_putch>
     630:	fd2c47e3          	blt	s8,s2,5fe <vprintfmt.constprop.0+0x1d8>
     634:	4a32                	lw	s4,12(sp)
     636:	081c                	addi	a5,sp,16
     638:	00c10293          	addi	t0,sp,12
     63c:	01448fb3          	add	t6,s1,s4
     640:	002f9093          	slli	ra,t6,0x2
     644:	001784b3          	add	s1,a5,ra
     648:	40548333          	sub	t1,s1,t0
     64c:	4622                	lw	a2,8(sp)
     64e:	00235393          	srli	t2,t1,0x2
     652:	0073fc93          	andi	s9,t2,7
     656:	4b25                	li	s6,9
     658:	ff660c13          	addi	s8,a2,-10
     65c:	160c8b63          	beqz	s9,7d2 <vprintfmt.constprop.0+0x3ac>
     660:	03000893          	li	a7,48
     664:	01bb7363          	bgeu	s6,s11,66a <vprintfmt.constprop.0+0x244>
     668:	88e2                	mv	a7,s8
     66a:	01b88533          	add	a0,a7,s11
     66e:	4581                	li	a1,0
     670:	4d05                	li	s10,1
     672:	3171                	jal	2fe <printf_putch>
     674:	14f1                	addi	s1,s1,-4
     676:	0044ad83          	lw	s11,4(s1)
     67a:	15ac8c63          	beq	s9,s10,7d2 <vprintfmt.constprop.0+0x3ac>
     67e:	4989                	li	s3,2
     680:	093c8a63          	beq	s9,s3,714 <vprintfmt.constprop.0+0x2ee>
     684:	450d                	li	a0,3
     686:	06ac8b63          	beq	s9,a0,6fc <vprintfmt.constprop.0+0x2d6>
     68a:	4691                	li	a3,4
     68c:	04dc8c63          	beq	s9,a3,6e4 <vprintfmt.constprop.0+0x2be>
     690:	4a95                	li	s5,5
     692:	035c8d63          	beq	s9,s5,6cc <vprintfmt.constprop.0+0x2a6>
     696:	4599                	li	a1,6
     698:	00bc8e63          	beq	s9,a1,6b4 <vprintfmt.constprop.0+0x28e>
     69c:	03000813          	li	a6,48
     6a0:	01bb7363          	bgeu	s6,s11,6a6 <vprintfmt.constprop.0+0x280>
     6a4:	8862                	mv	a6,s8
     6a6:	01b80533          	add	a0,a6,s11
     6aa:	4581                	li	a1,0
     6ac:	14f1                	addi	s1,s1,-4
     6ae:	3981                	jal	2fe <printf_putch>
     6b0:	0044ad83          	lw	s11,4(s1)
     6b4:	03000713          	li	a4,48
     6b8:	01bb7363          	bgeu	s6,s11,6be <vprintfmt.constprop.0+0x298>
     6bc:	8762                	mv	a4,s8
     6be:	01b70533          	add	a0,a4,s11
     6c2:	4581                	li	a1,0
     6c4:	14f1                	addi	s1,s1,-4
     6c6:	3925                	jal	2fe <printf_putch>
     6c8:	0044ad83          	lw	s11,4(s1)
     6cc:	03000e13          	li	t3,48
     6d0:	01bb7363          	bgeu	s6,s11,6d6 <vprintfmt.constprop.0+0x2b0>
     6d4:	8e62                	mv	t3,s8
     6d6:	01be0533          	add	a0,t3,s11
     6da:	4581                	li	a1,0
     6dc:	14f1                	addi	s1,s1,-4
     6de:	3105                	jal	2fe <printf_putch>
     6e0:	0044ad83          	lw	s11,4(s1)
     6e4:	03000e93          	li	t4,48
     6e8:	01bb7363          	bgeu	s6,s11,6ee <vprintfmt.constprop.0+0x2c8>
     6ec:	8ee2                	mv	t4,s8
     6ee:	01be8533          	add	a0,t4,s11
     6f2:	4581                	li	a1,0
     6f4:	14f1                	addi	s1,s1,-4
     6f6:	3121                	jal	2fe <printf_putch>
     6f8:	0044ad83          	lw	s11,4(s1)
     6fc:	03000f13          	li	t5,48
     700:	01bb7363          	bgeu	s6,s11,706 <vprintfmt.constprop.0+0x2e0>
     704:	8f62                	mv	t5,s8
     706:	01bf0533          	add	a0,t5,s11
     70a:	4581                	li	a1,0
     70c:	14f1                	addi	s1,s1,-4
     70e:	3ec5                	jal	2fe <printf_putch>
     710:	0044ad83          	lw	s11,4(s1)
     714:	03000913          	li	s2,48
     718:	01bb7363          	bgeu	s6,s11,71e <vprintfmt.constprop.0+0x2f8>
     71c:	8962                	mv	s2,s8
     71e:	01b90533          	add	a0,s2,s11
     722:	4581                	li	a1,0
     724:	14f1                	addi	s1,s1,-4
     726:	3ee1                	jal	2fe <printf_putch>
     728:	0044ad83          	lw	s11,4(s1)
     72c:	a05d                	j	7d2 <vprintfmt.constprop.0+0x3ac>
     72e:	0004af83          	lw	t6,0(s1)
     732:	ffc48c93          	addi	s9,s1,-4
     736:	03000493          	li	s1,48
     73a:	01fb7363          	bgeu	s6,t6,740 <vprintfmt.constprop.0+0x31a>
     73e:	84e2                	mv	s1,s8
     740:	4581                	li	a1,0
     742:	01f48533          	add	a0,s1,t6
     746:	3e65                	jal	2fe <printf_putch>
     748:	000ca783          	lw	a5,0(s9)
     74c:	03000293          	li	t0,48
     750:	00fb7363          	bgeu	s6,a5,756 <vprintfmt.constprop.0+0x330>
     754:	82e2                	mv	t0,s8
     756:	4581                	li	a1,0
     758:	00f28533          	add	a0,t0,a5
     75c:	364d                	jal	2fe <printf_putch>
     75e:	ffcca303          	lw	t1,-4(s9)
     762:	03000393          	li	t2,48
     766:	006b7363          	bgeu	s6,t1,76c <vprintfmt.constprop.0+0x346>
     76a:	83e2                	mv	t2,s8
     76c:	4581                	li	a1,0
     76e:	00638533          	add	a0,t2,t1
     772:	3671                	jal	2fe <printf_putch>
     774:	ff8ca603          	lw	a2,-8(s9)
     778:	03000893          	li	a7,48
     77c:	00cb7363          	bgeu	s6,a2,782 <vprintfmt.constprop.0+0x35c>
     780:	88e2                	mv	a7,s8
     782:	4581                	li	a1,0
     784:	00c88533          	add	a0,a7,a2
     788:	3e9d                	jal	2fe <printf_putch>
     78a:	ff4cad03          	lw	s10,-12(s9)
     78e:	03000993          	li	s3,48
     792:	01ab7363          	bgeu	s6,s10,798 <vprintfmt.constprop.0+0x372>
     796:	89e2                	mv	s3,s8
     798:	01a98533          	add	a0,s3,s10
     79c:	4581                	li	a1,0
     79e:	3685                	jal	2fe <printf_putch>
     7a0:	ff0ca683          	lw	a3,-16(s9)
     7a4:	03000513          	li	a0,48
     7a8:	00db7363          	bgeu	s6,a3,7ae <vprintfmt.constprop.0+0x388>
     7ac:	8562                	mv	a0,s8
     7ae:	4581                	li	a1,0
     7b0:	9536                	add	a0,a0,a3
     7b2:	36b1                	jal	2fe <printf_putch>
     7b4:	feccaa83          	lw	s5,-20(s9)
     7b8:	03000813          	li	a6,48
     7bc:	015b7363          	bgeu	s6,s5,7c2 <vprintfmt.constprop.0+0x39c>
     7c0:	8862                	mv	a6,s8
     7c2:	4581                	li	a1,0
     7c4:	01580533          	add	a0,a6,s5
     7c8:	3e1d                	jal	2fe <printf_putch>
     7ca:	fe8cad83          	lw	s11,-24(s9)
     7ce:	fe4c8493          	addi	s1,s9,-28
     7d2:	03000a13          	li	s4,48
     7d6:	01bb7363          	bgeu	s6,s11,7dc <vprintfmt.constprop.0+0x3b6>
     7da:	8a62                	mv	s4,s8
     7dc:	01ba0533          	add	a0,s4,s11
     7e0:	4581                	li	a1,0
     7e2:	00c10d93          	addi	s11,sp,12
     7e6:	3e21                	jal	2fe <printf_putch>
     7e8:	f5b493e3          	bne	s1,s11,72e <vprintfmt.constprop.0+0x308>
     7ec:	b171                	j	478 <vprintfmt.constprop.0+0x52>
     7ee:	fffa4093          	not	ra,s4
     7f2:	41f0dc13          	srai	s8,ra,0x1f
     7f6:	001b4903          	lbu	s2,1(s6)
     7fa:	018a7a33          	and	s4,s4,s8
     7fe:	8b22                	mv	s6,s0
     800:	b94d                	j	4b2 <vprintfmt.constprop.0+0x8c>
     802:	001b4083          	lbu	ra,1(s6)
     806:	fd090d93          	addi	s11,s2,-48
     80a:	8b22                	mv	s6,s0
     80c:	fd008e13          	addi	t3,ra,-48
     810:	8906                	mv	s2,ra
     812:	03c76463          	bltu	a4,t3,83a <vprintfmt.constprop.0+0x414>
     816:	002d9413          	slli	s0,s11,0x2
     81a:	01b40eb3          	add	t4,s0,s11
     81e:	0b05                	addi	s6,s6,1
     820:	001e9f13          	slli	t5,t4,0x1
     824:	001f0fb3          	add	t6,t5,ra
     828:	000b4083          	lbu	ra,0(s6)
     82c:	fd0f8d93          	addi	s11,t6,-48
     830:	fd008793          	addi	a5,ra,-48
     834:	8906                	mv	s2,ra
     836:	fef770e3          	bgeu	a4,a5,816 <vprintfmt.constprop.0+0x3f0>
     83a:	c60a5ce3          	bgez	s4,4b2 <vprintfmt.constprop.0+0x8c>
     83e:	8a6e                	mv	s4,s11
     840:	5dfd                	li	s11,-1
     842:	b985                	j	4b2 <vprintfmt.constprop.0+0x8c>
     844:	04100713          	li	a4,65
     848:	c43a                	sw	a4,8(sp)
     84a:	4305                	li	t1,1
     84c:	4941                	li	s2,16
     84e:	4a81                	li	s5,0
     850:	ccd347e3          	blt	t1,a3,51e <vprintfmt.constprop.0+0xf8>
     854:	004b8393          	addi	t2,s7,4
     858:	a8bd                	j	8d6 <vprintfmt.constprop.0+0x4b0>
     85a:	06100293          	li	t0,97
     85e:	4941                	li	s2,16
     860:	4a81                	li	s5,0
     862:	c416                	sw	t0,8(sp)
     864:	b955                	j	518 <vprintfmt.constprop.0+0xf2>
     866:	000ba503          	lw	a0,0(s7)
     86a:	4581                	li	a1,0
     86c:	0b91                	addi	s7,s7,4
     86e:	3c41                	jal	2fe <printf_putch>
     870:	b121                	j	478 <vprintfmt.constprop.0+0x52>
     872:	4a85                	li	s5,1
     874:	26dac163          	blt	s5,a3,ad6 <vprintfmt.constprop.0+0x6b0>
     878:	000bac83          	lw	s9,0(s7)
     87c:	004b8493          	addi	s1,s7,4
     880:	8ba6                	mv	s7,s1
     882:	41fcdb13          	srai	s6,s9,0x1f
     886:	000b5e63          	bgez	s6,8a2 <vprintfmt.constprop.0+0x47c>
     88a:	4581                	li	a1,0
     88c:	02d00513          	li	a0,45
     890:	34bd                	jal	2fe <printf_putch>
     892:	41900cb3          	neg	s9,s9
     896:	01903833          	snez	a6,s9
     89a:	41600c33          	neg	s8,s6
     89e:	410c0b33          	sub	s6,s8,a6
     8a2:	4929                	li	s2,10
     8a4:	4a81                	li	s5,0
     8a6:	b169                	j	530 <vprintfmt.constprop.0+0x10a>
     8a8:	001b4903          	lbu	s2,1(s6)
     8ac:	0685                	addi	a3,a3,1
     8ae:	8b22                	mv	s6,s0
     8b0:	b109                	j	4b2 <vprintfmt.constprop.0+0x8c>
     8b2:	4921                	li	s2,8
     8b4:	4a81                	li	s5,0
     8b6:	b18d                	j	518 <vprintfmt.constprop.0+0xf2>
     8b8:	4581                	li	a1,0
     8ba:	03000513          	li	a0,48
     8be:	3481                	jal	2fe <printf_putch>
     8c0:	07800513          	li	a0,120
     8c4:	4581                	li	a1,0
     8c6:	3c25                	jal	2fe <printf_putch>
     8c8:	06100513          	li	a0,97
     8cc:	4941                	li	s2,16
     8ce:	004b8393          	addi	t2,s7,4
     8d2:	4a81                	li	s5,0
     8d4:	c42a                	sw	a0,8(sp)
     8d6:	000bac83          	lw	s9,0(s7)
     8da:	4b01                	li	s6,0
     8dc:	8b9e                	mv	s7,t2
     8de:	b989                	j	530 <vprintfmt.constprop.0+0x10a>
     8e0:	000bab03          	lw	s6,0(s7)
     8e4:	0b91                	addi	s7,s7,4
     8e6:	200b0363          	beqz	s6,aec <vprintfmt.constprop.0+0x6c6>
     8ea:	1f405063          	blez	s4,aca <vprintfmt.constprop.0+0x6a4>
     8ee:	02d00513          	li	a0,45
     8f2:	12a99363          	bne	s3,a0,a18 <vprintfmt.constprop.0+0x5f2>
     8f6:	000b4503          	lbu	a0,0(s6)
     8fa:	c105                	beqz	a0,91a <vprintfmt.constprop.0+0x4f4>
     8fc:	59fd                	li	s3,-1
     8fe:	000dc563          	bltz	s11,908 <vprintfmt.constprop.0+0x4e2>
     902:	1dfd                	addi	s11,s11,-1
     904:	013d8963          	beq	s11,s3,916 <vprintfmt.constprop.0+0x4f0>
     908:	4581                	li	a1,0
     90a:	0b05                	addi	s6,s6,1
     90c:	3acd                	jal	2fe <printf_putch>
     90e:	000b4503          	lbu	a0,0(s6)
     912:	1a7d                	addi	s4,s4,-1
     914:	f56d                	bnez	a0,8fe <vprintfmt.constprop.0+0x4d8>
     916:	b74051e3          	blez	s4,478 <vprintfmt.constprop.0+0x52>
     91a:	007a7093          	andi	ra,s4,7
     91e:	fffa0c93          	addi	s9,s4,-1
     922:	06008963          	beqz	ra,994 <vprintfmt.constprop.0+0x56e>
     926:	4285                	li	t0,1
     928:	04508f63          	beq	ra,t0,986 <vprintfmt.constprop.0+0x560>
     92c:	4309                	li	t1,2
     92e:	04608763          	beq	ra,t1,97c <vprintfmt.constprop.0+0x556>
     932:	438d                	li	t2,3
     934:	02708f63          	beq	ra,t2,972 <vprintfmt.constprop.0+0x54c>
     938:	4611                	li	a2,4
     93a:	02c08763          	beq	ra,a2,968 <vprintfmt.constprop.0+0x542>
     93e:	4895                	li	a7,5
     940:	01108f63          	beq	ra,a7,95e <vprintfmt.constprop.0+0x538>
     944:	4d19                	li	s10,6
     946:	01a08763          	beq	ra,s10,954 <vprintfmt.constprop.0+0x52e>
     94a:	4581                	li	a1,0
     94c:	02000513          	li	a0,32
     950:	327d                	jal	2fe <printf_putch>
     952:	8a66                	mv	s4,s9
     954:	4581                	li	a1,0
     956:	02000513          	li	a0,32
     95a:	3255                	jal	2fe <printf_putch>
     95c:	1a7d                	addi	s4,s4,-1
     95e:	4581                	li	a1,0
     960:	02000513          	li	a0,32
     964:	3a69                	jal	2fe <printf_putch>
     966:	1a7d                	addi	s4,s4,-1
     968:	4581                	li	a1,0
     96a:	02000513          	li	a0,32
     96e:	3a41                	jal	2fe <printf_putch>
     970:	1a7d                	addi	s4,s4,-1
     972:	4581                	li	a1,0
     974:	02000513          	li	a0,32
     978:	3259                	jal	2fe <printf_putch>
     97a:	1a7d                	addi	s4,s4,-1
     97c:	4581                	li	a1,0
     97e:	02000513          	li	a0,32
     982:	3ab5                	jal	2fe <printf_putch>
     984:	1a7d                	addi	s4,s4,-1
     986:	1a7d                	addi	s4,s4,-1
     988:	4581                	li	a1,0
     98a:	02000513          	li	a0,32
     98e:	3a85                	jal	2fe <printf_putch>
     990:	ae0a04e3          	beqz	s4,478 <vprintfmt.constprop.0+0x52>
     994:	4581                	li	a1,0
     996:	02000513          	li	a0,32
     99a:	3295                	jal	2fe <printf_putch>
     99c:	4581                	li	a1,0
     99e:	02000513          	li	a0,32
     9a2:	3ab1                	jal	2fe <printf_putch>
     9a4:	4581                	li	a1,0
     9a6:	02000513          	li	a0,32
     9aa:	3a91                	jal	2fe <printf_putch>
     9ac:	4581                	li	a1,0
     9ae:	02000513          	li	a0,32
     9b2:	32b1                	jal	2fe <printf_putch>
     9b4:	4581                	li	a1,0
     9b6:	02000513          	li	a0,32
     9ba:	3291                	jal	2fe <printf_putch>
     9bc:	4581                	li	a1,0
     9be:	02000513          	li	a0,32
     9c2:	3a35                	jal	2fe <printf_putch>
     9c4:	4581                	li	a1,0
     9c6:	02000513          	li	a0,32
     9ca:	3a15                	jal	2fe <printf_putch>
     9cc:	1a61                	addi	s4,s4,-8
     9ce:	4581                	li	a1,0
     9d0:	02000513          	li	a0,32
     9d4:	322d                	jal	2fe <printf_putch>
     9d6:	fa0a1fe3          	bnez	s4,994 <vprintfmt.constprop.0+0x56e>
     9da:	bc79                	j	478 <vprintfmt.constprop.0+0x52>
     9dc:	4581                	li	a1,0
     9de:	02500513          	li	a0,37
     9e2:	3a31                	jal	2fe <printf_putch>
     9e4:	bc51                	j	478 <vprintfmt.constprop.0+0x52>
     9e6:	000bad83          	lw	s11,0(s7)
     9ea:	001b4903          	lbu	s2,1(s6)
     9ee:	0b91                	addi	s7,s7,4
     9f0:	8b22                	mv	s6,s0
     9f2:	b5a1                	j	83a <vprintfmt.constprop.0+0x414>
     9f4:	4581                	li	a1,0
     9f6:	02500513          	li	a0,37
     9fa:	3211                	jal	2fe <printf_putch>
     9fc:	8426                	mv	s0,s1
     9fe:	bcad                	j	478 <vprintfmt.constprop.0+0x52>
     a00:	b52cf2e3          	bgeu	s9,s2,544 <vprintfmt.constprop.0+0x11e>
     a04:	4885                	li	a7,1
     a06:	4481                	li	s1,0
     a08:	4c05                	li	s8,1
     a0a:	b748cae3          	blt	a7,s4,57e <vprintfmt.constprop.0+0x158>
     a0e:	b11d                	j	634 <vprintfmt.constprop.0+0x20e>
     a10:	000036b7          	lui	a3,0x3
     a14:	9bc68b13          	addi	s6,a3,-1604 # 29bc <__clz_tab+0x100>
     a18:	85ee                	mv	a1,s11
     a1a:	855a                	mv	a0,s6
     a1c:	22d000ef          	jal	ra,1448 <strnlen>
     a20:	40aa0a33          	sub	s4,s4,a0
     a24:	0b405363          	blez	s4,aca <vprintfmt.constprop.0+0x6a4>
     a28:	007a7813          	andi	a6,s4,7
     a2c:	fffa0c13          	addi	s8,s4,-1
     a30:	06080263          	beqz	a6,a94 <vprintfmt.constprop.0+0x66e>
     a34:	4705                	li	a4,1
     a36:	04e80963          	beq	a6,a4,a88 <vprintfmt.constprop.0+0x662>
     a3a:	4e09                	li	t3,2
     a3c:	05c80263          	beq	a6,t3,a80 <vprintfmt.constprop.0+0x65a>
     a40:	4e8d                	li	t4,3
     a42:	03d80b63          	beq	a6,t4,a78 <vprintfmt.constprop.0+0x652>
     a46:	4f11                	li	t5,4
     a48:	03e80463          	beq	a6,t5,a70 <vprintfmt.constprop.0+0x64a>
     a4c:	4f95                	li	t6,5
     a4e:	01f80d63          	beq	a6,t6,a68 <vprintfmt.constprop.0+0x642>
     a52:	4799                	li	a5,6
     a54:	00f80663          	beq	a6,a5,a60 <vprintfmt.constprop.0+0x63a>
     a58:	4581                	li	a1,0
     a5a:	854e                	mv	a0,s3
     a5c:	304d                	jal	2fe <printf_putch>
     a5e:	8a62                	mv	s4,s8
     a60:	4581                	li	a1,0
     a62:	854e                	mv	a0,s3
     a64:	3869                	jal	2fe <printf_putch>
     a66:	1a7d                	addi	s4,s4,-1
     a68:	4581                	li	a1,0
     a6a:	854e                	mv	a0,s3
     a6c:	3849                	jal	2fe <printf_putch>
     a6e:	1a7d                	addi	s4,s4,-1
     a70:	4581                	li	a1,0
     a72:	854e                	mv	a0,s3
     a74:	3069                	jal	2fe <printf_putch>
     a76:	1a7d                	addi	s4,s4,-1
     a78:	4581                	li	a1,0
     a7a:	854e                	mv	a0,s3
     a7c:	3049                	jal	2fe <printf_putch>
     a7e:	1a7d                	addi	s4,s4,-1
     a80:	4581                	li	a1,0
     a82:	854e                	mv	a0,s3
     a84:	38ad                	jal	2fe <printf_putch>
     a86:	1a7d                	addi	s4,s4,-1
     a88:	1a7d                	addi	s4,s4,-1
     a8a:	4581                	li	a1,0
     a8c:	854e                	mv	a0,s3
     a8e:	3885                	jal	2fe <printf_putch>
     a90:	020a0d63          	beqz	s4,aca <vprintfmt.constprop.0+0x6a4>
     a94:	4581                	li	a1,0
     a96:	854e                	mv	a0,s3
     a98:	309d                	jal	2fe <printf_putch>
     a9a:	4581                	li	a1,0
     a9c:	854e                	mv	a0,s3
     a9e:	3085                	jal	2fe <printf_putch>
     aa0:	4581                	li	a1,0
     aa2:	854e                	mv	a0,s3
     aa4:	38a9                	jal	2fe <printf_putch>
     aa6:	4581                	li	a1,0
     aa8:	854e                	mv	a0,s3
     aaa:	3891                	jal	2fe <printf_putch>
     aac:	4581                	li	a1,0
     aae:	854e                	mv	a0,s3
     ab0:	30b9                	jal	2fe <printf_putch>
     ab2:	4581                	li	a1,0
     ab4:	854e                	mv	a0,s3
     ab6:	30a1                	jal	2fe <printf_putch>
     ab8:	4581                	li	a1,0
     aba:	854e                	mv	a0,s3
     abc:	3089                	jal	2fe <printf_putch>
     abe:	1a61                	addi	s4,s4,-8
     ac0:	4581                	li	a1,0
     ac2:	854e                	mv	a0,s3
     ac4:	382d                	jal	2fe <printf_putch>
     ac6:	fc0a17e3          	bnez	s4,a94 <vprintfmt.constprop.0+0x66e>
     aca:	000b4503          	lbu	a0,0(s6)
     ace:	9a0505e3          	beqz	a0,478 <vprintfmt.constprop.0+0x52>
     ad2:	59fd                	li	s3,-1
     ad4:	b52d                	j	8fe <vprintfmt.constprop.0+0x4d8>
     ad6:	007b8593          	addi	a1,s7,7
     ada:	ff85fd93          	andi	s11,a1,-8
     ade:	008d8b93          	addi	s7,s11,8
     ae2:	000dac83          	lw	s9,0(s11)
     ae6:	004dab03          	lw	s6,4(s11)
     aea:	bb71                	j	886 <vprintfmt.constprop.0+0x460>
     aec:	01405663          	blez	s4,af8 <vprintfmt.constprop.0+0x6d2>
     af0:	02d00493          	li	s1,45
     af4:	f0999ee3          	bne	s3,s1,a10 <vprintfmt.constprop.0+0x5ea>
     af8:	000035b7          	lui	a1,0x3
     afc:	9bc58b13          	addi	s6,a1,-1604 # 29bc <__clz_tab+0x100>
     b00:	02800513          	li	a0,40
     b04:	59fd                	li	s3,-1
     b06:	bbe5                	j	8fe <vprintfmt.constprop.0+0x4d8>

00000b08 <putchar>:
     b08:	04022603          	lw	a2,64(tp) # 40 <buflen.1937>
     b0c:	00020293          	mv	t0,tp
     b10:	00160593          	addi	a1,a2,1
     b14:	00c28333          	add	t1,t0,a2
     b18:	04b22023          	sw	a1,64(tp) # 40 <buflen.1937>
     b1c:	00a30023          	sb	a0,0(t1)
     b20:	43a9                	li	t2,10
     b22:	00750863          	beq	a0,t2,b32 <putchar+0x2a>
     b26:	04000513          	li	a0,64
     b2a:	00a58663          	beq	a1,a0,b36 <putchar+0x2e>
     b2e:	4501                	li	a0,0
     b30:	8082                	ret
     b32:	0eb05d63          	blez	a1,c2c <putchar+0x124>
     b36:	00020e13          	mv	t3,tp
     b3a:	001e0793          	addi	a5,t3,1
     b3e:	fff7ce83          	lbu	t4,-1(a5)
     b42:	fffe4f13          	not	t5,t3
     b46:	f0000fb7          	lui	t6,0xf0000
     b4a:	01ee06b3          	add	a3,t3,t5
     b4e:	00b68633          	add	a2,a3,a1
     b52:	01df8023          	sb	t4,0(t6) # f0000000 <__C_STACK_TOP__+0xefff0000>
     b56:	fff58713          	addi	a4,a1,-1
     b5a:	00767293          	andi	t0,a2,7
     b5e:	0ce05763          	blez	a4,c2c <putchar+0x124>
     b62:	06028e63          	beqz	t0,bde <putchar+0xd6>
     b66:	4305                	li	t1,1
     b68:	06628063          	beq	t0,t1,bc8 <putchar+0xc0>
     b6c:	4389                	li	t2,2
     b6e:	04728863          	beq	t0,t2,bbe <putchar+0xb6>
     b72:	450d                	li	a0,3
     b74:	04a28063          	beq	t0,a0,bb4 <putchar+0xac>
     b78:	4891                	li	a7,4
     b7a:	03128863          	beq	t0,a7,baa <putchar+0xa2>
     b7e:	4e95                	li	t4,5
     b80:	03d28063          	beq	t0,t4,ba0 <putchar+0x98>
     b84:	4f19                	li	t5,6
     b86:	01e28863          	beq	t0,t5,b96 <putchar+0x8e>
     b8a:	001e4683          	lbu	a3,1(t3)
     b8e:	002e0793          	addi	a5,t3,2
     b92:	00df8023          	sb	a3,0(t6)
     b96:	0007c603          	lbu	a2,0(a5)
     b9a:	0785                	addi	a5,a5,1
     b9c:	00cf8023          	sb	a2,0(t6)
     ba0:	0007c703          	lbu	a4,0(a5)
     ba4:	0785                	addi	a5,a5,1
     ba6:	00ef8023          	sb	a4,0(t6)
     baa:	0007c283          	lbu	t0,0(a5)
     bae:	0785                	addi	a5,a5,1
     bb0:	005f8023          	sb	t0,0(t6)
     bb4:	0007c303          	lbu	t1,0(a5)
     bb8:	0785                	addi	a5,a5,1
     bba:	006f8023          	sb	t1,0(t6)
     bbe:	0007c383          	lbu	t2,0(a5)
     bc2:	0785                	addi	a5,a5,1
     bc4:	007f8023          	sb	t2,0(t6)
     bc8:	0785                	addi	a5,a5,1
     bca:	fff7c503          	lbu	a0,-1(a5)
     bce:	40fe08b3          	sub	a7,t3,a5
     bd2:	00b88eb3          	add	t4,a7,a1
     bd6:	00af8023          	sb	a0,0(t6)
     bda:	05d05963          	blez	t4,c2c <putchar+0x124>
     bde:	0007cf03          	lbu	t5,0(a5)
     be2:	07a1                	addi	a5,a5,8
     be4:	40fe0533          	sub	a0,t3,a5
     be8:	01ef8023          	sb	t5,0(t6)
     bec:	ff97c683          	lbu	a3,-7(a5)
     bf0:	00b508b3          	add	a7,a0,a1
     bf4:	00df8023          	sb	a3,0(t6)
     bf8:	ffa7c603          	lbu	a2,-6(a5)
     bfc:	00cf8023          	sb	a2,0(t6)
     c00:	ffb7c703          	lbu	a4,-5(a5)
     c04:	00ef8023          	sb	a4,0(t6)
     c08:	ffc7c283          	lbu	t0,-4(a5)
     c0c:	005f8023          	sb	t0,0(t6)
     c10:	ffd7c303          	lbu	t1,-3(a5)
     c14:	006f8023          	sb	t1,0(t6)
     c18:	ffe7c383          	lbu	t2,-2(a5)
     c1c:	007f8023          	sb	t2,0(t6)
     c20:	fff7ce83          	lbu	t4,-1(a5)
     c24:	01df8023          	sb	t4,0(t6)
     c28:	fb104be3          	bgtz	a7,bde <putchar+0xd6>
     c2c:	04022023          	sw	zero,64(tp) # 40 <buflen.1937>
     c30:	4501                	li	a0,0
     c32:	8082                	ret

00000c34 <sc_printf>:
     c34:	7139                	addi	sp,sp,-64
     c36:	02410313          	addi	t1,sp,36
     c3a:	d22e                	sw	a1,36(sp)
     c3c:	859a                	mv	a1,t1
     c3e:	ce06                	sw	ra,28(sp)
     c40:	d432                	sw	a2,40(sp)
     c42:	d636                	sw	a3,44(sp)
     c44:	d83a                	sw	a4,48(sp)
     c46:	da3e                	sw	a5,52(sp)
     c48:	dc42                	sw	a6,56(sp)
     c4a:	de46                	sw	a7,60(sp)
     c4c:	c61a                	sw	t1,12(sp)
     c4e:	fd8ff0ef          	jal	ra,426 <vprintfmt.constprop.0>
     c52:	40f2                	lw	ra,28(sp)
     c54:	4501                	li	a0,0
     c56:	6121                	addi	sp,sp,64
     c58:	8082                	ret

00000c5a <Func_1.constprop.1>:
     c5a:	04300793          	li	a5,67
     c5e:	00f50463          	beq	a0,a5,c66 <Func_1.constprop.1+0xc>
     c62:	4501                	li	a0,0
     c64:	8082                	ret
     c66:	628d                	lui	t0,0x3
     c68:	5aa28623          	sb	a0,1452(t0) # 35ac <Ch_1_Glob>
     c6c:	4505                	li	a0,1
     c6e:	8082                	ret

00000c70 <main>:
     c70:	00003637          	lui	a2,0x3
     c74:	7131                	addi	sp,sp,-192
     c76:	9c460713          	addi	a4,a2,-1596 # 29c4 <__clz_tab+0x108>
     c7a:	dd22                	sw	s0,184(sp)
     c7c:	db26                	sw	s1,180(sp)
     c7e:	4340                	lw	s0,4(a4)
     c80:	9c462483          	lw	s1,-1596(a2)
     c84:	680d                	lui	a6,0x3
     c86:	df06                	sw	ra,188(sp)
     c88:	d356                	sw	s5,164(sp)
     c8a:	00872083          	lw	ra,8(a4)
     c8e:	5b480a93          	addi	s5,a6,1460 # 35b4 <glob1.3272>
     c92:	d94a                	sw	s2,176(sp)
     c94:	d74e                	sw	s3,172(sp)
     c96:	d15a                	sw	s6,160(sp)
     c98:	cf5e                	sw	s7,156(sp)
     c9a:	cd62                	sw	s8,152(sp)
     c9c:	cb66                	sw	s9,148(sp)
     c9e:	c96a                	sw	s10,144(sp)
     ca0:	c76e                	sw	s11,140(sp)
     ca2:	d552                	sw	s4,168(sp)
     ca4:	000036b7          	lui	a3,0x3
     ca8:	030a8913          	addi	s2,s5,48
     cac:	698d                	lui	s3,0x3
     cae:	6b0d                	lui	s6,0x3
     cb0:	4b89                	li	s7,2
     cb2:	02800c13          	li	s8,40
     cb6:	f4068793          	addi	a5,a3,-192 # 2f40 <__clz_tab+0x684>
     cba:	00c72383          	lw	t2,12(a4)
     cbe:	049aa023          	sw	s1,64(s5)
     cc2:	048aa223          	sw	s0,68(s5)
     cc6:	5b59a423          	sw	s5,1448(s3) # 35a8 <Next_Ptr_Glob>
     cca:	5b2b2223          	sw	s2,1444(s6) # 35a4 <Ptr_Glob>
     cce:	035aa823          	sw	s5,48(s5)
     cd2:	020aaa23          	sw	zero,52(s5)
     cd6:	037aac23          	sw	s7,56(s5)
     cda:	038aae23          	sw	s8,60(s5)
     cde:	01072283          	lw	t0,16(a4)
     ce2:	01472f83          	lw	t6,20(a4)
     ce6:	01872f03          	lw	t5,24(a4)
     cea:	01c75e83          	lhu	t4,28(a4)
     cee:	01e74e03          	lbu	t3,30(a4)
     cf2:	f406a303          	lw	t1,-192(a3)
     cf6:	0047a883          	lw	a7,4(a5)
     cfa:	041aa423          	sw	ra,72(s5)
     cfe:	0087ac83          	lw	s9,8(a5)
     d02:	00c7ad83          	lw	s11,12(a5)
     d06:	4b84                	lw	s1,16(a5)
     d08:	4bc0                	lw	s0,20(a5)
     d0a:	4f90                	lw	a2,24(a5)
     d0c:	01c7d703          	lhu	a4,28(a5)
     d10:	01e7c783          	lbu	a5,30(a5)
     d14:	6d0d                	lui	s10,0x3
     d16:	047aa623          	sw	t2,76(s5)
     d1a:	6dcd0d13          	addi	s10,s10,1756 # 36dc <Arr_2_Glob>
     d1e:	46a9                	li	a3,10
     d20:	1f400393          	li	t2,500
     d24:	045aa823          	sw	t0,80(s5)
     d28:	05faaa23          	sw	t6,84(s5)
     d2c:	05eaac23          	sw	t5,88(s5)
     d30:	05da9e23          	sh	t4,92(s5)
     d34:	05ca8f23          	sb	t3,94(s5)
     d38:	d09a                	sw	t1,96(sp)
     d3a:	d2c6                	sw	a7,100(sp)
     d3c:	d4e6                	sw	s9,104(sp)
     d3e:	d6ee                	sw	s11,108(sp)
     d40:	d8a6                	sw	s1,112(sp)
     d42:	daa2                	sw	s0,116(sp)
     d44:	dcb2                	sw	a2,120(sp)
     d46:	06e11e23          	sh	a4,124(sp)
     d4a:	06f10f23          	sb	a5,126(sp)
     d4e:	64dd2e23          	sw	a3,1628(s10)
     d52:	4085                	li	ra,1
     d54:	c81e                	sw	t2,16(sp)
     d56:	00a0d863          	bge	ra,a0,d66 <main+0xf6>
     d5a:	41c8                	lw	a0,4(a1)
     d5c:	c61a                	sw	t1,12(sp)
     d5e:	6d2000ef          	jal	ra,1430 <atoi>
     d62:	c82a                	sw	a0,16(sp)
     d64:	4532                	lw	a0,12(sp)
     d66:	00003937          	lui	s2,0x3
     d6a:	c62a                	sw	a0,12(sp)
     d6c:	bc490513          	addi	a0,s2,-1084 # 2bc4 <__clz_tab+0x308>
     d70:	35d1                	jal	c34 <sc_printf>
     d72:	000035b7          	lui	a1,0x3
     d76:	9e458513          	addi	a0,a1,-1564 # 29e4 <__clz_tab+0x128>
     d7a:	3d6d                	jal	c34 <sc_printf>
     d7c:	bc490513          	addi	a0,s2,-1084
     d80:	3d55                	jal	c34 <sc_printf>
     d82:	000032b7          	lui	t0,0x3
     d86:	a1428513          	addi	a0,t0,-1516 # 2a14 <__clz_tab+0x158>
     d8a:	356d                	jal	c34 <sc_printf>
     d8c:	bc490513          	addi	a0,s2,-1084
     d90:	3555                	jal	c34 <sc_printf>
     d92:	49c2                	lw	s3,16(sp)
     d94:	00003fb7          	lui	t6,0x3
     d98:	a44f8513          	addi	a0,t6,-1468 # 2a44 <__clz_tab+0x188>
     d9c:	85ce                	mv	a1,s3
     d9e:	3d59                	jal	c34 <sc_printf>
     da0:	c0002f73          	rdcycle	t5
     da4:	6e8d                	lui	t4,0x3
     da6:	4e05                	li	t3,1
     da8:	630d                	lui	t1,0x3
     daa:	5beea023          	sw	t5,1440(t4) # 35a0 <Begin_Time>
     dae:	59c32e23          	sw	t3,1436(t1) # 359c <Run_Index>
     db2:	4f32                	lw	t5,12(sp)
     db4:	66098563          	beqz	s3,141e <main+0x7ae>
     db8:	00003a37          	lui	s4,0x3
     dbc:	f60a0d93          	addi	s11,s4,-160 # 2f60 <__clz_tab+0x6a4>
     dc0:	000038b7          	lui	a7,0x3
     dc4:	f808a603          	lw	a2,-128(a7) # 2f80 <__clz_tab+0x6c4>
     dc8:	f60a2b83          	lw	s7,-160(s4)
     dcc:	004dac03          	lw	s8,4(s11)
     dd0:	008dac83          	lw	s9,8(s11)
     dd4:	00cda483          	lw	s1,12(s11)
     dd8:	010da403          	lw	s0,16(s11)
     ddc:	014da703          	lw	a4,20(s11)
     de0:	018da783          	lw	a5,24(s11)
     de4:	01cdd683          	lhu	a3,28(s11)
     de8:	6b0d                	lui	s6,0x3
     dea:	608d                	lui	ra,0x3
     dec:	6391                	lui	t2,0x4
     dee:	5a4b2903          	lw	s2,1444(s6) # 35a4 <Ptr_Glob>
     df2:	cc5e                	sw	s7,24(sp)
     df4:	ce62                	sw	s8,28(sp)
     df6:	d066                	sw	s9,32(sp)
     df8:	d226                	sw	s1,36(sp)
     dfa:	d422                	sw	s0,40(sp)
     dfc:	dc32                	sw	a2,56(sp)
     dfe:	d63a                	sw	a4,44(sp)
     e00:	d83e                	sw	a5,48(sp)
     e02:	02d11b23          	sh	a3,54(sp)
     e06:	4c05                	li	s8,1
     e08:	6c8d                	lui	s9,0x3
     e0a:	ca06                	sw	ra,20(sp)
     e0c:	0080                	addi	s0,sp,64
     e0e:	1084                	addi	s1,sp,96
     e10:	6b8d                	lui	s7,0x3
     e12:	6dc38b13          	addi	s6,t2,1756 # 46dc <_gp+0x97c>
     e16:	698d                	lui	s3,0x3
     e18:	de32                	sw	a2,60(sp)
     e1a:	a865                	j	ed2 <main+0x262>
     e1c:	00092083          	lw	ra,0(s2)
     e20:	0000aa03          	lw	s4,0(ra) # 3000 <impure_data+0x50>
     e24:	0200a503          	lw	a0,32(ra)
     e28:	0040af83          	lw	t6,4(ra)
     e2c:	0080af03          	lw	t5,8(ra)
     e30:	00c0ae83          	lw	t4,12(ra)
     e34:	0100ae03          	lw	t3,16(ra)
     e38:	0140a303          	lw	t1,20(ra)
     e3c:	0180a883          	lw	a7,24(ra)
     e40:	01c0a803          	lw	a6,28(ra)
     e44:	0240a603          	lw	a2,36(ra)
     e48:	0280a683          	lw	a3,40(ra)
     e4c:	02c0a783          	lw	a5,44(ra)
     e50:	01492023          	sw	s4,0(s2)
     e54:	02a92023          	sw	a0,32(s2)
     e58:	01f92223          	sw	t6,4(s2)
     e5c:	01e92423          	sw	t5,8(s2)
     e60:	01d92623          	sw	t4,12(s2)
     e64:	01c92823          	sw	t3,16(s2)
     e68:	00692a23          	sw	t1,20(s2)
     e6c:	01192c23          	sw	a7,24(s2)
     e70:	01092e23          	sw	a6,28(s2)
     e74:	02c92223          	sw	a2,36(s2)
     e78:	02d92423          	sw	a3,40(s2)
     e7c:	02f92623          	sw	a5,44(s2)
     e80:	04100513          	li	a0,65
     e84:	3bd9                	jal	c5a <Func_1.constprop.1>
     e86:	4a05                	li	s4,1
     e88:	428d                	li	t0,3
     e8a:	19450363          	beq	a0,s4,1010 <main+0x3a0>
     e8e:	04200513          	li	a0,66
     e92:	c616                	sw	t0,12(sp)
     e94:	33d9                	jal	c5a <Func_1.constprop.1>
     e96:	43b2                	lw	t2,12(sp)
     e98:	1caa0763          	beq	s4,a0,1066 <main+0x3f6>
     e9c:	00139613          	slli	a2,t2,0x1
     ea0:	007606b3          	add	a3,a2,t2
     ea4:	479d                	li	a5,7
     ea6:	02f6c2b3          	div	t0,a3,a5
     eaa:	5accc703          	lbu	a4,1452(s9) # 35ac <Ch_1_Glob>
     eae:	04100593          	li	a1,65
     eb2:	8f16                	mv	t5,t0
     eb4:	00b71863          	bne	a4,a1,ec4 <main+0x254>
     eb8:	5909a083          	lw	ra,1424(s3) # 3590 <Int_Glob>
     ebc:	00928f93          	addi	t6,t0,9
     ec0:	401f8f33          	sub	t5,t6,ra
     ec4:	4e42                	lw	t3,16(sp)
     ec6:	0c05                	addi	s8,s8,1
     ec8:	6e8d                	lui	t4,0x3
     eca:	598eae23          	sw	s8,1436(t4) # 359c <Run_Index>
     ece:	1f8e6663          	bltu	t3,s8,10ba <main+0x44a>
     ed2:	01edc503          	lbu	a0,30(s11)
     ed6:	4f52                	lw	t5,20(sp)
     ed8:	4ee2                	lw	t4,24(sp)
     eda:	4e72                	lw	t3,28(sp)
     edc:	5302                	lw	t1,32(sp)
     ede:	5812                	lw	a6,36(sp)
     ee0:	5a22                	lw	s4,40(sp)
     ee2:	58b2                	lw	a7,44(sp)
     ee4:	5642                	lw	a2,48(sp)
     ee6:	03615703          	lhu	a4,54(sp)
     eea:	06214583          	lbu	a1,98(sp)
     eee:	04100293          	li	t0,65
     ef2:	04200f93          	li	t6,66
     ef6:	5a5c8623          	sb	t0,1452(s9)
     efa:	59ff0a23          	sb	t6,1428(t5)
     efe:	c0f6                	sw	t4,64(sp)
     f00:	c2f2                	sw	t3,68(sp)
     f02:	c49a                	sw	t1,72(sp)
     f04:	c6c2                	sw	a6,76(sp)
     f06:	c8d2                	sw	s4,80(sp)
     f08:	cac6                	sw	a7,84(sp)
     f0a:	ccb2                	sw	a2,88(sp)
     f0c:	04e11e23          	sh	a4,92(sp)
     f10:	04a10f23          	sb	a0,94(sp)
     f14:	05900793          	li	a5,89
     f18:	18f58c63          	beq	a1,a5,10b0 <main+0x440>
     f1c:	85a2                	mv	a1,s0
     f1e:	8526                	mv	a0,s1
     f20:	0bd000ef          	jal	ra,17dc <strcmp>
     f24:	65cd2683          	lw	a3,1628(s10)
     f28:	439d                	li	t2,7
     f2a:	45a1                	li	a1,8
     f2c:	00168293          	addi	t0,a3,1
     f30:	0ebaac23          	sw	a1,248(s5)
     f34:	66bd2023          	sw	a1,1632(s10)
     f38:	66bd2223          	sw	a1,1636(s10)
     f3c:	645d2e23          	sw	t0,1628(s10)
     f40:	607b2023          	sw	t2,1536(s6)
     f44:	087aa223          	sw	t2,132(s5)
     f48:	087aa023          	sw	t2,128(s5)
     f4c:	00092a03          	lw	s4,0(s2)
     f50:	00492703          	lw	a4,4(s2)
     f54:	00892f83          	lw	t6,8(s2)
     f58:	01092f03          	lw	t5,16(s2)
     f5c:	01492e83          	lw	t4,20(s2)
     f60:	01892e03          	lw	t3,24(s2)
     f64:	01c92303          	lw	t1,28(s2)
     f68:	02092883          	lw	a7,32(s2)
     f6c:	02492803          	lw	a6,36(s2)
     f70:	02892783          	lw	a5,40(s2)
     f74:	02c92603          	lw	a2,44(s2)
     f78:	4695                	li	a3,5
     f7a:	00152513          	slti	a0,a0,1
     f7e:	00ea2223          	sw	a4,4(s4)
     f82:	58abac23          	sw	a0,1432(s7) # 3598 <Bool_Glob>
     f86:	58d9a823          	sw	a3,1424(s3)
     f8a:	014a2023          	sw	s4,0(s4)
     f8e:	01fa2423          	sw	t6,8(s4)
     f92:	01ea2823          	sw	t5,16(s4)
     f96:	01da2a23          	sw	t4,20(s4)
     f9a:	01ca2c23          	sw	t3,24(s4)
     f9e:	006a2e23          	sw	t1,28(s4)
     fa2:	031a2023          	sw	a7,32(s4)
     fa6:	030a2223          	sw	a6,36(s4)
     faa:	02fa2423          	sw	a5,40(s4)
     fae:	02ca2623          	sw	a2,44(s4)
     fb2:	00092383          	lw	t2,0(s2)
     fb6:	42c5                	li	t0,17
     fb8:	00da2623          	sw	a3,12(s4)
     fbc:	007a2023          	sw	t2,0(s4)
     fc0:	00092583          	lw	a1,0(s2)
     fc4:	00ba2023          	sw	a1,0(s4)
     fc8:	00592623          	sw	t0,12(s2)
     fcc:	004a2703          	lw	a4,4(s4)
     fd0:	e40716e3          	bnez	a4,e1c <main+0x1ac>
     fd4:	00892383          	lw	t2,8(s2)
     fd8:	4599                	li	a1,6
     fda:	00ba2623          	sw	a1,12(s4)
     fde:	4289                	li	t0,2
     fe0:	0c538963          	beq	t2,t0,10b2 <main+0x442>
     fe4:	40038663          	beqz	t2,13f0 <main+0x780>
     fe8:	4711                	li	a4,4
     fea:	40e38663          	beq	t2,a4,13f6 <main+0x786>
     fee:	408d                	li	ra,3
     ff0:	001a2423          	sw	ra,8(s4)
     ff4:	00092f03          	lw	t5,0(s2)
     ff8:	4ec9                	li	t4,18
     ffa:	01da2623          	sw	t4,12(s4)
     ffe:	01ea2023          	sw	t5,0(s4)
    1002:	04100513          	li	a0,65
    1006:	3991                	jal	c5a <Func_1.constprop.1>
    1008:	4a05                	li	s4,1
    100a:	428d                	li	t0,3
    100c:	e94511e3          	bne	a0,s4,e8e <main+0x21e>
    1010:	00003a37          	lui	s4,0x3
    1014:	f80a0e13          	addi	t3,s4,-128 # 2f80 <__clz_tab+0x6c4>
    1018:	010e2503          	lw	a0,16(t3)
    101c:	014e2383          	lw	t2,20(t3)
    1020:	004e2303          	lw	t1,4(t3)
    1024:	008e2883          	lw	a7,8(t3)
    1028:	00ce2803          	lw	a6,12(t3)
    102c:	018e2603          	lw	a2,24(t3)
    1030:	01ce5683          	lhu	a3,28(t3)
    1034:	01ee4783          	lbu	a5,30(t3)
    1038:	55e2                	lw	a1,56(sp)
    103a:	c8aa                	sw	a0,80(sp)
    103c:	82e2                	mv	t0,s8
    103e:	04200513          	li	a0,66
    1042:	ca9e                	sw	t2,84(sp)
    1044:	c0ae                	sw	a1,64(sp)
    1046:	c29a                	sw	t1,68(sp)
    1048:	c4c6                	sw	a7,72(sp)
    104a:	c6c2                	sw	a6,76(sp)
    104c:	ccb2                	sw	a2,88(sp)
    104e:	04d11e23          	sh	a3,92(sp)
    1052:	04f10f23          	sb	a5,94(sp)
    1056:	5989a823          	sw	s8,1424(s3)
    105a:	c616                	sw	t0,12(sp)
    105c:	4a01                	li	s4,0
    105e:	3ef5                	jal	c5a <Func_1.constprop.1>
    1060:	43b2                	lw	t2,12(sp)
    1062:	e2aa1de3          	bne	s4,a0,e9c <main+0x22c>
    1066:	00003737          	lui	a4,0x3
    106a:	f8070093          	addi	ra,a4,-128 # 2f80 <__clz_tab+0x6c4>
    106e:	0100aa03          	lw	s4,16(ra)
    1072:	0040af83          	lw	t6,4(ra)
    1076:	0080af03          	lw	t5,8(ra)
    107a:	00c0ae83          	lw	t4,12(ra)
    107e:	0140ae03          	lw	t3,20(ra)
    1082:	0180a303          	lw	t1,24(ra)
    1086:	01c0d883          	lhu	a7,28(ra)
    108a:	01e0c803          	lbu	a6,30(ra)
    108e:	5572                	lw	a0,60(sp)
    1090:	c8d2                	sw	s4,80(sp)
    1092:	c2fe                	sw	t6,68(sp)
    1094:	c0aa                	sw	a0,64(sp)
    1096:	c4fa                	sw	t5,72(sp)
    1098:	c6f6                	sw	t4,76(sp)
    109a:	caf2                	sw	t3,84(sp)
    109c:	cc9a                	sw	t1,88(sp)
    109e:	05111e23          	sh	a7,92(sp)
    10a2:	05010f23          	sb	a6,94(sp)
    10a6:	83e2                	mv	t2,s8
    10a8:	5989a823          	sw	s8,1424(s3)
    10ac:	4a01                	li	s4,0
    10ae:	b3fd                	j	e9c <main+0x22c>
    10b0:	a001                	j	10b0 <main+0x440>
    10b2:	4f85                	li	t6,1
    10b4:	01fa2423          	sw	t6,8(s4)
    10b8:	bf35                	j	ff4 <main+0x384>
    10ba:	ff968d93          	addi	s11,a3,-7
    10be:	003d9913          	slli	s2,s11,0x3
    10c2:	41b90b33          	sub	s6,s2,s11
    10c6:	405b0333          	sub	t1,s6,t0
    10ca:	cc1a                	sw	t1,24(sp)
    10cc:	c67a                	sw	t5,12(sp)
    10ce:	c00028f3          	rdcycle	a7
    10d2:	00003537          	lui	a0,0x3
    10d6:	680d                	lui	a6,0x3
    10d8:	a7450513          	addi	a0,a0,-1420 # 2a74 <__clz_tab+0x1b8>
    10dc:	59182623          	sw	a7,1420(a6) # 358c <End_Time>
    10e0:	00003c37          	lui	s8,0x3
    10e4:	3e81                	jal	c34 <sc_printf>
    10e6:	bc4c0513          	addi	a0,s8,-1084 # 2bc4 <__clz_tab+0x308>
    10ea:	36a9                	jal	c34 <sc_printf>
    10ec:	000033b7          	lui	t2,0x3
    10f0:	a8438513          	addi	a0,t2,-1404 # 2a84 <__clz_tab+0x1c8>
    10f4:	3681                	jal	c34 <sc_printf>
    10f6:	bc4c0513          	addi	a0,s8,-1084
    10fa:	3e2d                	jal	c34 <sc_printf>
    10fc:	5909a583          	lw	a1,1424(s3)
    1100:	000039b7          	lui	s3,0x3
    1104:	abc98513          	addi	a0,s3,-1348 # 2abc <__clz_tab+0x200>
    1108:	3635                	jal	c34 <sc_printf>
    110a:	000039b7          	lui	s3,0x3
    110e:	4595                	li	a1,5
    1110:	ad898513          	addi	a0,s3,-1320 # 2ad8 <__clz_tab+0x21c>
    1114:	3605                	jal	c34 <sc_printf>
    1116:	598ba583          	lw	a1,1432(s7)
    111a:	00003bb7          	lui	s7,0x3
    111e:	af4b8513          	addi	a0,s7,-1292 # 2af4 <__clz_tab+0x238>
    1122:	3e09                	jal	c34 <sc_printf>
    1124:	4585                	li	a1,1
    1126:	ad898513          	addi	a0,s3,-1320
    112a:	3629                	jal	c34 <sc_printf>
    112c:	5accc583          	lbu	a1,1452(s9)
    1130:	00003cb7          	lui	s9,0x3
    1134:	b10c8513          	addi	a0,s9,-1264 # 2b10 <__clz_tab+0x254>
    1138:	3cf5                	jal	c34 <sc_printf>
    113a:	00003db7          	lui	s11,0x3
    113e:	04100593          	li	a1,65
    1142:	b2cd8513          	addi	a0,s11,-1236 # 2b2c <__clz_tab+0x270>
    1146:	34fd                	jal	c34 <sc_printf>
    1148:	4652                	lw	a2,20(sp)
    114a:	000036b7          	lui	a3,0x3
    114e:	b4868513          	addi	a0,a3,-1208 # 2b48 <__clz_tab+0x28c>
    1152:	59464583          	lbu	a1,1428(a2)
    1156:	690d                	lui	s2,0x3
    1158:	00003cb7          	lui	s9,0x3
    115c:	3ce1                	jal	c34 <sc_printf>
    115e:	04200593          	li	a1,66
    1162:	b2cd8513          	addi	a0,s11,-1236
    1166:	34f9                	jal	c34 <sc_printf>
    1168:	080aa583          	lw	a1,128(s5)
    116c:	00003ab7          	lui	s5,0x3
    1170:	b64a8513          	addi	a0,s5,-1180 # 2b64 <__clz_tab+0x2a8>
    1174:	34c1                	jal	c34 <sc_printf>
    1176:	459d                	li	a1,7
    1178:	ad898513          	addi	a0,s3,-1320
    117c:	3c65                	jal	c34 <sc_printf>
    117e:	65cd2583          	lw	a1,1628(s10)
    1182:	00003d37          	lui	s10,0x3
    1186:	b80d0513          	addi	a0,s10,-1152 # 2b80 <__clz_tab+0x2c4>
    118a:	346d                	jal	c34 <sc_printf>
    118c:	000037b7          	lui	a5,0x3
    1190:	b9c78513          	addi	a0,a5,-1124 # 2b9c <__clz_tab+0x2e0>
    1194:	3445                	jal	c34 <sc_printf>
    1196:	000032b7          	lui	t0,0x3
    119a:	bc828513          	addi	a0,t0,-1080 # 2bc8 <__clz_tab+0x30c>
    119e:	3c59                	jal	c34 <sc_printf>
    11a0:	5a492703          	lw	a4,1444(s2) # 35a4 <Ptr_Glob>
    11a4:	000035b7          	lui	a1,0x3
    11a8:	bd458513          	addi	a0,a1,-1068 # 2bd4 <__clz_tab+0x318>
    11ac:	430c                	lw	a1,0(a4)
    11ae:	00003ab7          	lui	s5,0x3
    11b2:	00003c37          	lui	s8,0x3
    11b6:	3cbd                	jal	c34 <sc_printf>
    11b8:	00003fb7          	lui	t6,0x3
    11bc:	bf0f8513          	addi	a0,t6,-1040 # 2bf0 <__clz_tab+0x334>
    11c0:	3c95                	jal	c34 <sc_printf>
    11c2:	5a492f03          	lw	t5,1444(s2)
    11c6:	c24a8513          	addi	a0,s5,-988 # 2c24 <__clz_tab+0x368>
    11ca:	00003bb7          	lui	s7,0x3
    11ce:	004f2583          	lw	a1,4(t5)
    11d2:	00003b37          	lui	s6,0x3
    11d6:	6d0d                	lui	s10,0x3
    11d8:	3cb1                	jal	c34 <sc_printf>
    11da:	4581                	li	a1,0
    11dc:	ad898513          	addi	a0,s3,-1320
    11e0:	3c91                	jal	c34 <sc_printf>
    11e2:	5a492e83          	lw	t4,1444(s2)
    11e6:	c40c8513          	addi	a0,s9,-960 # 2c40 <__clz_tab+0x384>
    11ea:	6d8d                	lui	s11,0x3
    11ec:	008ea583          	lw	a1,8(t4)
    11f0:	3491                	jal	c34 <sc_printf>
    11f2:	4589                	li	a1,2
    11f4:	ad898513          	addi	a0,s3,-1320
    11f8:	3c35                	jal	c34 <sc_printf>
    11fa:	5a492e03          	lw	t3,1444(s2)
    11fe:	c5cc0513          	addi	a0,s8,-932 # 2c5c <__clz_tab+0x3a0>
    1202:	00ce2583          	lw	a1,12(t3)
    1206:	343d                	jal	c34 <sc_printf>
    1208:	45c5                	li	a1,17
    120a:	ad898513          	addi	a0,s3,-1320
    120e:	341d                	jal	c34 <sc_printf>
    1210:	5a492303          	lw	t1,1444(s2)
    1214:	c78b8513          	addi	a0,s7,-904 # 2c78 <__clz_tab+0x3bc>
    1218:	00003937          	lui	s2,0x3
    121c:	01030593          	addi	a1,t1,16
    1220:	3c11                	jal	c34 <sc_printf>
    1222:	c94b0513          	addi	a0,s6,-876 # 2c94 <__clz_tab+0x3d8>
    1226:	3439                	jal	c34 <sc_printf>
    1228:	000038b7          	lui	a7,0x3
    122c:	ccc88513          	addi	a0,a7,-820 # 2ccc <__clz_tab+0x410>
    1230:	3411                	jal	c34 <sc_printf>
    1232:	5a8d2803          	lw	a6,1448(s10) # 35a8 <Next_Ptr_Glob>
    1236:	00003537          	lui	a0,0x3
    123a:	bd450513          	addi	a0,a0,-1068 # 2bd4 <__clz_tab+0x318>
    123e:	00082583          	lw	a1,0(a6)
    1242:	3acd                	jal	c34 <sc_printf>
    1244:	000033b7          	lui	t2,0x3
    1248:	ce038513          	addi	a0,t2,-800 # 2ce0 <__clz_tab+0x424>
    124c:	32e5                	jal	c34 <sc_printf>
    124e:	5a8d2603          	lw	a2,1448(s10)
    1252:	c24a8513          	addi	a0,s5,-988
    1256:	00003ab7          	lui	s5,0x3
    125a:	424c                	lw	a1,4(a2)
    125c:	9d9ff0ef          	jal	ra,c34 <sc_printf>
    1260:	4581                	li	a1,0
    1262:	ad898513          	addi	a0,s3,-1320
    1266:	9cfff0ef          	jal	ra,c34 <sc_printf>
    126a:	5a8d2683          	lw	a3,1448(s10)
    126e:	c40c8513          	addi	a0,s9,-960
    1272:	00003cb7          	lui	s9,0x3
    1276:	468c                	lw	a1,8(a3)
    1278:	9bdff0ef          	jal	ra,c34 <sc_printf>
    127c:	4585                	li	a1,1
    127e:	ad898513          	addi	a0,s3,-1320
    1282:	9b3ff0ef          	jal	ra,c34 <sc_printf>
    1286:	5a8d2783          	lw	a5,1448(s10)
    128a:	c5cc0513          	addi	a0,s8,-932
    128e:	00003c37          	lui	s8,0x3
    1292:	47cc                	lw	a1,12(a5)
    1294:	9a1ff0ef          	jal	ra,c34 <sc_printf>
    1298:	45c9                	li	a1,18
    129a:	ad898513          	addi	a0,s3,-1320
    129e:	997ff0ef          	jal	ra,c34 <sc_printf>
    12a2:	5a8d2283          	lw	t0,1448(s10)
    12a6:	c78b8513          	addi	a0,s7,-904
    12aa:	6b8d                	lui	s7,0x3
    12ac:	01028593          	addi	a1,t0,16
    12b0:	985ff0ef          	jal	ra,c34 <sc_printf>
    12b4:	c94b0513          	addi	a0,s6,-876
    12b8:	97dff0ef          	jal	ra,c34 <sc_printf>
    12bc:	45b2                	lw	a1,12(sp)
    12be:	d2090513          	addi	a0,s2,-736 # 2d20 <__clz_tab+0x464>
    12c2:	973ff0ef          	jal	ra,c34 <sc_printf>
    12c6:	4595                	li	a1,5
    12c8:	ad898513          	addi	a0,s3,-1320
    12cc:	969ff0ef          	jal	ra,c34 <sc_printf>
    12d0:	45e2                	lw	a1,24(sp)
    12d2:	00003737          	lui	a4,0x3
    12d6:	d3c70513          	addi	a0,a4,-708 # 2d3c <__clz_tab+0x480>
    12da:	95bff0ef          	jal	ra,c34 <sc_printf>
    12de:	45b5                	li	a1,13
    12e0:	ad898513          	addi	a0,s3,-1320
    12e4:	951ff0ef          	jal	ra,c34 <sc_printf>
    12e8:	459d                	li	a1,7
    12ea:	d58a8513          	addi	a0,s5,-680 # 2d58 <__clz_tab+0x49c>
    12ee:	947ff0ef          	jal	ra,c34 <sc_printf>
    12f2:	459d                	li	a1,7
    12f4:	ad898513          	addi	a0,s3,-1320
    12f8:	93dff0ef          	jal	ra,c34 <sc_printf>
    12fc:	85d2                	mv	a1,s4
    12fe:	00003a37          	lui	s4,0x3
    1302:	d74a0513          	addi	a0,s4,-652 # 2d74 <__clz_tab+0x4b8>
    1306:	92fff0ef          	jal	ra,c34 <sc_printf>
    130a:	4585                	li	a1,1
    130c:	ad898513          	addi	a0,s3,-1320
    1310:	925ff0ef          	jal	ra,c34 <sc_printf>
    1314:	85a6                	mv	a1,s1
    1316:	000034b7          	lui	s1,0x3
    131a:	d9048513          	addi	a0,s1,-624 # 2d90 <__clz_tab+0x4d4>
    131e:	917ff0ef          	jal	ra,c34 <sc_printf>
    1322:	000039b7          	lui	s3,0x3
    1326:	dac98513          	addi	a0,s3,-596 # 2dac <__clz_tab+0x4f0>
    132a:	90bff0ef          	jal	ra,c34 <sc_printf>
    132e:	85a2                	mv	a1,s0
    1330:	00003437          	lui	s0,0x3
    1334:	de440513          	addi	a0,s0,-540 # 2de4 <__clz_tab+0x528>
    1338:	8fdff0ef          	jal	ra,c34 <sc_printf>
    133c:	e00c8513          	addi	a0,s9,-512 # 2e00 <__clz_tab+0x544>
    1340:	8f5ff0ef          	jal	ra,c34 <sc_printf>
    1344:	bc4c0513          	addi	a0,s8,-1084 # 2bc4 <__clz_tab+0x308>
    1348:	8edff0ef          	jal	ra,c34 <sc_printf>
    134c:	6f8d                	lui	t6,0x3
    134e:	58cfaf03          	lw	t5,1420(t6) # 358c <End_Time>
    1352:	5a0bab03          	lw	s6,1440(s7) # 35a0 <Begin_Time>
    1356:	4e85                	li	t4,1
    1358:	416f0e33          	sub	t3,t5,s6
    135c:	59cda423          	sw	t3,1416(s11) # 3588 <User_Time>
    1360:	09cede63          	bge	t4,t3,13fc <main+0x78c>
    1364:	4342                	lw	t1,16(sp)
    1366:	000f40b7          	lui	ra,0xf4
    136a:	24008613          	addi	a2,ra,576 # f4240 <__C_STACK_TOP__+0xe4240>
    136e:	02c308b3          	mul	a7,t1,a2
    1372:	00003837          	lui	a6,0x3
    1376:	859a                	mv	a1,t1
    1378:	e9080513          	addi	a0,a6,-368 # 2e90 <__clz_tab+0x5d4>
    137c:	6d0d                	lui	s10,0x3
    137e:	6a8d                	lui	s5,0x3
    1380:	03c8c6b3          	div	a3,a7,t3
    1384:	026e43b3          	div	t2,t3,t1
    1388:	58daa023          	sw	a3,1408(s5) # 3580 <__BSS_START__>
    138c:	587d2223          	sw	t2,1412(s10) # 3584 <Microseconds>
    1390:	8a5ff0ef          	jal	ra,c34 <sc_printf>
    1394:	588da683          	lw	a3,1416(s11)
    1398:	650d                	lui	a0,0x3
    139a:	6d8d                	lui	s11,0x3
    139c:	5a052583          	lw	a1,1440(a0) # 35a0 <Begin_Time>
    13a0:	58cda603          	lw	a2,1420(s11) # 358c <End_Time>
    13a4:	000037b7          	lui	a5,0x3
    13a8:	eb078513          	addi	a0,a5,-336 # 2eb0 <__clz_tab+0x5f4>
    13ac:	889ff0ef          	jal	ra,c34 <sc_printf>
    13b0:	584d2583          	lw	a1,1412(s10)
    13b4:	00003637          	lui	a2,0x3
    13b8:	ed860513          	addi	a0,a2,-296 # 2ed8 <__clz_tab+0x61c>
    13bc:	879ff0ef          	jal	ra,c34 <sc_printf>
    13c0:	580aa583          	lw	a1,1408(s5)
    13c4:	000032b7          	lui	t0,0x3
    13c8:	f0c28513          	addi	a0,t0,-244 # 2f0c <__clz_tab+0x650>
    13cc:	869ff0ef          	jal	ra,c34 <sc_printf>
    13d0:	50fa                	lw	ra,188(sp)
    13d2:	546a                	lw	s0,184(sp)
    13d4:	54da                	lw	s1,180(sp)
    13d6:	594a                	lw	s2,176(sp)
    13d8:	59ba                	lw	s3,172(sp)
    13da:	5a2a                	lw	s4,168(sp)
    13dc:	5a9a                	lw	s5,164(sp)
    13de:	5b0a                	lw	s6,160(sp)
    13e0:	4bfa                	lw	s7,156(sp)
    13e2:	4c6a                	lw	s8,152(sp)
    13e4:	4cda                	lw	s9,148(sp)
    13e6:	4d4a                	lw	s10,144(sp)
    13e8:	4dba                	lw	s11,140(sp)
    13ea:	4501                	li	a0,0
    13ec:	6129                	addi	sp,sp,192
    13ee:	8082                	ret
    13f0:	000a2423          	sw	zero,8(s4)
    13f4:	b101                	j	ff4 <main+0x384>
    13f6:	005a2423          	sw	t0,8(s4)
    13fa:	beed                	j	ff4 <main+0x384>
    13fc:	000035b7          	lui	a1,0x3
    1400:	e3858513          	addi	a0,a1,-456 # 2e38 <__clz_tab+0x57c>
    1404:	831ff0ef          	jal	ra,c34 <sc_printf>
    1408:	00003937          	lui	s2,0x3
    140c:	e7090513          	addi	a0,s2,-400 # 2e70 <__clz_tab+0x5b4>
    1410:	825ff0ef          	jal	ra,c34 <sc_printf>
    1414:	bc4c0513          	addi	a0,s8,-1084
    1418:	81dff0ef          	jal	ra,c34 <sc_printf>
    141c:	bf55                	j	13d0 <main+0x760>
    141e:	680d                	lui	a6,0x3
    1420:	6c8d                	lui	s9,0x3
    1422:	ca42                	sw	a6,20(sp)
    1424:	0080                	addi	s0,sp,64
    1426:	1084                	addi	s1,sp,96
    1428:	6b8d                	lui	s7,0x3
    142a:	698d                	lui	s3,0x3
    142c:	b145                	j	10cc <main+0x45c>
	...

00001430 <atoi>:
    1430:	00a00613          	li	a2,10
    1434:	00000593          	li	a1,0
    1438:	22c0006f          	j	1664 <strtol>

0000143c <_atoi_r>:
    143c:	00a00693          	li	a3,10
    1440:	00000613          	li	a2,0
    1444:	1e80006f          	j	162c <_strtol_r>

00001448 <strnlen>:
    1448:	00b505b3          	add	a1,a0,a1
    144c:	00050793          	mv	a5,a0
    1450:	00b78663          	beq	a5,a1,145c <strnlen+0x14>
    1454:	0007c703          	lbu	a4,0(a5)
    1458:	00071663          	bnez	a4,1464 <strnlen+0x1c>
    145c:	40a78533          	sub	a0,a5,a0
    1460:	00008067          	ret
    1464:	00178793          	addi	a5,a5,1
    1468:	fe9ff06f          	j	1450 <strnlen+0x8>

0000146c <_strtol_l.isra.0>:
    146c:	fd010113          	addi	sp,sp,-48
    1470:	03212023          	sw	s2,32(sp)
    1474:	01312e23          	sw	s3,28(sp)
    1478:	02112623          	sw	ra,44(sp)
    147c:	02812423          	sw	s0,40(sp)
    1480:	02912223          	sw	s1,36(sp)
    1484:	00050993          	mv	s3,a0
    1488:	00058913          	mv	s2,a1
    148c:	00190493          	addi	s1,s2,1
    1490:	fff4c403          	lbu	s0,-1(s1)
    1494:	00070513          	mv	a0,a4
    1498:	00d12623          	sw	a3,12(sp)
    149c:	00c12423          	sw	a2,8(sp)
    14a0:	00b12223          	sw	a1,4(sp)
    14a4:	00e12023          	sw	a4,0(sp)
    14a8:	27c000ef          	jal	ra,1724 <__locale_ctype_ptr_l>
    14ac:	00850533          	add	a0,a0,s0
    14b0:	00154783          	lbu	a5,1(a0)
    14b4:	00012703          	lw	a4,0(sp)
    14b8:	00412583          	lw	a1,4(sp)
    14bc:	0087f793          	andi	a5,a5,8
    14c0:	00812603          	lw	a2,8(sp)
    14c4:	00c12683          	lw	a3,12(sp)
    14c8:	0a079663          	bnez	a5,1574 <_strtol_l.isra.0+0x108>
    14cc:	02d00793          	li	a5,45
    14d0:	0af41663          	bne	s0,a5,157c <_strtol_l.isra.0+0x110>
    14d4:	0004c783          	lbu	a5,0(s1)
    14d8:	00100313          	li	t1,1
    14dc:	00290493          	addi	s1,s2,2
    14e0:	12068e63          	beqz	a3,161c <_strtol_l.isra.0+0x1b0>
    14e4:	01000713          	li	a4,16
    14e8:	02e69463          	bne	a3,a4,1510 <_strtol_l.isra.0+0xa4>
    14ec:	03000713          	li	a4,48
    14f0:	02e79063          	bne	a5,a4,1510 <_strtol_l.isra.0+0xa4>
    14f4:	0004c783          	lbu	a5,0(s1)
    14f8:	05800713          	li	a4,88
    14fc:	0df7f793          	andi	a5,a5,223
    1500:	10e79663          	bne	a5,a4,160c <_strtol_l.isra.0+0x1a0>
    1504:	0014c783          	lbu	a5,1(s1)
    1508:	01000693          	li	a3,16
    150c:	00248493          	addi	s1,s1,2
    1510:	800008b7          	lui	a7,0x80000
    1514:	00031463          	bnez	t1,151c <_strtol_l.isra.0+0xb0>
    1518:	fff8c893          	not	a7,a7
    151c:	02d8ff33          	remu	t5,a7,a3
    1520:	00000813          	li	a6,0
    1524:	00000513          	li	a0,0
    1528:	00900f93          	li	t6,9
    152c:	01900e93          	li	t4,25
    1530:	fff00293          	li	t0,-1
    1534:	02d8de33          	divu	t3,a7,a3
    1538:	fd078713          	addi	a4,a5,-48
    153c:	06efe063          	bltu	t6,a4,159c <_strtol_l.isra.0+0x130>
    1540:	00070793          	mv	a5,a4
    1544:	06d7dc63          	bge	a5,a3,15bc <_strtol_l.isra.0+0x150>
    1548:	02580063          	beq	a6,t0,1568 <_strtol_l.isra.0+0xfc>
    154c:	fff00813          	li	a6,-1
    1550:	00ae6c63          	bltu	t3,a0,1568 <_strtol_l.isra.0+0xfc>
    1554:	00ae1463          	bne	t3,a0,155c <_strtol_l.isra.0+0xf0>
    1558:	00ff4863          	blt	t5,a5,1568 <_strtol_l.isra.0+0xfc>
    155c:	00100813          	li	a6,1
    1560:	02a68533          	mul	a0,a3,a0
    1564:	00a78533          	add	a0,a5,a0
    1568:	00148493          	addi	s1,s1,1
    156c:	fff4c783          	lbu	a5,-1(s1)
    1570:	fc9ff06f          	j	1538 <_strtol_l.isra.0+0xcc>
    1574:	00048913          	mv	s2,s1
    1578:	f15ff06f          	j	148c <_strtol_l.isra.0+0x20>
    157c:	02b00793          	li	a5,43
    1580:	00f40863          	beq	s0,a5,1590 <_strtol_l.isra.0+0x124>
    1584:	00040793          	mv	a5,s0
    1588:	00000313          	li	t1,0
    158c:	f55ff06f          	j	14e0 <_strtol_l.isra.0+0x74>
    1590:	0004c783          	lbu	a5,0(s1)
    1594:	00290493          	addi	s1,s2,2
    1598:	ff1ff06f          	j	1588 <_strtol_l.isra.0+0x11c>
    159c:	fbf78713          	addi	a4,a5,-65
    15a0:	00eee663          	bltu	t4,a4,15ac <_strtol_l.isra.0+0x140>
    15a4:	fc978793          	addi	a5,a5,-55
    15a8:	f9dff06f          	j	1544 <_strtol_l.isra.0+0xd8>
    15ac:	f9f78713          	addi	a4,a5,-97
    15b0:	00eee663          	bltu	t4,a4,15bc <_strtol_l.isra.0+0x150>
    15b4:	fa978793          	addi	a5,a5,-87
    15b8:	f8dff06f          	j	1544 <_strtol_l.isra.0+0xd8>
    15bc:	fff00793          	li	a5,-1
    15c0:	02f81863          	bne	a6,a5,15f0 <_strtol_l.isra.0+0x184>
    15c4:	02200793          	li	a5,34
    15c8:	00f9a023          	sw	a5,0(s3) # 3000 <impure_data+0x50>
    15cc:	00088513          	mv	a0,a7
    15d0:	02061863          	bnez	a2,1600 <_strtol_l.isra.0+0x194>
    15d4:	02c12083          	lw	ra,44(sp)
    15d8:	02812403          	lw	s0,40(sp)
    15dc:	02412483          	lw	s1,36(sp)
    15e0:	02012903          	lw	s2,32(sp)
    15e4:	01c12983          	lw	s3,28(sp)
    15e8:	03010113          	addi	sp,sp,48
    15ec:	00008067          	ret
    15f0:	00030463          	beqz	t1,15f8 <_strtol_l.isra.0+0x18c>
    15f4:	40a00533          	neg	a0,a0
    15f8:	fc060ee3          	beqz	a2,15d4 <_strtol_l.isra.0+0x168>
    15fc:	00080463          	beqz	a6,1604 <_strtol_l.isra.0+0x198>
    1600:	fff48593          	addi	a1,s1,-1
    1604:	00b62023          	sw	a1,0(a2)
    1608:	fcdff06f          	j	15d4 <_strtol_l.isra.0+0x168>
    160c:	03000793          	li	a5,48
    1610:	f00690e3          	bnez	a3,1510 <_strtol_l.isra.0+0xa4>
    1614:	00800693          	li	a3,8
    1618:	ef9ff06f          	j	1510 <_strtol_l.isra.0+0xa4>
    161c:	03000713          	li	a4,48
    1620:	ece78ae3          	beq	a5,a4,14f4 <_strtol_l.isra.0+0x88>
    1624:	00a00693          	li	a3,10
    1628:	ee9ff06f          	j	1510 <_strtol_l.isra.0+0xa4>

0000162c <_strtol_r>:
    162c:	000037b7          	lui	a5,0x3
    1630:	5647a783          	lw	a5,1380(a5) # 3564 <_impure_ptr>
    1634:	0347a703          	lw	a4,52(a5)
    1638:	00071663          	bnez	a4,1644 <_strtol_r+0x18>
    163c:	00003737          	lui	a4,0x3
    1640:	3d870713          	addi	a4,a4,984 # 33d8 <__global_locale>
    1644:	e29ff06f          	j	146c <_strtol_l.isra.0>

00001648 <strtol_l>:
    1648:	000037b7          	lui	a5,0x3
    164c:	00068713          	mv	a4,a3
    1650:	00060693          	mv	a3,a2
    1654:	00058613          	mv	a2,a1
    1658:	00050593          	mv	a1,a0
    165c:	5647a503          	lw	a0,1380(a5) # 3564 <_impure_ptr>
    1660:	e0dff06f          	j	146c <_strtol_l.isra.0>

00001664 <strtol>:
    1664:	000037b7          	lui	a5,0x3
    1668:	5647a783          	lw	a5,1380(a5) # 3564 <_impure_ptr>
    166c:	00060693          	mv	a3,a2
    1670:	0347a703          	lw	a4,52(a5)
    1674:	00071663          	bnez	a4,1680 <strtol+0x1c>
    1678:	00003737          	lui	a4,0x3
    167c:	3d870713          	addi	a4,a4,984 # 33d8 <__global_locale>
    1680:	00058613          	mv	a2,a1
    1684:	00050593          	mv	a1,a0
    1688:	00078513          	mv	a0,a5
    168c:	de1ff06f          	j	146c <_strtol_l.isra.0>

00001690 <_setlocale_r>:
    1690:	ff010113          	addi	sp,sp,-16
    1694:	00912223          	sw	s1,4(sp)
    1698:	00112623          	sw	ra,12(sp)
    169c:	00812423          	sw	s0,8(sp)
    16a0:	000034b7          	lui	s1,0x3
    16a4:	00061e63          	bnez	a2,16c0 <_setlocale_r+0x30>
    16a8:	fa048513          	addi	a0,s1,-96 # 2fa0 <__clz_tab+0x6e4>
    16ac:	00c12083          	lw	ra,12(sp)
    16b0:	00812403          	lw	s0,8(sp)
    16b4:	00412483          	lw	s1,4(sp)
    16b8:	01010113          	addi	sp,sp,16
    16bc:	00008067          	ret
    16c0:	000035b7          	lui	a1,0x3
    16c4:	fa458593          	addi	a1,a1,-92 # 2fa4 <__clz_tab+0x6e8>
    16c8:	00060513          	mv	a0,a2
    16cc:	00060413          	mv	s0,a2
    16d0:	10c000ef          	jal	ra,17dc <strcmp>
    16d4:	fc050ae3          	beqz	a0,16a8 <_setlocale_r+0x18>
    16d8:	fa048593          	addi	a1,s1,-96
    16dc:	00040513          	mv	a0,s0
    16e0:	0fc000ef          	jal	ra,17dc <strcmp>
    16e4:	fc0502e3          	beqz	a0,16a8 <_setlocale_r+0x18>
    16e8:	000035b7          	lui	a1,0x3
    16ec:	c2058593          	addi	a1,a1,-992 # 2c20 <__clz_tab+0x364>
    16f0:	00040513          	mv	a0,s0
    16f4:	0e8000ef          	jal	ra,17dc <strcmp>
    16f8:	fa0508e3          	beqz	a0,16a8 <_setlocale_r+0x18>
    16fc:	00000513          	li	a0,0
    1700:	fadff06f          	j	16ac <_setlocale_r+0x1c>

00001704 <__locale_mb_cur_max>:
    1704:	000037b7          	lui	a5,0x3
    1708:	5647a783          	lw	a5,1380(a5) # 3564 <_impure_ptr>
    170c:	0347a783          	lw	a5,52(a5)
    1710:	00079663          	bnez	a5,171c <__locale_mb_cur_max+0x18>
    1714:	000037b7          	lui	a5,0x3
    1718:	3d878793          	addi	a5,a5,984 # 33d8 <__global_locale>
    171c:	1287c503          	lbu	a0,296(a5)
    1720:	00008067          	ret

00001724 <__locale_ctype_ptr_l>:
    1724:	0ec52503          	lw	a0,236(a0)
    1728:	00008067          	ret

0000172c <__locale_ctype_ptr>:
    172c:	000037b7          	lui	a5,0x3
    1730:	5647a783          	lw	a5,1380(a5) # 3564 <_impure_ptr>
    1734:	0347a783          	lw	a5,52(a5)
    1738:	00079663          	bnez	a5,1744 <__locale_ctype_ptr+0x18>
    173c:	000037b7          	lui	a5,0x3
    1740:	3d878793          	addi	a5,a5,984 # 33d8 <__global_locale>
    1744:	0ec7a503          	lw	a0,236(a5)
    1748:	00008067          	ret

0000174c <setlocale>:
    174c:	000037b7          	lui	a5,0x3
    1750:	00058613          	mv	a2,a1
    1754:	00050593          	mv	a1,a0
    1758:	5647a503          	lw	a0,1380(a5) # 3564 <_impure_ptr>
    175c:	f35ff06f          	j	1690 <_setlocale_r>

00001760 <_mbtowc_r>:
    1760:	000037b7          	lui	a5,0x3
    1764:	5647a783          	lw	a5,1380(a5) # 3564 <_impure_ptr>
    1768:	0347a783          	lw	a5,52(a5)
    176c:	00079663          	bnez	a5,1778 <_mbtowc_r+0x18>
    1770:	000037b7          	lui	a5,0x3
    1774:	3d878793          	addi	a5,a5,984 # 33d8 <__global_locale>
    1778:	0e47a303          	lw	t1,228(a5)
    177c:	00030067          	jr	t1

00001780 <__ascii_mbtowc>:
    1780:	02059a63          	bnez	a1,17b4 <__ascii_mbtowc+0x34>
    1784:	ff010113          	addi	sp,sp,-16
    1788:	00c10593          	addi	a1,sp,12
    178c:	00000513          	li	a0,0
    1790:	00060e63          	beqz	a2,17ac <__ascii_mbtowc+0x2c>
    1794:	ffe00513          	li	a0,-2
    1798:	00068a63          	beqz	a3,17ac <__ascii_mbtowc+0x2c>
    179c:	00064783          	lbu	a5,0(a2)
    17a0:	00f5a023          	sw	a5,0(a1)
    17a4:	00064503          	lbu	a0,0(a2)
    17a8:	00a03533          	snez	a0,a0
    17ac:	01010113          	addi	sp,sp,16
    17b0:	00008067          	ret
    17b4:	00000513          	li	a0,0
    17b8:	02060063          	beqz	a2,17d8 <__ascii_mbtowc+0x58>
    17bc:	ffe00513          	li	a0,-2
    17c0:	00068c63          	beqz	a3,17d8 <__ascii_mbtowc+0x58>
    17c4:	00064783          	lbu	a5,0(a2)
    17c8:	00f5a023          	sw	a5,0(a1)
    17cc:	00064503          	lbu	a0,0(a2)
    17d0:	00a03533          	snez	a0,a0
    17d4:	00008067          	ret
    17d8:	00008067          	ret

000017dc <strcmp>:
    17dc:	00b56733          	or	a4,a0,a1
    17e0:	fff00393          	li	t2,-1
    17e4:	00377713          	andi	a4,a4,3
    17e8:	10071063          	bnez	a4,18e8 <strcmp+0x10c>
    17ec:	7f7f87b7          	lui	a5,0x7f7f8
    17f0:	f7f78793          	addi	a5,a5,-129 # 7f7f7f7f <__C_STACK_TOP__+0x7f7e7f7f>
    17f4:	00052603          	lw	a2,0(a0)
    17f8:	0005a683          	lw	a3,0(a1)
    17fc:	00f672b3          	and	t0,a2,a5
    1800:	00f66333          	or	t1,a2,a5
    1804:	00f282b3          	add	t0,t0,a5
    1808:	0062e2b3          	or	t0,t0,t1
    180c:	10729263          	bne	t0,t2,1910 <strcmp+0x134>
    1810:	08d61663          	bne	a2,a3,189c <strcmp+0xc0>
    1814:	00452603          	lw	a2,4(a0)
    1818:	0045a683          	lw	a3,4(a1)
    181c:	00f672b3          	and	t0,a2,a5
    1820:	00f66333          	or	t1,a2,a5
    1824:	00f282b3          	add	t0,t0,a5
    1828:	0062e2b3          	or	t0,t0,t1
    182c:	0c729e63          	bne	t0,t2,1908 <strcmp+0x12c>
    1830:	06d61663          	bne	a2,a3,189c <strcmp+0xc0>
    1834:	00852603          	lw	a2,8(a0)
    1838:	0085a683          	lw	a3,8(a1)
    183c:	00f672b3          	and	t0,a2,a5
    1840:	00f66333          	or	t1,a2,a5
    1844:	00f282b3          	add	t0,t0,a5
    1848:	0062e2b3          	or	t0,t0,t1
    184c:	0c729863          	bne	t0,t2,191c <strcmp+0x140>
    1850:	04d61663          	bne	a2,a3,189c <strcmp+0xc0>
    1854:	00c52603          	lw	a2,12(a0)
    1858:	00c5a683          	lw	a3,12(a1)
    185c:	00f672b3          	and	t0,a2,a5
    1860:	00f66333          	or	t1,a2,a5
    1864:	00f282b3          	add	t0,t0,a5
    1868:	0062e2b3          	or	t0,t0,t1
    186c:	0c729263          	bne	t0,t2,1930 <strcmp+0x154>
    1870:	02d61663          	bne	a2,a3,189c <strcmp+0xc0>
    1874:	01052603          	lw	a2,16(a0)
    1878:	0105a683          	lw	a3,16(a1)
    187c:	00f672b3          	and	t0,a2,a5
    1880:	00f66333          	or	t1,a2,a5
    1884:	00f282b3          	add	t0,t0,a5
    1888:	0062e2b3          	or	t0,t0,t1
    188c:	0a729c63          	bne	t0,t2,1944 <strcmp+0x168>
    1890:	01450513          	addi	a0,a0,20
    1894:	01458593          	addi	a1,a1,20
    1898:	f4d60ee3          	beq	a2,a3,17f4 <strcmp+0x18>
    189c:	01061713          	slli	a4,a2,0x10
    18a0:	01069793          	slli	a5,a3,0x10
    18a4:	00f71e63          	bne	a4,a5,18c0 <strcmp+0xe4>
    18a8:	01065713          	srli	a4,a2,0x10
    18ac:	0106d793          	srli	a5,a3,0x10
    18b0:	40f70533          	sub	a0,a4,a5
    18b4:	0ff57593          	andi	a1,a0,255
    18b8:	02059063          	bnez	a1,18d8 <strcmp+0xfc>
    18bc:	00008067          	ret
    18c0:	01075713          	srli	a4,a4,0x10
    18c4:	0107d793          	srli	a5,a5,0x10
    18c8:	40f70533          	sub	a0,a4,a5
    18cc:	0ff57593          	andi	a1,a0,255
    18d0:	00059463          	bnez	a1,18d8 <strcmp+0xfc>
    18d4:	00008067          	ret
    18d8:	0ff77713          	andi	a4,a4,255
    18dc:	0ff7f793          	andi	a5,a5,255
    18e0:	40f70533          	sub	a0,a4,a5
    18e4:	00008067          	ret
    18e8:	00054603          	lbu	a2,0(a0)
    18ec:	0005c683          	lbu	a3,0(a1)
    18f0:	00150513          	addi	a0,a0,1
    18f4:	00158593          	addi	a1,a1,1
    18f8:	00d61463          	bne	a2,a3,1900 <strcmp+0x124>
    18fc:	fe0616e3          	bnez	a2,18e8 <strcmp+0x10c>
    1900:	40d60533          	sub	a0,a2,a3
    1904:	00008067          	ret
    1908:	00450513          	addi	a0,a0,4
    190c:	00458593          	addi	a1,a1,4
    1910:	fcd61ce3          	bne	a2,a3,18e8 <strcmp+0x10c>
    1914:	00000513          	li	a0,0
    1918:	00008067          	ret
    191c:	00850513          	addi	a0,a0,8
    1920:	00858593          	addi	a1,a1,8
    1924:	fcd612e3          	bne	a2,a3,18e8 <strcmp+0x10c>
    1928:	00000513          	li	a0,0
    192c:	00008067          	ret
    1930:	00c50513          	addi	a0,a0,12
    1934:	00c58593          	addi	a1,a1,12
    1938:	fad618e3          	bne	a2,a3,18e8 <strcmp+0x10c>
    193c:	00000513          	li	a0,0
    1940:	00008067          	ret
    1944:	01050513          	addi	a0,a0,16
    1948:	01058593          	addi	a1,a1,16
    194c:	f8d61ee3          	bne	a2,a3,18e8 <strcmp+0x10c>
    1950:	00000513          	li	a0,0
    1954:	00008067          	ret

00001958 <_wctomb_r>:
    1958:	000037b7          	lui	a5,0x3
    195c:	5647a783          	lw	a5,1380(a5) # 3564 <_impure_ptr>
    1960:	0347a783          	lw	a5,52(a5)
    1964:	00079663          	bnez	a5,1970 <_wctomb_r+0x18>
    1968:	000037b7          	lui	a5,0x3
    196c:	3d878793          	addi	a5,a5,984 # 33d8 <__global_locale>
    1970:	0e07a303          	lw	t1,224(a5)
    1974:	00030067          	jr	t1

00001978 <__ascii_wctomb>:
    1978:	02058463          	beqz	a1,19a0 <__ascii_wctomb+0x28>
    197c:	0ff00793          	li	a5,255
    1980:	00c7fa63          	bgeu	a5,a2,1994 <__ascii_wctomb+0x1c>
    1984:	08a00793          	li	a5,138
    1988:	00f52023          	sw	a5,0(a0)
    198c:	fff00513          	li	a0,-1
    1990:	00008067          	ret
    1994:	00c58023          	sb	a2,0(a1)
    1998:	00100513          	li	a0,1
    199c:	00008067          	ret
    19a0:	00000513          	li	a0,0
    19a4:	00008067          	ret

000019a8 <__moddi3>:
    19a8:	00000893          	li	a7,0
    19ac:	0005dc63          	bgez	a1,19c4 <__moddi3+0x1c>
    19b0:	40a00533          	neg	a0,a0
    19b4:	00a037b3          	snez	a5,a0
    19b8:	40b005b3          	neg	a1,a1
    19bc:	40f585b3          	sub	a1,a1,a5
    19c0:	fff00893          	li	a7,-1
    19c4:	0006da63          	bgez	a3,19d8 <__moddi3+0x30>
    19c8:	40c00633          	neg	a2,a2
    19cc:	00c037b3          	snez	a5,a2
    19d0:	40d006b3          	neg	a3,a3
    19d4:	40f686b3          	sub	a3,a3,a5
    19d8:	00060313          	mv	t1,a2
    19dc:	00068713          	mv	a4,a3
    19e0:	00050793          	mv	a5,a0
    19e4:	00058813          	mv	a6,a1
    19e8:	24069863          	bnez	a3,1c38 <__moddi3+0x290>
    19ec:	000036b7          	lui	a3,0x3
    19f0:	8bc68693          	addi	a3,a3,-1860 # 28bc <__clz_tab>
    19f4:	0ec5f863          	bgeu	a1,a2,1ae4 <__moddi3+0x13c>
    19f8:	00010e37          	lui	t3,0x10
    19fc:	0dc67a63          	bgeu	a2,t3,1ad0 <__moddi3+0x128>
    1a00:	0ff00e13          	li	t3,255
    1a04:	00ce7463          	bgeu	t3,a2,1a0c <__moddi3+0x64>
    1a08:	00800713          	li	a4,8
    1a0c:	00e65e33          	srl	t3,a2,a4
    1a10:	01c686b3          	add	a3,a3,t3
    1a14:	0006ce83          	lbu	t4,0(a3)
    1a18:	02000e13          	li	t3,32
    1a1c:	00ee8eb3          	add	t4,t4,a4
    1a20:	41de0e33          	sub	t3,t3,t4
    1a24:	000e0c63          	beqz	t3,1a3c <__moddi3+0x94>
    1a28:	01c595b3          	sll	a1,a1,t3
    1a2c:	01d55eb3          	srl	t4,a0,t4
    1a30:	01c61333          	sll	t1,a2,t3
    1a34:	00bee833          	or	a6,t4,a1
    1a38:	01c517b3          	sll	a5,a0,t3
    1a3c:	01035613          	srli	a2,t1,0x10
    1a40:	02c876b3          	remu	a3,a6,a2
    1a44:	01031513          	slli	a0,t1,0x10
    1a48:	01055513          	srli	a0,a0,0x10
    1a4c:	0107d713          	srli	a4,a5,0x10
    1a50:	02c85833          	divu	a6,a6,a2
    1a54:	01069693          	slli	a3,a3,0x10
    1a58:	00e6e733          	or	a4,a3,a4
    1a5c:	03050833          	mul	a6,a0,a6
    1a60:	01077a63          	bgeu	a4,a6,1a74 <__moddi3+0xcc>
    1a64:	00670733          	add	a4,a4,t1
    1a68:	00676663          	bltu	a4,t1,1a74 <__moddi3+0xcc>
    1a6c:	01077463          	bgeu	a4,a6,1a74 <__moddi3+0xcc>
    1a70:	00670733          	add	a4,a4,t1
    1a74:	41070733          	sub	a4,a4,a6
    1a78:	02c776b3          	remu	a3,a4,a2
    1a7c:	01079793          	slli	a5,a5,0x10
    1a80:	0107d793          	srli	a5,a5,0x10
    1a84:	02c75733          	divu	a4,a4,a2
    1a88:	02e50733          	mul	a4,a0,a4
    1a8c:	01069513          	slli	a0,a3,0x10
    1a90:	00f567b3          	or	a5,a0,a5
    1a94:	00e7fa63          	bgeu	a5,a4,1aa8 <__moddi3+0x100>
    1a98:	006787b3          	add	a5,a5,t1
    1a9c:	0067e663          	bltu	a5,t1,1aa8 <__moddi3+0x100>
    1aa0:	00e7f463          	bgeu	a5,a4,1aa8 <__moddi3+0x100>
    1aa4:	006787b3          	add	a5,a5,t1
    1aa8:	40e787b3          	sub	a5,a5,a4
    1aac:	01c7d533          	srl	a0,a5,t3
    1ab0:	00000593          	li	a1,0
    1ab4:	00088c63          	beqz	a7,1acc <__moddi3+0x124>
    1ab8:	40a007b3          	neg	a5,a0
    1abc:	00f03733          	snez	a4,a5
    1ac0:	40b005b3          	neg	a1,a1
    1ac4:	00078513          	mv	a0,a5
    1ac8:	40e585b3          	sub	a1,a1,a4
    1acc:	00008067          	ret
    1ad0:	01000e37          	lui	t3,0x1000
    1ad4:	01000713          	li	a4,16
    1ad8:	f3c66ae3          	bltu	a2,t3,1a0c <__moddi3+0x64>
    1adc:	01800713          	li	a4,24
    1ae0:	f2dff06f          	j	1a0c <__moddi3+0x64>
    1ae4:	00061663          	bnez	a2,1af0 <__moddi3+0x148>
    1ae8:	00100313          	li	t1,1
    1aec:	02e35333          	divu	t1,t1,a4
    1af0:	00010637          	lui	a2,0x10
    1af4:	0ac37263          	bgeu	t1,a2,1b98 <__moddi3+0x1f0>
    1af8:	0ff00613          	li	a2,255
    1afc:	00667463          	bgeu	a2,t1,1b04 <__moddi3+0x15c>
    1b00:	00800713          	li	a4,8
    1b04:	00e35633          	srl	a2,t1,a4
    1b08:	00c686b3          	add	a3,a3,a2
    1b0c:	0006ce83          	lbu	t4,0(a3)
    1b10:	02000e13          	li	t3,32
    1b14:	00ee8eb3          	add	t4,t4,a4
    1b18:	41de0e33          	sub	t3,t3,t4
    1b1c:	080e1863          	bnez	t3,1bac <__moddi3+0x204>
    1b20:	406585b3          	sub	a1,a1,t1
    1b24:	01035693          	srli	a3,t1,0x10
    1b28:	01031513          	slli	a0,t1,0x10
    1b2c:	01055513          	srli	a0,a0,0x10
    1b30:	0107d613          	srli	a2,a5,0x10
    1b34:	02d5f733          	remu	a4,a1,a3
    1b38:	02d5d5b3          	divu	a1,a1,a3
    1b3c:	01071713          	slli	a4,a4,0x10
    1b40:	00c76733          	or	a4,a4,a2
    1b44:	02b505b3          	mul	a1,a0,a1
    1b48:	00b77a63          	bgeu	a4,a1,1b5c <__moddi3+0x1b4>
    1b4c:	00670733          	add	a4,a4,t1
    1b50:	00676663          	bltu	a4,t1,1b5c <__moddi3+0x1b4>
    1b54:	00b77463          	bgeu	a4,a1,1b5c <__moddi3+0x1b4>
    1b58:	00670733          	add	a4,a4,t1
    1b5c:	40b705b3          	sub	a1,a4,a1
    1b60:	02d5f733          	remu	a4,a1,a3
    1b64:	01079793          	slli	a5,a5,0x10
    1b68:	0107d793          	srli	a5,a5,0x10
    1b6c:	02d5d5b3          	divu	a1,a1,a3
    1b70:	02b505b3          	mul	a1,a0,a1
    1b74:	01071513          	slli	a0,a4,0x10
    1b78:	00f567b3          	or	a5,a0,a5
    1b7c:	00b7fa63          	bgeu	a5,a1,1b90 <__moddi3+0x1e8>
    1b80:	006787b3          	add	a5,a5,t1
    1b84:	0067e663          	bltu	a5,t1,1b90 <__moddi3+0x1e8>
    1b88:	00b7f463          	bgeu	a5,a1,1b90 <__moddi3+0x1e8>
    1b8c:	006787b3          	add	a5,a5,t1
    1b90:	40b787b3          	sub	a5,a5,a1
    1b94:	f19ff06f          	j	1aac <__moddi3+0x104>
    1b98:	01000637          	lui	a2,0x1000
    1b9c:	01000713          	li	a4,16
    1ba0:	f6c362e3          	bltu	t1,a2,1b04 <__moddi3+0x15c>
    1ba4:	01800713          	li	a4,24
    1ba8:	f5dff06f          	j	1b04 <__moddi3+0x15c>
    1bac:	01c31333          	sll	t1,t1,t3
    1bb0:	01d5df33          	srl	t5,a1,t4
    1bb4:	01c517b3          	sll	a5,a0,t3
    1bb8:	01d55eb3          	srl	t4,a0,t4
    1bbc:	01035513          	srli	a0,t1,0x10
    1bc0:	02af56b3          	divu	a3,t5,a0
    1bc4:	01c595b3          	sll	a1,a1,t3
    1bc8:	00beeeb3          	or	t4,t4,a1
    1bcc:	01031593          	slli	a1,t1,0x10
    1bd0:	0105d593          	srli	a1,a1,0x10
    1bd4:	010ed613          	srli	a2,t4,0x10
    1bd8:	02af7733          	remu	a4,t5,a0
    1bdc:	02d586b3          	mul	a3,a1,a3
    1be0:	01071713          	slli	a4,a4,0x10
    1be4:	00c76733          	or	a4,a4,a2
    1be8:	00d77a63          	bgeu	a4,a3,1bfc <__moddi3+0x254>
    1bec:	00670733          	add	a4,a4,t1
    1bf0:	00676663          	bltu	a4,t1,1bfc <__moddi3+0x254>
    1bf4:	00d77463          	bgeu	a4,a3,1bfc <__moddi3+0x254>
    1bf8:	00670733          	add	a4,a4,t1
    1bfc:	40d70633          	sub	a2,a4,a3
    1c00:	02a67733          	remu	a4,a2,a0
    1c04:	010e9e93          	slli	t4,t4,0x10
    1c08:	010ede93          	srli	t4,t4,0x10
    1c0c:	02a65633          	divu	a2,a2,a0
    1c10:	01071713          	slli	a4,a4,0x10
    1c14:	02c58633          	mul	a2,a1,a2
    1c18:	01d765b3          	or	a1,a4,t4
    1c1c:	00c5fa63          	bgeu	a1,a2,1c30 <__moddi3+0x288>
    1c20:	006585b3          	add	a1,a1,t1
    1c24:	0065e663          	bltu	a1,t1,1c30 <__moddi3+0x288>
    1c28:	00c5f463          	bgeu	a1,a2,1c30 <__moddi3+0x288>
    1c2c:	006585b3          	add	a1,a1,t1
    1c30:	40c585b3          	sub	a1,a1,a2
    1c34:	ef1ff06f          	j	1b24 <__moddi3+0x17c>
    1c38:	e6d5eee3          	bltu	a1,a3,1ab4 <__moddi3+0x10c>
    1c3c:	00010737          	lui	a4,0x10
    1c40:	04e6fc63          	bgeu	a3,a4,1c98 <__moddi3+0x2f0>
    1c44:	0ff00f13          	li	t5,255
    1c48:	00df3733          	sltu	a4,t5,a3
    1c4c:	00371713          	slli	a4,a4,0x3
    1c50:	00003e37          	lui	t3,0x3
    1c54:	00e6d333          	srl	t1,a3,a4
    1c58:	8bce0e13          	addi	t3,t3,-1860 # 28bc <__clz_tab>
    1c5c:	01c30333          	add	t1,t1,t3
    1c60:	00034f03          	lbu	t5,0(t1)
    1c64:	02000e93          	li	t4,32
    1c68:	00ef0f33          	add	t5,t5,a4
    1c6c:	41ee8eb3          	sub	t4,t4,t5
    1c70:	020e9e63          	bnez	t4,1cac <__moddi3+0x304>
    1c74:	00b6e463          	bltu	a3,a1,1c7c <__moddi3+0x2d4>
    1c78:	00c56a63          	bltu	a0,a2,1c8c <__moddi3+0x2e4>
    1c7c:	40c507b3          	sub	a5,a0,a2
    1c80:	40d586b3          	sub	a3,a1,a3
    1c84:	00f53533          	sltu	a0,a0,a5
    1c88:	40a68833          	sub	a6,a3,a0
    1c8c:	00078513          	mv	a0,a5
    1c90:	00080593          	mv	a1,a6
    1c94:	e21ff06f          	j	1ab4 <__moddi3+0x10c>
    1c98:	01000337          	lui	t1,0x1000
    1c9c:	01000713          	li	a4,16
    1ca0:	fa66e8e3          	bltu	a3,t1,1c50 <__moddi3+0x2a8>
    1ca4:	01800713          	li	a4,24
    1ca8:	fa9ff06f          	j	1c50 <__moddi3+0x2a8>
    1cac:	01e65733          	srl	a4,a2,t5
    1cb0:	01d696b3          	sll	a3,a3,t4
    1cb4:	00d766b3          	or	a3,a4,a3
    1cb8:	01e5d7b3          	srl	a5,a1,t5
    1cbc:	0106d713          	srli	a4,a3,0x10
    1cc0:	02e7fe33          	remu	t3,a5,a4
    1cc4:	01d595b3          	sll	a1,a1,t4
    1cc8:	01e55833          	srl	a6,a0,t5
    1ccc:	00b86833          	or	a6,a6,a1
    1cd0:	01069593          	slli	a1,a3,0x10
    1cd4:	0105d593          	srli	a1,a1,0x10
    1cd8:	01085313          	srli	t1,a6,0x10
    1cdc:	01d61633          	sll	a2,a2,t4
    1ce0:	01d51533          	sll	a0,a0,t4
    1ce4:	02e7d7b3          	divu	a5,a5,a4
    1ce8:	010e1e13          	slli	t3,t3,0x10
    1cec:	006e6333          	or	t1,t3,t1
    1cf0:	02f58fb3          	mul	t6,a1,a5
    1cf4:	00078e13          	mv	t3,a5
    1cf8:	01f37e63          	bgeu	t1,t6,1d14 <__moddi3+0x36c>
    1cfc:	00d30333          	add	t1,t1,a3
    1d00:	fff78e13          	addi	t3,a5,-1
    1d04:	00d36863          	bltu	t1,a3,1d14 <__moddi3+0x36c>
    1d08:	01f37663          	bgeu	t1,t6,1d14 <__moddi3+0x36c>
    1d0c:	ffe78e13          	addi	t3,a5,-2
    1d10:	00d30333          	add	t1,t1,a3
    1d14:	41f30333          	sub	t1,t1,t6
    1d18:	02e37fb3          	remu	t6,t1,a4
    1d1c:	01081813          	slli	a6,a6,0x10
    1d20:	01085813          	srli	a6,a6,0x10
    1d24:	02e35333          	divu	t1,t1,a4
    1d28:	010f9f93          	slli	t6,t6,0x10
    1d2c:	010fefb3          	or	t6,t6,a6
    1d30:	026585b3          	mul	a1,a1,t1
    1d34:	00030793          	mv	a5,t1
    1d38:	00bffe63          	bgeu	t6,a1,1d54 <__moddi3+0x3ac>
    1d3c:	00df8fb3          	add	t6,t6,a3
    1d40:	fff30793          	addi	a5,t1,-1 # ffffff <__C_STACK_TOP__+0xfeffff>
    1d44:	00dfe863          	bltu	t6,a3,1d54 <__moddi3+0x3ac>
    1d48:	00bff663          	bgeu	t6,a1,1d54 <__moddi3+0x3ac>
    1d4c:	ffe30793          	addi	a5,t1,-2
    1d50:	00df8fb3          	add	t6,t6,a3
    1d54:	40bf85b3          	sub	a1,t6,a1
    1d58:	010e1e13          	slli	t3,t3,0x10
    1d5c:	00010fb7          	lui	t6,0x10
    1d60:	00fe6e33          	or	t3,t3,a5
    1d64:	ffff8793          	addi	a5,t6,-1 # ffff <__BSS_END__+0xa1ff>
    1d68:	00fe7333          	and	t1,t3,a5
    1d6c:	01065813          	srli	a6,a2,0x10
    1d70:	010e5e13          	srli	t3,t3,0x10
    1d74:	00f677b3          	and	a5,a2,a5
    1d78:	02f30733          	mul	a4,t1,a5
    1d7c:	02fe07b3          	mul	a5,t3,a5
    1d80:	03030333          	mul	t1,t1,a6
    1d84:	030e0e33          	mul	t3,t3,a6
    1d88:	00f30333          	add	t1,t1,a5
    1d8c:	01075813          	srli	a6,a4,0x10
    1d90:	00680833          	add	a6,a6,t1
    1d94:	00f87463          	bgeu	a6,a5,1d9c <__moddi3+0x3f4>
    1d98:	01fe0e33          	add	t3,t3,t6
    1d9c:	01085793          	srli	a5,a6,0x10
    1da0:	01c78e33          	add	t3,a5,t3
    1da4:	000107b7          	lui	a5,0x10
    1da8:	fff78793          	addi	a5,a5,-1 # ffff <__BSS_END__+0xa1ff>
    1dac:	00f87833          	and	a6,a6,a5
    1db0:	01081813          	slli	a6,a6,0x10
    1db4:	00f77733          	and	a4,a4,a5
    1db8:	00e80733          	add	a4,a6,a4
    1dbc:	01c5e663          	bltu	a1,t3,1dc8 <__moddi3+0x420>
    1dc0:	01c59e63          	bne	a1,t3,1ddc <__moddi3+0x434>
    1dc4:	00e57c63          	bgeu	a0,a4,1ddc <__moddi3+0x434>
    1dc8:	40c70633          	sub	a2,a4,a2
    1dcc:	00c73733          	sltu	a4,a4,a2
    1dd0:	00d70733          	add	a4,a4,a3
    1dd4:	40ee0e33          	sub	t3,t3,a4
    1dd8:	00060713          	mv	a4,a2
    1ddc:	40e50733          	sub	a4,a0,a4
    1de0:	00e53533          	sltu	a0,a0,a4
    1de4:	41c585b3          	sub	a1,a1,t3
    1de8:	40a585b3          	sub	a1,a1,a0
    1dec:	01e597b3          	sll	a5,a1,t5
    1df0:	01d75733          	srl	a4,a4,t4
    1df4:	00e7e533          	or	a0,a5,a4
    1df8:	01d5d5b3          	srl	a1,a1,t4
    1dfc:	cb9ff06f          	j	1ab4 <__moddi3+0x10c>

00001e00 <__udivdi3>:
    1e00:	00058793          	mv	a5,a1
    1e04:	00060813          	mv	a6,a2
    1e08:	00068893          	mv	a7,a3
    1e0c:	00050313          	mv	t1,a0
    1e10:	28069663          	bnez	a3,209c <__udivdi3+0x29c>
    1e14:	00003737          	lui	a4,0x3
    1e18:	8bc70713          	addi	a4,a4,-1860 # 28bc <__clz_tab>
    1e1c:	0ec5f663          	bgeu	a1,a2,1f08 <__udivdi3+0x108>
    1e20:	000106b7          	lui	a3,0x10
    1e24:	0cd67863          	bgeu	a2,a3,1ef4 <__udivdi3+0xf4>
    1e28:	0ff00693          	li	a3,255
    1e2c:	00c6b6b3          	sltu	a3,a3,a2
    1e30:	00369693          	slli	a3,a3,0x3
    1e34:	00d658b3          	srl	a7,a2,a3
    1e38:	01170733          	add	a4,a4,a7
    1e3c:	00074703          	lbu	a4,0(a4)
    1e40:	00d706b3          	add	a3,a4,a3
    1e44:	02000713          	li	a4,32
    1e48:	40d70733          	sub	a4,a4,a3
    1e4c:	00070c63          	beqz	a4,1e64 <__udivdi3+0x64>
    1e50:	00e797b3          	sll	a5,a5,a4
    1e54:	00d556b3          	srl	a3,a0,a3
    1e58:	00e61833          	sll	a6,a2,a4
    1e5c:	00f6e5b3          	or	a1,a3,a5
    1e60:	00e51333          	sll	t1,a0,a4
    1e64:	01085513          	srli	a0,a6,0x10
    1e68:	02a5f733          	remu	a4,a1,a0
    1e6c:	01081613          	slli	a2,a6,0x10
    1e70:	01065613          	srli	a2,a2,0x10
    1e74:	01035693          	srli	a3,t1,0x10
    1e78:	02a5d5b3          	divu	a1,a1,a0
    1e7c:	01071713          	slli	a4,a4,0x10
    1e80:	00d766b3          	or	a3,a4,a3
    1e84:	02b607b3          	mul	a5,a2,a1
    1e88:	00058713          	mv	a4,a1
    1e8c:	00f6fe63          	bgeu	a3,a5,1ea8 <__udivdi3+0xa8>
    1e90:	010686b3          	add	a3,a3,a6
    1e94:	fff58713          	addi	a4,a1,-1
    1e98:	0106e863          	bltu	a3,a6,1ea8 <__udivdi3+0xa8>
    1e9c:	00f6f663          	bgeu	a3,a5,1ea8 <__udivdi3+0xa8>
    1ea0:	ffe58713          	addi	a4,a1,-2
    1ea4:	010686b3          	add	a3,a3,a6
    1ea8:	40f686b3          	sub	a3,a3,a5
    1eac:	02a6f7b3          	remu	a5,a3,a0
    1eb0:	01031313          	slli	t1,t1,0x10
    1eb4:	01035313          	srli	t1,t1,0x10
    1eb8:	02a6d6b3          	divu	a3,a3,a0
    1ebc:	01079793          	slli	a5,a5,0x10
    1ec0:	0067e333          	or	t1,a5,t1
    1ec4:	02d605b3          	mul	a1,a2,a3
    1ec8:	00068513          	mv	a0,a3
    1ecc:	00b37c63          	bgeu	t1,a1,1ee4 <__udivdi3+0xe4>
    1ed0:	00680333          	add	t1,a6,t1
    1ed4:	fff68513          	addi	a0,a3,-1 # ffff <__BSS_END__+0xa1ff>
    1ed8:	01036663          	bltu	t1,a6,1ee4 <__udivdi3+0xe4>
    1edc:	00b37463          	bgeu	t1,a1,1ee4 <__udivdi3+0xe4>
    1ee0:	ffe68513          	addi	a0,a3,-2
    1ee4:	01071713          	slli	a4,a4,0x10
    1ee8:	00a76733          	or	a4,a4,a0
    1eec:	00000593          	li	a1,0
    1ef0:	0e40006f          	j	1fd4 <__udivdi3+0x1d4>
    1ef4:	010008b7          	lui	a7,0x1000
    1ef8:	01000693          	li	a3,16
    1efc:	f3166ce3          	bltu	a2,a7,1e34 <__udivdi3+0x34>
    1f00:	01800693          	li	a3,24
    1f04:	f31ff06f          	j	1e34 <__udivdi3+0x34>
    1f08:	00061663          	bnez	a2,1f14 <__udivdi3+0x114>
    1f0c:	00100693          	li	a3,1
    1f10:	02c6d833          	divu	a6,a3,a2
    1f14:	000106b7          	lui	a3,0x10
    1f18:	0cd87263          	bgeu	a6,a3,1fdc <__udivdi3+0x1dc>
    1f1c:	0ff00693          	li	a3,255
    1f20:	0106f463          	bgeu	a3,a6,1f28 <__udivdi3+0x128>
    1f24:	00800893          	li	a7,8
    1f28:	011856b3          	srl	a3,a6,a7
    1f2c:	00d70733          	add	a4,a4,a3
    1f30:	00074683          	lbu	a3,0(a4)
    1f34:	02000713          	li	a4,32
    1f38:	011686b3          	add	a3,a3,a7
    1f3c:	40d70733          	sub	a4,a4,a3
    1f40:	0a071863          	bnez	a4,1ff0 <__udivdi3+0x1f0>
    1f44:	410787b3          	sub	a5,a5,a6
    1f48:	00100593          	li	a1,1
    1f4c:	01085613          	srli	a2,a6,0x10
    1f50:	01081893          	slli	a7,a6,0x10
    1f54:	0108d893          	srli	a7,a7,0x10
    1f58:	01035693          	srli	a3,t1,0x10
    1f5c:	02c7f733          	remu	a4,a5,a2
    1f60:	02c7d7b3          	divu	a5,a5,a2
    1f64:	01071713          	slli	a4,a4,0x10
    1f68:	00d766b3          	or	a3,a4,a3
    1f6c:	02f88533          	mul	a0,a7,a5
    1f70:	00078713          	mv	a4,a5
    1f74:	00a6fe63          	bgeu	a3,a0,1f90 <__udivdi3+0x190>
    1f78:	010686b3          	add	a3,a3,a6
    1f7c:	fff78713          	addi	a4,a5,-1
    1f80:	0106e863          	bltu	a3,a6,1f90 <__udivdi3+0x190>
    1f84:	00a6f663          	bgeu	a3,a0,1f90 <__udivdi3+0x190>
    1f88:	ffe78713          	addi	a4,a5,-2
    1f8c:	010686b3          	add	a3,a3,a6
    1f90:	40a686b3          	sub	a3,a3,a0
    1f94:	02c6f7b3          	remu	a5,a3,a2
    1f98:	01031313          	slli	t1,t1,0x10
    1f9c:	01035313          	srli	t1,t1,0x10
    1fa0:	02c6d6b3          	divu	a3,a3,a2
    1fa4:	01079793          	slli	a5,a5,0x10
    1fa8:	0067e333          	or	t1,a5,t1
    1fac:	02d888b3          	mul	a7,a7,a3
    1fb0:	00068513          	mv	a0,a3
    1fb4:	01137c63          	bgeu	t1,a7,1fcc <__udivdi3+0x1cc>
    1fb8:	00680333          	add	t1,a6,t1
    1fbc:	fff68513          	addi	a0,a3,-1 # ffff <__BSS_END__+0xa1ff>
    1fc0:	01036663          	bltu	t1,a6,1fcc <__udivdi3+0x1cc>
    1fc4:	01137463          	bgeu	t1,a7,1fcc <__udivdi3+0x1cc>
    1fc8:	ffe68513          	addi	a0,a3,-2
    1fcc:	01071713          	slli	a4,a4,0x10
    1fd0:	00a76733          	or	a4,a4,a0
    1fd4:	00070513          	mv	a0,a4
    1fd8:	00008067          	ret
    1fdc:	010006b7          	lui	a3,0x1000
    1fe0:	01000893          	li	a7,16
    1fe4:	f4d862e3          	bltu	a6,a3,1f28 <__udivdi3+0x128>
    1fe8:	01800893          	li	a7,24
    1fec:	f3dff06f          	j	1f28 <__udivdi3+0x128>
    1ff0:	00e81833          	sll	a6,a6,a4
    1ff4:	00d7d5b3          	srl	a1,a5,a3
    1ff8:	00e51333          	sll	t1,a0,a4
    1ffc:	00d556b3          	srl	a3,a0,a3
    2000:	01085513          	srli	a0,a6,0x10
    2004:	00e797b3          	sll	a5,a5,a4
    2008:	02a5f733          	remu	a4,a1,a0
    200c:	00f6e8b3          	or	a7,a3,a5
    2010:	01081793          	slli	a5,a6,0x10
    2014:	0107d793          	srli	a5,a5,0x10
    2018:	0108d613          	srli	a2,a7,0x10
    201c:	02a5d5b3          	divu	a1,a1,a0
    2020:	01071713          	slli	a4,a4,0x10
    2024:	00c76733          	or	a4,a4,a2
    2028:	02b786b3          	mul	a3,a5,a1
    202c:	00058613          	mv	a2,a1
    2030:	00d77e63          	bgeu	a4,a3,204c <__udivdi3+0x24c>
    2034:	01070733          	add	a4,a4,a6
    2038:	fff58613          	addi	a2,a1,-1
    203c:	01076863          	bltu	a4,a6,204c <__udivdi3+0x24c>
    2040:	00d77663          	bgeu	a4,a3,204c <__udivdi3+0x24c>
    2044:	ffe58613          	addi	a2,a1,-2
    2048:	01070733          	add	a4,a4,a6
    204c:	40d706b3          	sub	a3,a4,a3
    2050:	02a6f733          	remu	a4,a3,a0
    2054:	01089893          	slli	a7,a7,0x10
    2058:	0108d893          	srli	a7,a7,0x10
    205c:	02a6d6b3          	divu	a3,a3,a0
    2060:	01071713          	slli	a4,a4,0x10
    2064:	02d785b3          	mul	a1,a5,a3
    2068:	011767b3          	or	a5,a4,a7
    206c:	00068713          	mv	a4,a3
    2070:	00b7fe63          	bgeu	a5,a1,208c <__udivdi3+0x28c>
    2074:	010787b3          	add	a5,a5,a6
    2078:	fff68713          	addi	a4,a3,-1 # ffffff <__C_STACK_TOP__+0xfeffff>
    207c:	0107e863          	bltu	a5,a6,208c <__udivdi3+0x28c>
    2080:	00b7f663          	bgeu	a5,a1,208c <__udivdi3+0x28c>
    2084:	ffe68713          	addi	a4,a3,-2
    2088:	010787b3          	add	a5,a5,a6
    208c:	40b787b3          	sub	a5,a5,a1
    2090:	01061593          	slli	a1,a2,0x10
    2094:	00e5e5b3          	or	a1,a1,a4
    2098:	eb5ff06f          	j	1f4c <__udivdi3+0x14c>
    209c:	18d5e663          	bltu	a1,a3,2228 <__udivdi3+0x428>
    20a0:	00010737          	lui	a4,0x10
    20a4:	04e6f463          	bgeu	a3,a4,20ec <__udivdi3+0x2ec>
    20a8:	0ff00813          	li	a6,255
    20ac:	00d83733          	sltu	a4,a6,a3
    20b0:	00371713          	slli	a4,a4,0x3
    20b4:	00003837          	lui	a6,0x3
    20b8:	8bc80813          	addi	a6,a6,-1860 # 28bc <__clz_tab>
    20bc:	00e6d5b3          	srl	a1,a3,a4
    20c0:	010585b3          	add	a1,a1,a6
    20c4:	0005c803          	lbu	a6,0(a1)
    20c8:	02000593          	li	a1,32
    20cc:	00e80833          	add	a6,a6,a4
    20d0:	410585b3          	sub	a1,a1,a6
    20d4:	02059663          	bnez	a1,2100 <__udivdi3+0x300>
    20d8:	00100713          	li	a4,1
    20dc:	eef6ece3          	bltu	a3,a5,1fd4 <__udivdi3+0x1d4>
    20e0:	00c53533          	sltu	a0,a0,a2
    20e4:	00154713          	xori	a4,a0,1
    20e8:	eedff06f          	j	1fd4 <__udivdi3+0x1d4>
    20ec:	010005b7          	lui	a1,0x1000
    20f0:	01000713          	li	a4,16
    20f4:	fcb6e0e3          	bltu	a3,a1,20b4 <__udivdi3+0x2b4>
    20f8:	01800713          	li	a4,24
    20fc:	fb9ff06f          	j	20b4 <__udivdi3+0x2b4>
    2100:	01065733          	srl	a4,a2,a6
    2104:	00b696b3          	sll	a3,a3,a1
    2108:	00d766b3          	or	a3,a4,a3
    210c:	0106de93          	srli	t4,a3,0x10
    2110:	0107d733          	srl	a4,a5,a6
    2114:	03d778b3          	remu	a7,a4,t4
    2118:	00b797b3          	sll	a5,a5,a1
    211c:	01055833          	srl	a6,a0,a6
    2120:	00f86333          	or	t1,a6,a5
    2124:	01069793          	slli	a5,a3,0x10
    2128:	0107d793          	srli	a5,a5,0x10
    212c:	01035813          	srli	a6,t1,0x10
    2130:	00b61633          	sll	a2,a2,a1
    2134:	03d75733          	divu	a4,a4,t4
    2138:	01089893          	slli	a7,a7,0x10
    213c:	0108e833          	or	a6,a7,a6
    2140:	02e78f33          	mul	t5,a5,a4
    2144:	00070e13          	mv	t3,a4
    2148:	01e87e63          	bgeu	a6,t5,2164 <__udivdi3+0x364>
    214c:	00d80833          	add	a6,a6,a3
    2150:	fff70e13          	addi	t3,a4,-1 # ffff <__BSS_END__+0xa1ff>
    2154:	00d86863          	bltu	a6,a3,2164 <__udivdi3+0x364>
    2158:	01e87663          	bgeu	a6,t5,2164 <__udivdi3+0x364>
    215c:	ffe70e13          	addi	t3,a4,-2
    2160:	00d80833          	add	a6,a6,a3
    2164:	41e80833          	sub	a6,a6,t5
    2168:	03d878b3          	remu	a7,a6,t4
    216c:	03d85833          	divu	a6,a6,t4
    2170:	01089893          	slli	a7,a7,0x10
    2174:	03078eb3          	mul	t4,a5,a6
    2178:	01031793          	slli	a5,t1,0x10
    217c:	0107d793          	srli	a5,a5,0x10
    2180:	00f8e7b3          	or	a5,a7,a5
    2184:	00080713          	mv	a4,a6
    2188:	01d7fe63          	bgeu	a5,t4,21a4 <__udivdi3+0x3a4>
    218c:	00d787b3          	add	a5,a5,a3
    2190:	fff80713          	addi	a4,a6,-1
    2194:	00d7e863          	bltu	a5,a3,21a4 <__udivdi3+0x3a4>
    2198:	01d7f663          	bgeu	a5,t4,21a4 <__udivdi3+0x3a4>
    219c:	ffe80713          	addi	a4,a6,-2
    21a0:	00d787b3          	add	a5,a5,a3
    21a4:	010e1e13          	slli	t3,t3,0x10
    21a8:	41d787b3          	sub	a5,a5,t4
    21ac:	00010eb7          	lui	t4,0x10
    21b0:	00ee6733          	or	a4,t3,a4
    21b4:	fffe8813          	addi	a6,t4,-1 # ffff <__BSS_END__+0xa1ff>
    21b8:	01077333          	and	t1,a4,a6
    21bc:	01075893          	srli	a7,a4,0x10
    21c0:	01067833          	and	a6,a2,a6
    21c4:	01065613          	srli	a2,a2,0x10
    21c8:	03030e33          	mul	t3,t1,a6
    21cc:	03088833          	mul	a6,a7,a6
    21d0:	010e5693          	srli	a3,t3,0x10
    21d4:	02c30333          	mul	t1,t1,a2
    21d8:	01030333          	add	t1,t1,a6
    21dc:	006686b3          	add	a3,a3,t1
    21e0:	02c888b3          	mul	a7,a7,a2
    21e4:	0106f463          	bgeu	a3,a6,21ec <__udivdi3+0x3ec>
    21e8:	01d888b3          	add	a7,a7,t4
    21ec:	0106d613          	srli	a2,a3,0x10
    21f0:	011608b3          	add	a7,a2,a7
    21f4:	0317e663          	bltu	a5,a7,2220 <__udivdi3+0x420>
    21f8:	cf179ae3          	bne	a5,a7,1eec <__udivdi3+0xec>
    21fc:	000107b7          	lui	a5,0x10
    2200:	fff78793          	addi	a5,a5,-1 # ffff <__BSS_END__+0xa1ff>
    2204:	00f6f6b3          	and	a3,a3,a5
    2208:	01069693          	slli	a3,a3,0x10
    220c:	00fe7e33          	and	t3,t3,a5
    2210:	00b51533          	sll	a0,a0,a1
    2214:	01c686b3          	add	a3,a3,t3
    2218:	00000593          	li	a1,0
    221c:	dad57ce3          	bgeu	a0,a3,1fd4 <__udivdi3+0x1d4>
    2220:	fff70713          	addi	a4,a4,-1
    2224:	cc9ff06f          	j	1eec <__udivdi3+0xec>
    2228:	00000593          	li	a1,0
    222c:	00000713          	li	a4,0
    2230:	da5ff06f          	j	1fd4 <__udivdi3+0x1d4>

00002234 <__umoddi3>:
    2234:	00060893          	mv	a7,a2
    2238:	00068713          	mv	a4,a3
    223c:	00050793          	mv	a5,a0
    2240:	00058813          	mv	a6,a1
    2244:	22069c63          	bnez	a3,247c <__umoddi3+0x248>
    2248:	000036b7          	lui	a3,0x3
    224c:	8bc68693          	addi	a3,a3,-1860 # 28bc <__clz_tab>
    2250:	0cc5fc63          	bgeu	a1,a2,2328 <__umoddi3+0xf4>
    2254:	00010337          	lui	t1,0x10
    2258:	0a667e63          	bgeu	a2,t1,2314 <__umoddi3+0xe0>
    225c:	0ff00313          	li	t1,255
    2260:	00c37463          	bgeu	t1,a2,2268 <__umoddi3+0x34>
    2264:	00800713          	li	a4,8
    2268:	00e65333          	srl	t1,a2,a4
    226c:	006686b3          	add	a3,a3,t1
    2270:	0006ce03          	lbu	t3,0(a3)
    2274:	02000313          	li	t1,32
    2278:	00ee0e33          	add	t3,t3,a4
    227c:	41c30333          	sub	t1,t1,t3
    2280:	00030c63          	beqz	t1,2298 <__umoddi3+0x64>
    2284:	006595b3          	sll	a1,a1,t1
    2288:	01c55e33          	srl	t3,a0,t3
    228c:	006618b3          	sll	a7,a2,t1
    2290:	00be6833          	or	a6,t3,a1
    2294:	006517b3          	sll	a5,a0,t1
    2298:	0108d613          	srli	a2,a7,0x10
    229c:	02c87733          	remu	a4,a6,a2
    22a0:	01089513          	slli	a0,a7,0x10
    22a4:	01055513          	srli	a0,a0,0x10
    22a8:	0107d693          	srli	a3,a5,0x10
    22ac:	02c85833          	divu	a6,a6,a2
    22b0:	01071713          	slli	a4,a4,0x10
    22b4:	00d766b3          	or	a3,a4,a3
    22b8:	03050833          	mul	a6,a0,a6
    22bc:	0106fa63          	bgeu	a3,a6,22d0 <__umoddi3+0x9c>
    22c0:	011686b3          	add	a3,a3,a7
    22c4:	0116e663          	bltu	a3,a7,22d0 <__umoddi3+0x9c>
    22c8:	0106f463          	bgeu	a3,a6,22d0 <__umoddi3+0x9c>
    22cc:	011686b3          	add	a3,a3,a7
    22d0:	410686b3          	sub	a3,a3,a6
    22d4:	02c6f733          	remu	a4,a3,a2
    22d8:	01079793          	slli	a5,a5,0x10
    22dc:	0107d793          	srli	a5,a5,0x10
    22e0:	02c6d6b3          	divu	a3,a3,a2
    22e4:	02d506b3          	mul	a3,a0,a3
    22e8:	01071513          	slli	a0,a4,0x10
    22ec:	00f567b3          	or	a5,a0,a5
    22f0:	00d7fa63          	bgeu	a5,a3,2304 <__umoddi3+0xd0>
    22f4:	011787b3          	add	a5,a5,a7
    22f8:	0117e663          	bltu	a5,a7,2304 <__umoddi3+0xd0>
    22fc:	00d7f463          	bgeu	a5,a3,2304 <__umoddi3+0xd0>
    2300:	011787b3          	add	a5,a5,a7
    2304:	40d787b3          	sub	a5,a5,a3
    2308:	0067d533          	srl	a0,a5,t1
    230c:	00000593          	li	a1,0
    2310:	00008067          	ret
    2314:	01000337          	lui	t1,0x1000
    2318:	01000713          	li	a4,16
    231c:	f46666e3          	bltu	a2,t1,2268 <__umoddi3+0x34>
    2320:	01800713          	li	a4,24
    2324:	f45ff06f          	j	2268 <__umoddi3+0x34>
    2328:	00061663          	bnez	a2,2334 <__umoddi3+0x100>
    232c:	00100613          	li	a2,1
    2330:	031658b3          	divu	a7,a2,a7
    2334:	00010637          	lui	a2,0x10
    2338:	0ac8f263          	bgeu	a7,a2,23dc <__umoddi3+0x1a8>
    233c:	0ff00613          	li	a2,255
    2340:	01167463          	bgeu	a2,a7,2348 <__umoddi3+0x114>
    2344:	00800713          	li	a4,8
    2348:	00e8d633          	srl	a2,a7,a4
    234c:	00c686b3          	add	a3,a3,a2
    2350:	0006ce03          	lbu	t3,0(a3)
    2354:	02000313          	li	t1,32
    2358:	00ee0e33          	add	t3,t3,a4
    235c:	41c30333          	sub	t1,t1,t3
    2360:	08031863          	bnez	t1,23f0 <__umoddi3+0x1bc>
    2364:	411585b3          	sub	a1,a1,a7
    2368:	0108d713          	srli	a4,a7,0x10
    236c:	01089513          	slli	a0,a7,0x10
    2370:	01055513          	srli	a0,a0,0x10
    2374:	0107d613          	srli	a2,a5,0x10
    2378:	02e5f6b3          	remu	a3,a1,a4
    237c:	02e5d5b3          	divu	a1,a1,a4
    2380:	01069693          	slli	a3,a3,0x10
    2384:	00c6e6b3          	or	a3,a3,a2
    2388:	02b505b3          	mul	a1,a0,a1
    238c:	00b6fa63          	bgeu	a3,a1,23a0 <__umoddi3+0x16c>
    2390:	011686b3          	add	a3,a3,a7
    2394:	0116e663          	bltu	a3,a7,23a0 <__umoddi3+0x16c>
    2398:	00b6f463          	bgeu	a3,a1,23a0 <__umoddi3+0x16c>
    239c:	011686b3          	add	a3,a3,a7
    23a0:	40b685b3          	sub	a1,a3,a1
    23a4:	02e5f6b3          	remu	a3,a1,a4
    23a8:	01079793          	slli	a5,a5,0x10
    23ac:	0107d793          	srli	a5,a5,0x10
    23b0:	02e5d5b3          	divu	a1,a1,a4
    23b4:	02b505b3          	mul	a1,a0,a1
    23b8:	01069513          	slli	a0,a3,0x10
    23bc:	00f567b3          	or	a5,a0,a5
    23c0:	00b7fa63          	bgeu	a5,a1,23d4 <__umoddi3+0x1a0>
    23c4:	011787b3          	add	a5,a5,a7
    23c8:	0117e663          	bltu	a5,a7,23d4 <__umoddi3+0x1a0>
    23cc:	00b7f463          	bgeu	a5,a1,23d4 <__umoddi3+0x1a0>
    23d0:	011787b3          	add	a5,a5,a7
    23d4:	40b787b3          	sub	a5,a5,a1
    23d8:	f31ff06f          	j	2308 <__umoddi3+0xd4>
    23dc:	01000637          	lui	a2,0x1000
    23e0:	01000713          	li	a4,16
    23e4:	f6c8e2e3          	bltu	a7,a2,2348 <__umoddi3+0x114>
    23e8:	01800713          	li	a4,24
    23ec:	f5dff06f          	j	2348 <__umoddi3+0x114>
    23f0:	006898b3          	sll	a7,a7,t1
    23f4:	01c5d733          	srl	a4,a1,t3
    23f8:	006517b3          	sll	a5,a0,t1
    23fc:	01c55e33          	srl	t3,a0,t3
    2400:	0108d513          	srli	a0,a7,0x10
    2404:	02a776b3          	remu	a3,a4,a0
    2408:	006595b3          	sll	a1,a1,t1
    240c:	00be6e33          	or	t3,t3,a1
    2410:	01089593          	slli	a1,a7,0x10
    2414:	0105d593          	srli	a1,a1,0x10
    2418:	010e5613          	srli	a2,t3,0x10
    241c:	02a75733          	divu	a4,a4,a0
    2420:	01069693          	slli	a3,a3,0x10
    2424:	00c6e6b3          	or	a3,a3,a2
    2428:	02e58733          	mul	a4,a1,a4
    242c:	00e6fa63          	bgeu	a3,a4,2440 <__umoddi3+0x20c>
    2430:	011686b3          	add	a3,a3,a7
    2434:	0116e663          	bltu	a3,a7,2440 <__umoddi3+0x20c>
    2438:	00e6f463          	bgeu	a3,a4,2440 <__umoddi3+0x20c>
    243c:	011686b3          	add	a3,a3,a7
    2440:	40e68633          	sub	a2,a3,a4
    2444:	02a676b3          	remu	a3,a2,a0
    2448:	010e1e13          	slli	t3,t3,0x10
    244c:	010e5e13          	srli	t3,t3,0x10
    2450:	02a65633          	divu	a2,a2,a0
    2454:	01069693          	slli	a3,a3,0x10
    2458:	02c58633          	mul	a2,a1,a2
    245c:	01c6e5b3          	or	a1,a3,t3
    2460:	00c5fa63          	bgeu	a1,a2,2474 <__umoddi3+0x240>
    2464:	011585b3          	add	a1,a1,a7
    2468:	0115e663          	bltu	a1,a7,2474 <__umoddi3+0x240>
    246c:	00c5f463          	bgeu	a1,a2,2474 <__umoddi3+0x240>
    2470:	011585b3          	add	a1,a1,a7
    2474:	40c585b3          	sub	a1,a1,a2
    2478:	ef1ff06f          	j	2368 <__umoddi3+0x134>
    247c:	e8d5eae3          	bltu	a1,a3,2310 <__umoddi3+0xdc>
    2480:	00010737          	lui	a4,0x10
    2484:	04e6fc63          	bgeu	a3,a4,24dc <__umoddi3+0x2a8>
    2488:	0ff00e93          	li	t4,255
    248c:	00deb733          	sltu	a4,t4,a3
    2490:	00371713          	slli	a4,a4,0x3
    2494:	00003337          	lui	t1,0x3
    2498:	00e6d8b3          	srl	a7,a3,a4
    249c:	8bc30313          	addi	t1,t1,-1860 # 28bc <__clz_tab>
    24a0:	006888b3          	add	a7,a7,t1
    24a4:	0008ce83          	lbu	t4,0(a7) # 1000000 <__C_STACK_TOP__+0xff0000>
    24a8:	02000e13          	li	t3,32
    24ac:	00ee8eb3          	add	t4,t4,a4
    24b0:	41de0e33          	sub	t3,t3,t4
    24b4:	020e1e63          	bnez	t3,24f0 <__umoddi3+0x2bc>
    24b8:	00b6e463          	bltu	a3,a1,24c0 <__umoddi3+0x28c>
    24bc:	00c56a63          	bltu	a0,a2,24d0 <__umoddi3+0x29c>
    24c0:	40c507b3          	sub	a5,a0,a2
    24c4:	40d585b3          	sub	a1,a1,a3
    24c8:	00f53533          	sltu	a0,a0,a5
    24cc:	40a58833          	sub	a6,a1,a0
    24d0:	00078513          	mv	a0,a5
    24d4:	00080593          	mv	a1,a6
    24d8:	e39ff06f          	j	2310 <__umoddi3+0xdc>
    24dc:	010008b7          	lui	a7,0x1000
    24e0:	01000713          	li	a4,16
    24e4:	fb16e8e3          	bltu	a3,a7,2494 <__umoddi3+0x260>
    24e8:	01800713          	li	a4,24
    24ec:	fa9ff06f          	j	2494 <__umoddi3+0x260>
    24f0:	01d65733          	srl	a4,a2,t4
    24f4:	01c696b3          	sll	a3,a3,t3
    24f8:	00d766b3          	or	a3,a4,a3
    24fc:	0106d813          	srli	a6,a3,0x10
    2500:	01d5d733          	srl	a4,a1,t4
    2504:	03077333          	remu	t1,a4,a6
    2508:	01c595b3          	sll	a1,a1,t3
    250c:	01d557b3          	srl	a5,a0,t4
    2510:	00b7e7b3          	or	a5,a5,a1
    2514:	01069593          	slli	a1,a3,0x10
    2518:	0105d593          	srli	a1,a1,0x10
    251c:	0107d893          	srli	a7,a5,0x10
    2520:	01c61633          	sll	a2,a2,t3
    2524:	01c51533          	sll	a0,a0,t3
    2528:	03075733          	divu	a4,a4,a6
    252c:	01031313          	slli	t1,t1,0x10
    2530:	011368b3          	or	a7,t1,a7
    2534:	02e58f33          	mul	t5,a1,a4
    2538:	00070313          	mv	t1,a4
    253c:	01e8fe63          	bgeu	a7,t5,2558 <__umoddi3+0x324>
    2540:	00d888b3          	add	a7,a7,a3
    2544:	fff70313          	addi	t1,a4,-1 # ffff <__BSS_END__+0xa1ff>
    2548:	00d8e863          	bltu	a7,a3,2558 <__umoddi3+0x324>
    254c:	01e8f663          	bgeu	a7,t5,2558 <__umoddi3+0x324>
    2550:	ffe70313          	addi	t1,a4,-2
    2554:	00d888b3          	add	a7,a7,a3
    2558:	41e888b3          	sub	a7,a7,t5
    255c:	0308ff33          	remu	t5,a7,a6
    2560:	0308d8b3          	divu	a7,a7,a6
    2564:	010f1f13          	slli	t5,t5,0x10
    2568:	03158833          	mul	a6,a1,a7
    256c:	01079593          	slli	a1,a5,0x10
    2570:	0105d593          	srli	a1,a1,0x10
    2574:	00bf65b3          	or	a1,t5,a1
    2578:	00088793          	mv	a5,a7
    257c:	0105fe63          	bgeu	a1,a6,2598 <__umoddi3+0x364>
    2580:	00d585b3          	add	a1,a1,a3
    2584:	fff88793          	addi	a5,a7,-1 # ffffff <__C_STACK_TOP__+0xfeffff>
    2588:	00d5e863          	bltu	a1,a3,2598 <__umoddi3+0x364>
    258c:	0105f663          	bgeu	a1,a6,2598 <__umoddi3+0x364>
    2590:	ffe88793          	addi	a5,a7,-2
    2594:	00d585b3          	add	a1,a1,a3
    2598:	01031313          	slli	t1,t1,0x10
    259c:	00010f37          	lui	t5,0x10
    25a0:	00f36333          	or	t1,t1,a5
    25a4:	ffff0793          	addi	a5,t5,-1 # ffff <__BSS_END__+0xa1ff>
    25a8:	00f378b3          	and	a7,t1,a5
    25ac:	410585b3          	sub	a1,a1,a6
    25b0:	01035313          	srli	t1,t1,0x10
    25b4:	01065813          	srli	a6,a2,0x10
    25b8:	00f677b3          	and	a5,a2,a5
    25bc:	02f88733          	mul	a4,a7,a5
    25c0:	02f307b3          	mul	a5,t1,a5
    25c4:	030888b3          	mul	a7,a7,a6
    25c8:	03030333          	mul	t1,t1,a6
    25cc:	00f888b3          	add	a7,a7,a5
    25d0:	01075813          	srli	a6,a4,0x10
    25d4:	01180833          	add	a6,a6,a7
    25d8:	00f87463          	bgeu	a6,a5,25e0 <__umoddi3+0x3ac>
    25dc:	01e30333          	add	t1,t1,t5
    25e0:	01085793          	srli	a5,a6,0x10
    25e4:	00678333          	add	t1,a5,t1
    25e8:	000107b7          	lui	a5,0x10
    25ec:	fff78793          	addi	a5,a5,-1 # ffff <__BSS_END__+0xa1ff>
    25f0:	00f87833          	and	a6,a6,a5
    25f4:	01081813          	slli	a6,a6,0x10
    25f8:	00f77733          	and	a4,a4,a5
    25fc:	00e80733          	add	a4,a6,a4
    2600:	0065e663          	bltu	a1,t1,260c <__umoddi3+0x3d8>
    2604:	00659e63          	bne	a1,t1,2620 <__umoddi3+0x3ec>
    2608:	00e57c63          	bgeu	a0,a4,2620 <__umoddi3+0x3ec>
    260c:	40c70633          	sub	a2,a4,a2
    2610:	00c73733          	sltu	a4,a4,a2
    2614:	00d70733          	add	a4,a4,a3
    2618:	40e30333          	sub	t1,t1,a4
    261c:	00060713          	mv	a4,a2
    2620:	40e50733          	sub	a4,a0,a4
    2624:	00e53533          	sltu	a0,a0,a4
    2628:	406585b3          	sub	a1,a1,t1
    262c:	40a585b3          	sub	a1,a1,a0
    2630:	01d597b3          	sll	a5,a1,t4
    2634:	01c75733          	srl	a4,a4,t3
    2638:	00e7e533          	or	a0,a5,a4
    263c:	01c5d5b3          	srl	a1,a1,t3
    2640:	cd1ff06f          	j	2310 <__umoddi3+0xdc>
	...
