
/home/xxxx/github/scr1/build/dhrystone21.elf:     file format elf32-littleriscv


Disassembly of section .text.init:

00000000 <SIM_EXIT-0xf4>:
	...

000000f4 <SIM_EXIT>:
  f4:	00000013          	nop

000000f8 <SIM_STOP>:
  f8:	0000006f          	j	f8 <SIM_STOP>
  fc:	ffff                	0xffff
  fe:	ffff                	0xffff

Disassembly of section .text:

00000100 <machine_trap_entry-0xc0>:
	...

000001c0 <machine_trap_entry>:
     1c0:	0a20006f          	j	262 <trap_entry>
     1c4:	00000013          	nop
     1c8:	00000013          	nop
     1cc:	00000013          	nop
     1d0:	00000013          	nop
     1d4:	00000013          	nop
     1d8:	00000013          	nop
     1dc:	00000013          	nop
     1e0:	00000013          	nop
     1e4:	00000013          	nop
     1e8:	00000013          	nop
     1ec:	00000013          	nop
     1f0:	00000013          	nop
     1f4:	00000013          	nop
     1f8:	00000013          	nop
     1fc:	00000013          	nop

00000200 <_start>:
     200:	00003597          	auipc	a1,0x3
     204:	38058593          	addi	a1,a1,896 # 3580 <__BSS_START__>
     208:	00006617          	auipc	a2,0x6
     20c:	bf860613          	addi	a2,a2,-1032 # 5e00 <__BSS_END__>
     210:	a021                	j	218 <_start+0x18>
     212:	0005a023          	sw	zero,0(a1)
     216:	0591                	addi	a1,a1,4
     218:	fec59de3          	bne	a1,a2,212 <_start+0x12>
     21c:	6191                	lui	gp,0x4
     21e:	d6018193          	addi	gp,gp,-672 # 3d60 <_gp>
     222:	00010117          	auipc	sp,0x10
     226:	dde10113          	addi	sp,sp,-546 # 10000 <__C_STACK_TOP__>
     22a:	004902b7          	lui	t0,0x490
     22e:	4305                	li	t1,1
     230:	0062a023          	sw	t1,0(t0) # 490000 <__C_STACK_TOP__+0x480000>
     234:	004902b7          	lui	t0,0x490
     238:	00428293          	addi	t0,t0,4 # 490004 <__C_STACK_TOP__+0x480004>
     23c:	06300313          	li	t1,99
     240:	0062a023          	sw	t1,0(t0)
     244:	004902b7          	lui	t0,0x490
     248:	01028293          	addi	t0,t0,16 # 490010 <__C_STACK_TOP__+0x480010>
     24c:	537d                	li	t1,-1
     24e:	0062a023          	sw	t1,0(t0)
     252:	0062a223          	sw	t1,4(t0)
     256:	4501                	li	a0,0
     258:	4581                	li	a1,0
     25a:	217000ef          	jal	ra,c70 <main>
     25e:	0960006f          	j	2f4 <handle_trap>

00000262 <trap_entry>:
     262:	716d                	addi	sp,sp,-272
     264:	c206                	sw	ra,4(sp)
     266:	c40a                	sw	sp,8(sp)
     268:	c60e                	sw	gp,12(sp)
     26a:	c812                	sw	tp,16(sp)
     26c:	ca16                	sw	t0,20(sp)
     26e:	cc1a                	sw	t1,24(sp)
     270:	ce1e                	sw	t2,28(sp)
     272:	d022                	sw	s0,32(sp)
     274:	d226                	sw	s1,36(sp)
     276:	d42a                	sw	a0,40(sp)
     278:	d62e                	sw	a1,44(sp)
     27a:	d832                	sw	a2,48(sp)
     27c:	da36                	sw	a3,52(sp)
     27e:	dc3a                	sw	a4,56(sp)
     280:	de3e                	sw	a5,60(sp)
     282:	c0c2                	sw	a6,64(sp)
     284:	c2c6                	sw	a7,68(sp)
     286:	c4ca                	sw	s2,72(sp)
     288:	c6ce                	sw	s3,76(sp)
     28a:	c8d2                	sw	s4,80(sp)
     28c:	cad6                	sw	s5,84(sp)
     28e:	ccda                	sw	s6,88(sp)
     290:	cede                	sw	s7,92(sp)
     292:	d0e2                	sw	s8,96(sp)
     294:	d2e6                	sw	s9,100(sp)
     296:	d4ea                	sw	s10,104(sp)
     298:	d6ee                	sw	s11,108(sp)
     29a:	d8f2                	sw	t3,112(sp)
     29c:	daf6                	sw	t4,116(sp)
     29e:	dcfa                	sw	t5,120(sp)
     2a0:	defe                	sw	t6,124(sp)
     2a2:	34202573          	csrr	a0,mcause
     2a6:	341025f3          	csrr	a1,mepc
     2aa:	860a                	mv	a2,sp
     2ac:	048000ef          	jal	ra,2f4 <handle_trap>
     2b0:	4092                	lw	ra,4(sp)
     2b2:	4122                	lw	sp,8(sp)
     2b4:	41b2                	lw	gp,12(sp)
     2b6:	4242                	lw	tp,16(sp)
     2b8:	42d2                	lw	t0,20(sp)
     2ba:	4362                	lw	t1,24(sp)
     2bc:	43f2                	lw	t2,28(sp)
     2be:	5402                	lw	s0,32(sp)
     2c0:	5492                	lw	s1,36(sp)
     2c2:	5522                	lw	a0,40(sp)
     2c4:	55b2                	lw	a1,44(sp)
     2c6:	5642                	lw	a2,48(sp)
     2c8:	56d2                	lw	a3,52(sp)
     2ca:	5762                	lw	a4,56(sp)
     2cc:	57f2                	lw	a5,60(sp)
     2ce:	4806                	lw	a6,64(sp)
     2d0:	4896                	lw	a7,68(sp)
     2d2:	4926                	lw	s2,72(sp)
     2d4:	49b6                	lw	s3,76(sp)
     2d6:	4a46                	lw	s4,80(sp)
     2d8:	4ad6                	lw	s5,84(sp)
     2da:	4b66                	lw	s6,88(sp)
     2dc:	4bf6                	lw	s7,92(sp)
     2de:	5c06                	lw	s8,96(sp)
     2e0:	5c96                	lw	s9,100(sp)
     2e2:	5d26                	lw	s10,104(sp)
     2e4:	5db6                	lw	s11,108(sp)
     2e6:	5e46                	lw	t3,112(sp)
     2e8:	5ed6                	lw	t4,116(sp)
     2ea:	5f66                	lw	t5,120(sp)
     2ec:	5ff6                	lw	t6,124(sp)
     2ee:	6151                	addi	sp,sp,272
     2f0:	30200073          	mret

000002f4 <handle_trap>:
     2f4:	e01ff06f          	j	f4 <SIM_EXIT>
     2f8:	0000                	unimp
     2fa:	0000                	unimp
	...

000002fe <printf_putch>:
     2fe:	04022603          	lw	a2,64(tp) # 40 <buflen.1937>
     302:	00020293          	mv	t0,tp
     306:	00160593          	addi	a1,a2,1
     30a:	00c28333          	add	t1,t0,a2
     30e:	04b22023          	sw	a1,64(tp) # 40 <buflen.1937>
     312:	00a30023          	sb	a0,0(t1)
     316:	43a9                	li	t2,10
     318:	00750763          	beq	a0,t2,326 <printf_putch+0x28>
     31c:	04000513          	li	a0,64
     320:	00a58563          	beq	a1,a0,32a <printf_putch+0x2c>
     324:	8082                	ret
     326:	0eb05d63          	blez	a1,420 <STACK_SIZE+0x20>
     32a:	00020e13          	mv	t3,tp
     32e:	001e0793          	addi	a5,t3,1
     332:	fff7ce83          	lbu	t4,-1(a5)
     336:	fffe4f13          	not	t5,t3
     33a:	f0000fb7          	lui	t6,0xf0000
     33e:	01ee06b3          	add	a3,t3,t5
     342:	00b68633          	add	a2,a3,a1
     346:	01df8023          	sb	t4,0(t6) # f0000000 <__C_STACK_TOP__+0xefff0000>
     34a:	fff58713          	addi	a4,a1,-1
     34e:	00767293          	andi	t0,a2,7
     352:	0ce05763          	blez	a4,420 <STACK_SIZE+0x20>
     356:	06028e63          	beqz	t0,3d2 <printf_putch+0xd4>
     35a:	4305                	li	t1,1
     35c:	06628063          	beq	t0,t1,3bc <printf_putch+0xbe>
     360:	4389                	li	t2,2
     362:	04728863          	beq	t0,t2,3b2 <printf_putch+0xb4>
     366:	450d                	li	a0,3
     368:	04a28063          	beq	t0,a0,3a8 <printf_putch+0xaa>
     36c:	4891                	li	a7,4
     36e:	03128863          	beq	t0,a7,39e <printf_putch+0xa0>
     372:	4e95                	li	t4,5
     374:	03d28063          	beq	t0,t4,394 <printf_putch+0x96>
     378:	4f19                	li	t5,6
     37a:	01e28863          	beq	t0,t5,38a <printf_putch+0x8c>
     37e:	001e4683          	lbu	a3,1(t3)
     382:	002e0793          	addi	a5,t3,2
     386:	00df8023          	sb	a3,0(t6)
     38a:	0007c603          	lbu	a2,0(a5)
     38e:	0785                	addi	a5,a5,1
     390:	00cf8023          	sb	a2,0(t6)
     394:	0007c703          	lbu	a4,0(a5)
     398:	0785                	addi	a5,a5,1
     39a:	00ef8023          	sb	a4,0(t6)
     39e:	0007c283          	lbu	t0,0(a5)
     3a2:	0785                	addi	a5,a5,1
     3a4:	005f8023          	sb	t0,0(t6)
     3a8:	0007c303          	lbu	t1,0(a5)
     3ac:	0785                	addi	a5,a5,1
     3ae:	006f8023          	sb	t1,0(t6)
     3b2:	0007c383          	lbu	t2,0(a5)
     3b6:	0785                	addi	a5,a5,1
     3b8:	007f8023          	sb	t2,0(t6)
     3bc:	0785                	addi	a5,a5,1
     3be:	fff7c503          	lbu	a0,-1(a5)
     3c2:	40fe08b3          	sub	a7,t3,a5
     3c6:	00b88eb3          	add	t4,a7,a1
     3ca:	00af8023          	sb	a0,0(t6)
     3ce:	05d05963          	blez	t4,420 <STACK_SIZE+0x20>
     3d2:	0007cf03          	lbu	t5,0(a5)
     3d6:	07a1                	addi	a5,a5,8
     3d8:	40fe0533          	sub	a0,t3,a5
     3dc:	01ef8023          	sb	t5,0(t6)
     3e0:	ff97c683          	lbu	a3,-7(a5)
     3e4:	00b508b3          	add	a7,a0,a1
     3e8:	00df8023          	sb	a3,0(t6)
     3ec:	ffa7c603          	lbu	a2,-6(a5)
     3f0:	00cf8023          	sb	a2,0(t6)
     3f4:	ffb7c703          	lbu	a4,-5(a5)
     3f8:	00ef8023          	sb	a4,0(t6)
     3fc:	ffc7c283          	lbu	t0,-4(a5)
     400:	005f8023          	sb	t0,0(t6)
     404:	ffd7c303          	lbu	t1,-3(a5)
     408:	006f8023          	sb	t1,0(t6)
     40c:	ffe7c383          	lbu	t2,-2(a5)
     410:	007f8023          	sb	t2,0(t6)
     414:	fff7ce83          	lbu	t4,-1(a5)
     418:	01df8023          	sb	t4,0(t6)
     41c:	fb104be3          	bgtz	a7,3d2 <printf_putch+0xd4>
     420:	04022023          	sw	zero,64(tp) # 40 <buflen.1937>
     424:	8082                	ret

00000426 <vprintfmt.constprop.0>:
     426:	714d                	addi	sp,sp,-336
     428:	13612823          	sw	s6,304(sp)
     42c:	13812423          	sw	s8,296(sp)
     430:	6b09                	lui	s6,0x2
     432:	40000c37          	lui	s8,0x40000
     436:	14112623          	sw	ra,332(sp)
     43a:	06100793          	li	a5,97
     43e:	660b0093          	addi	ra,s6,1632 # 2660 <__umoddi3+0x42c>
     442:	fffc0293          	addi	t0,s8,-1 # 3fffffff <__C_STACK_TOP__+0x3ffeffff>
     446:	14812423          	sw	s0,328(sp)
     44a:	13712623          	sw	s7,300(sp)
     44e:	14912223          	sw	s1,324(sp)
     452:	15212023          	sw	s2,320(sp)
     456:	13312e23          	sw	s3,316(sp)
     45a:	13412c23          	sw	s4,312(sp)
     45e:	13512a23          	sw	s5,308(sp)
     462:	13912223          	sw	s9,292(sp)
     466:	13a12023          	sw	s10,288(sp)
     46a:	11b12e23          	sw	s11,284(sp)
     46e:	842a                	mv	s0,a0
     470:	8bae                	mv	s7,a1
     472:	c43e                	sw	a5,8(sp)
     474:	c206                	sw	ra,4(sp)
     476:	c616                	sw	t0,12(sp)
     478:	00044503          	lbu	a0,0(s0)
     47c:	02500313          	li	t1,37
     480:	00650c63          	beq	a0,t1,498 <vprintfmt.constprop.0+0x72>
     484:	c539                	beqz	a0,4d2 <vprintfmt.constprop.0+0xac>
     486:	4581                	li	a1,0
     488:	3d9d                	jal	2fe <printf_putch>
     48a:	0405                	addi	s0,s0,1
     48c:	00044503          	lbu	a0,0(s0)
     490:	02500313          	li	t1,37
     494:	fe6518e3          	bne	a0,t1,484 <vprintfmt.constprop.0+0x5e>
     498:	00144903          	lbu	s2,1(s0)
     49c:	00140493          	addi	s1,s0,1
     4a0:	8b26                	mv	s6,s1
     4a2:	02000993          	li	s3,32
     4a6:	5dfd                	li	s11,-1
     4a8:	5a7d                	li	s4,-1
     4aa:	4681                	li	a3,0
     4ac:	05500593          	li	a1,85
     4b0:	4725                	li	a4,9
     4b2:	fdd90393          	addi	t2,s2,-35
     4b6:	0ff3f613          	andi	a2,t2,255
     4ba:	001b0413          	addi	s0,s6,1
     4be:	52c5eb63          	bltu	a1,a2,9f4 <vprintfmt.constprop.0+0x5ce>
     4c2:	4a92                	lw	s5,4(sp)
     4c4:	00261893          	slli	a7,a2,0x2
     4c8:	01588cb3          	add	s9,a7,s5
     4cc:	000cad03          	lw	s10,0(s9)
     4d0:	8d02                	jr	s10
     4d2:	14c12083          	lw	ra,332(sp)
     4d6:	14812403          	lw	s0,328(sp)
     4da:	14412483          	lw	s1,324(sp)
     4de:	14012903          	lw	s2,320(sp)
     4e2:	13c12983          	lw	s3,316(sp)
     4e6:	13812a03          	lw	s4,312(sp)
     4ea:	13412a83          	lw	s5,308(sp)
     4ee:	13012b03          	lw	s6,304(sp)
     4f2:	12c12b83          	lw	s7,300(sp)
     4f6:	12812c03          	lw	s8,296(sp)
     4fa:	12412c83          	lw	s9,292(sp)
     4fe:	12012d03          	lw	s10,288(sp)
     502:	11c12d83          	lw	s11,284(sp)
     506:	6171                	addi	sp,sp,336
     508:	8082                	ret
     50a:	89ca                	mv	s3,s2
     50c:	001b4903          	lbu	s2,1(s6)
     510:	8b22                	mv	s6,s0
     512:	b745                	j	4b2 <vprintfmt.constprop.0+0x8c>
     514:	4929                	li	s2,10
     516:	4a81                	li	s5,0
     518:	4305                	li	t1,1
     51a:	32d35d63          	bge	t1,a3,854 <vprintfmt.constprop.0+0x42e>
     51e:	0b9d                	addi	s7,s7,7
     520:	ff8bf613          	andi	a2,s7,-8
     524:	00062c83          	lw	s9,0(a2)
     528:	00462b03          	lw	s6,4(a2)
     52c:	00860b93          	addi	s7,a2,8
     530:	864a                	mv	a2,s2
     532:	4681                	li	a3,0
     534:	8566                	mv	a0,s9
     536:	85da                	mv	a1,s6
     538:	4fd010ef          	jal	ra,2234 <__umoddi3>
     53c:	c82a                	sw	a0,16(sp)
     53e:	8daa                	mv	s11,a0
     540:	4d6a8063          	beq	s5,s6,a00 <vprintfmt.constprop.0+0x5da>
     544:	01410d13          	addi	s10,sp,20
     548:	4485                	li	s1,1
     54a:	864a                	mv	a2,s2
     54c:	4681                	li	a3,0
     54e:	8566                	mv	a0,s9
     550:	85da                	mv	a1,s6
     552:	0af010ef          	jal	ra,1e00 <__udivdi3>
     556:	864a                	mv	a2,s2
     558:	4681                	li	a3,0
     55a:	8caa                	mv	s9,a0
     55c:	8b2e                	mv	s6,a1
     55e:	4d7010ef          	jal	ra,2234 <__umoddi3>
     562:	00ad2023          	sw	a0,0(s10)
     566:	8daa                	mv	s11,a0
     568:	00148c13          	addi	s8,s1,1
     56c:	0d11                	addi	s10,s10,4
     56e:	016a8463          	beq	s5,s6,576 <vprintfmt.constprop.0+0x150>
     572:	84e2                	mv	s1,s8
     574:	bfd9                	j	54a <vprintfmt.constprop.0+0x124>
     576:	ff2cfee3          	bgeu	s9,s2,572 <vprintfmt.constprop.0+0x14c>
     57a:	0b4c5d63          	bge	s8,s4,634 <vprintfmt.constprop.0+0x20e>
     57e:	fffc4513          	not	a0,s8
     582:	014506b3          	add	a3,a0,s4
     586:	fffa0913          	addi	s2,s4,-1
     58a:	4581                	li	a1,0
     58c:	854e                	mv	a0,s3
     58e:	0076fa93          	andi	s5,a3,7
     592:	33b5                	jal	2fe <printf_putch>
     594:	0b2c5063          	bge	s8,s2,634 <vprintfmt.constprop.0+0x20e>
     598:	060a8363          	beqz	s5,5fe <vprintfmt.constprop.0+0x1d8>
     59c:	4585                	li	a1,1
     59e:	04ba8a63          	beq	s5,a1,5f2 <vprintfmt.constprop.0+0x1cc>
     5a2:	4809                	li	a6,2
     5a4:	050a8363          	beq	s5,a6,5ea <vprintfmt.constprop.0+0x1c4>
     5a8:	470d                	li	a4,3
     5aa:	02ea8c63          	beq	s5,a4,5e2 <vprintfmt.constprop.0+0x1bc>
     5ae:	4e11                	li	t3,4
     5b0:	03ca8563          	beq	s5,t3,5da <vprintfmt.constprop.0+0x1b4>
     5b4:	4e95                	li	t4,5
     5b6:	01da8e63          	beq	s5,t4,5d2 <vprintfmt.constprop.0+0x1ac>
     5ba:	4f19                	li	t5,6
     5bc:	01ea8763          	beq	s5,t5,5ca <vprintfmt.constprop.0+0x1a4>
     5c0:	4581                	li	a1,0
     5c2:	854e                	mv	a0,s3
     5c4:	3b2d                	jal	2fe <printf_putch>
     5c6:	ffea0913          	addi	s2,s4,-2
     5ca:	4581                	li	a1,0
     5cc:	854e                	mv	a0,s3
     5ce:	3b05                	jal	2fe <printf_putch>
     5d0:	197d                	addi	s2,s2,-1
     5d2:	4581                	li	a1,0
     5d4:	854e                	mv	a0,s3
     5d6:	3325                	jal	2fe <printf_putch>
     5d8:	197d                	addi	s2,s2,-1
     5da:	4581                	li	a1,0
     5dc:	854e                	mv	a0,s3
     5de:	3305                	jal	2fe <printf_putch>
     5e0:	197d                	addi	s2,s2,-1
     5e2:	4581                	li	a1,0
     5e4:	854e                	mv	a0,s3
     5e6:	3b21                	jal	2fe <printf_putch>
     5e8:	197d                	addi	s2,s2,-1
     5ea:	4581                	li	a1,0
     5ec:	854e                	mv	a0,s3
     5ee:	3b01                	jal	2fe <printf_putch>
     5f0:	197d                	addi	s2,s2,-1
     5f2:	197d                	addi	s2,s2,-1
     5f4:	4581                	li	a1,0
     5f6:	854e                	mv	a0,s3
     5f8:	3319                	jal	2fe <printf_putch>
     5fa:	032c5d63          	bge	s8,s2,634 <vprintfmt.constprop.0+0x20e>
     5fe:	4581                	li	a1,0
     600:	854e                	mv	a0,s3
     602:	39f5                	jal	2fe <printf_putch>
     604:	4581                	li	a1,0
     606:	854e                	mv	a0,s3
     608:	39dd                	jal	2fe <printf_putch>
     60a:	4581                	li	a1,0
     60c:	854e                	mv	a0,s3
     60e:	39c5                	jal	2fe <printf_putch>
     610:	4581                	li	a1,0
     612:	854e                	mv	a0,s3
     614:	31ed                	jal	2fe <printf_putch>
     616:	4581                	li	a1,0
     618:	854e                	mv	a0,s3
     61a:	31d5                	jal	2fe <printf_putch>
     61c:	4581                	li	a1,0
     61e:	854e                	mv	a0,s3
     620:	39f9                	jal	2fe <printf_putch>
     622:	4581                	li	a1,0
     624:	854e                	mv	a0,s3
     626:	39e1                	jal	2fe <printf_putch>
     628:	1961                	addi	s2,s2,-8
     62a:	4581                	li	a1,0
     62c:	854e                	mv	a0,s3
     62e:	39c1                	jal	2fe <printf_putch>
     630:	fd2c47e3          	blt	s8,s2,5fe <vprintfmt.constprop.0+0x1d8>
     634:	4a32                	lw	s4,12(sp)
     636:	081c                	addi	a5,sp,16
     638:	00c10293          	addi	t0,sp,12
     63c:	01448fb3          	add	t6,s1,s4
     640:	002f9093          	slli	ra,t6,0x2
     644:	001784b3          	add	s1,a5,ra
     648:	40548333          	sub	t1,s1,t0
     64c:	4622                	lw	a2,8(sp)
     64e:	00235393          	srli	t2,t1,0x2
     652:	0073fc93          	andi	s9,t2,7
     656:	4b25                	li	s6,9
     658:	ff660c13          	addi	s8,a2,-10
     65c:	160c8b63          	beqz	s9,7d2 <vprintfmt.constprop.0+0x3ac>
     660:	03000893          	li	a7,48
     664:	01bb7363          	bgeu	s6,s11,66a <vprintfmt.constprop.0+0x244>
     668:	88e2                	mv	a7,s8
     66a:	01b88533          	add	a0,a7,s11
     66e:	4581                	li	a1,0
     670:	4d05                	li	s10,1
     672:	3171                	jal	2fe <printf_putch>
     674:	14f1                	addi	s1,s1,-4
     676:	0044ad83          	lw	s11,4(s1)
     67a:	15ac8c63          	beq	s9,s10,7d2 <vprintfmt.constprop.0+0x3ac>
     67e:	4989                	li	s3,2
     680:	093c8a63          	beq	s9,s3,714 <vprintfmt.constprop.0+0x2ee>
     684:	450d                	li	a0,3
     686:	06ac8b63          	beq	s9,a0,6fc <vprintfmt.constprop.0+0x2d6>
     68a:	4691                	li	a3,4
     68c:	04dc8c63          	beq	s9,a3,6e4 <vprintfmt.constprop.0+0x2be>
     690:	4a95                	li	s5,5
     692:	035c8d63          	beq	s9,s5,6cc <vprintfmt.constprop.0+0x2a6>
     696:	4599                	li	a1,6
     698:	00bc8e63          	beq	s9,a1,6b4 <vprintfmt.constprop.0+0x28e>
     69c:	03000813          	li	a6,48
     6a0:	01bb7363          	bgeu	s6,s11,6a6 <vprintfmt.constprop.0+0x280>
     6a4:	8862                	mv	a6,s8
     6a6:	01b80533          	add	a0,a6,s11
     6aa:	4581                	li	a1,0
     6ac:	14f1                	addi	s1,s1,-4
     6ae:	3981                	jal	2fe <printf_putch>
     6b0:	0044ad83          	lw	s11,4(s1)
     6b4:	03000713          	li	a4,48
     6b8:	01bb7363          	bgeu	s6,s11,6be <vprintfmt.constprop.0+0x298>
     6bc:	8762                	mv	a4,s8
     6be:	01b70533          	add	a0,a4,s11
     6c2:	4581                	li	a1,0
     6c4:	14f1                	addi	s1,s1,-4
     6c6:	3925                	jal	2fe <printf_putch>
     6c8:	0044ad83          	lw	s11,4(s1)
     6cc:	03000e13          	li	t3,48
     6d0:	01bb7363          	bgeu	s6,s11,6d6 <vprintfmt.constprop.0+0x2b0>
     6d4:	8e62                	mv	t3,s8
     6d6:	01be0533          	add	a0,t3,s11
     6da:	4581                	li	a1,0
     6dc:	14f1                	addi	s1,s1,-4
     6de:	3105                	jal	2fe <printf_putch>
     6e0:	0044ad83          	lw	s11,4(s1)
     6e4:	03000e93          	li	t4,48
     6e8:	01bb7363          	bgeu	s6,s11,6ee <vprintfmt.constprop.0+0x2c8>
     6ec:	8ee2                	mv	t4,s8
     6ee:	01be8533          	add	a0,t4,s11
     6f2:	4581                	li	a1,0
     6f4:	14f1                	addi	s1,s1,-4
     6f6:	3121                	jal	2fe <printf_putch>
     6f8:	0044ad83          	lw	s11,4(s1)
     6fc:	03000f13          	li	t5,48
     700:	01bb7363          	bgeu	s6,s11,706 <vprintfmt.constprop.0+0x2e0>
     704:	8f62                	mv	t5,s8
     706:	01bf0533          	add	a0,t5,s11
     70a:	4581                	li	a1,0
     70c:	14f1                	addi	s1,s1,-4
     70e:	3ec5                	jal	2fe <printf_putch>
     710:	0044ad83          	lw	s11,4(s1)
     714:	03000913          	li	s2,48
     718:	01bb7363          	bgeu	s6,s11,71e <vprintfmt.constprop.0+0x2f8>
     71c:	8962                	mv	s2,s8
     71e:	01b90533          	add	a0,s2,s11
     722:	4581                	li	a1,0
     724:	14f1                	addi	s1,s1,-4
     726:	3ee1                	jal	2fe <printf_putch>
     728:	0044ad83          	lw	s11,4(s1)
     72c:	a05d                	j	7d2 <vprintfmt.constprop.0+0x3ac>
     72e:	0004af83          	lw	t6,0(s1)
     732:	ffc48c93          	addi	s9,s1,-4
     736:	03000493          	li	s1,48
     73a:	01fb7363          	bgeu	s6,t6,740 <vprintfmt.constprop.0+0x31a>
     73e:	84e2                	mv	s1,s8
     740:	4581                	li	a1,0
     742:	01f48533          	add	a0,s1,t6
     746:	3e65                	jal	2fe <printf_putch>
     748:	000ca783          	lw	a5,0(s9)
     74c:	03000293          	li	t0,48
     750:	00fb7363          	bgeu	s6,a5,756 <vprintfmt.constprop.0+0x330>
     754:	82e2                	mv	t0,s8
     756:	4581                	li	a1,0
     758:	00f28533          	add	a0,t0,a5
     75c:	364d                	jal	2fe <printf_putch>
     75e:	ffcca303          	lw	t1,-4(s9)
     762:	03000393          	li	t2,48
     766:	006b7363          	bgeu	s6,t1,76c <vprintfmt.constprop.0+0x346>
     76a:	83e2                	mv	t2,s8
     76c:	4581                	li	a1,0
     76e:	00638533          	add	a0,t2,t1
     772:	3671                	jal	2fe <printf_putch>
     774:	ff8ca603          	lw	a2,-8(s9)
     778:	03000893          	li	a7,48
     77c:	00cb7363          	bgeu	s6,a2,782 <vprintfmt.constprop.0+0x35c>
     780:	88e2                	mv	a7,s8
     782:	4581                	li	a1,0
     784:	00c88533          	add	a0,a7,a2
     788:	3e9d                	jal	2fe <printf_putch>
     78a:	ff4cad03          	lw	s10,-12(s9)
     78e:	03000993          	li	s3,48
     792:	01ab7363          	bgeu	s6,s10,798 <vprintfmt.constprop.0+0x372>
     796:	89e2                	mv	s3,s8
     798:	01a98533          	add	a0,s3,s10
     79c:	4581                	li	a1,0
     79e:	3685                	jal	2fe <printf_putch>
     7a0:	ff0ca683          	lw	a3,-16(s9)
     7a4:	03000513          	li	a0,48
     7a8:	00db7363          	bgeu	s6,a3,7ae <vprintfmt.constprop.0+0x388>
     7ac:	8562                	mv	a0,s8
     7ae:	4581                	li	a1,0
     7b0:	9536                	add	a0,a0,a3
     7b2:	36b1                	jal	2fe <printf_putch>
     7b4:	feccaa83          	lw	s5,-20(s9)
     7b8:	03000813          	li	a6,48
     7bc:	015b7363          	bgeu	s6,s5,7c2 <vprintfmt.constprop.0+0x39c>
     7c0:	8862                	mv	a6,s8
     7c2:	4581                	li	a1,0
     7c4:	01580533          	add	a0,a6,s5
     7c8:	3e1d                	jal	2fe <printf_putch>
     7ca:	fe8cad83          	lw	s11,-24(s9)
     7ce:	fe4c8493          	addi	s1,s9,-28
     7d2:	03000a13          	li	s4,48
     7d6:	01bb7363          	bgeu	s6,s11,7dc <vprintfmt.constprop.0+0x3b6>
     7da:	8a62                	mv	s4,s8
     7dc:	01ba0533          	add	a0,s4,s11
     7e0:	4581                	li	a1,0
     7e2:	00c10d93          	addi	s11,sp,12
     7e6:	3e21                	jal	2fe <printf_putch>
     7e8:	f5b493e3          	bne	s1,s11,72e <vprintfmt.constprop.0+0x308>
     7ec:	b171                	j	478 <vprintfmt.constprop.0+0x52>
     7ee:	fffa4093          	not	ra,s4
     7f2:	41f0dc13          	srai	s8,ra,0x1f
     7f6:	001b4903          	lbu	s2,1(s6)
     7fa:	018a7a33          	and	s4,s4,s8
     7fe:	8b22                	mv	s6,s0
     800:	b94d                	j	4b2 <vprintfmt.constprop.0+0x8c>
     802:	001b4083          	lbu	ra,1(s6)
     806:	fd090d93          	addi	s11,s2,-48
     80a:	8b22                	mv	s6,s0
     80c:	fd008e13          	addi	t3,ra,-48
     810:	8906                	mv	s2,ra
     812:	03c76463          	bltu	a4,t3,83a <vprintfmt.constprop.0+0x414>
     816:	002d9413          	slli	s0,s11,0x2
     81a:	01b40eb3          	add	t4,s0,s11
     81e:	0b05                	addi	s6,s6,1
     820:	001e9f13          	slli	t5,t4,0x1
     824:	001f0fb3          	add	t6,t5,ra
     828:	000b4083          	lbu	ra,0(s6)
     82c:	fd0f8d93          	addi	s11,t6,-48
     830:	fd008793          	addi	a5,ra,-48
     834:	8906                	mv	s2,ra
     836:	fef770e3          	bgeu	a4,a5,816 <vprintfmt.constprop.0+0x3f0>
     83a:	c60a5ce3          	bgez	s4,4b2 <vprintfmt.constprop.0+0x8c>
     83e:	8a6e                	mv	s4,s11
     840:	5dfd                	li	s11,-1
     842:	b985                	j	4b2 <vprintfmt.constprop.0+0x8c>
     844:	04100713          	li	a4,65
     848:	c43a                	sw	a4,8(sp)
     84a:	4305                	li	t1,1
     84c:	4941                	li	s2,16
     84e:	4a81                	li	s5,0
     850:	ccd347e3          	blt	t1,a3,51e <vprintfmt.constprop.0+0xf8>
     854:	004b8393          	addi	t2,s7,4
     858:	a8bd                	j	8d6 <vprintfmt.constprop.0+0x4b0>
     85a:	06100293          	li	t0,97
     85e:	4941                	li	s2,16
     860:	4a81                	li	s5,0
     862:	c416                	sw	t0,8(sp)
     864:	b955                	j	518 <vprintfmt.constprop.0+0xf2>
     866:	000ba503          	lw	a0,0(s7)
     86a:	4581                	li	a1,0
     86c:	0b91                	addi	s7,s7,4
     86e:	3c41                	jal	2fe <printf_putch>
     870:	b121                	j	478 <vprintfmt.constprop.0+0x52>
     872:	4a85                	li	s5,1
     874:	26dac163          	blt	s5,a3,ad6 <vprintfmt.constprop.0+0x6b0>
     878:	000bac83          	lw	s9,0(s7)
     87c:	004b8493          	addi	s1,s7,4
     880:	8ba6                	mv	s7,s1
     882:	41fcdb13          	srai	s6,s9,0x1f
     886:	000b5e63          	bgez	s6,8a2 <vprintfmt.constprop.0+0x47c>
     88a:	4581                	li	a1,0
     88c:	02d00513          	li	a0,45
     890:	34bd                	jal	2fe <printf_putch>
     892:	41900cb3          	neg	s9,s9
     896:	01903833          	snez	a6,s9
     89a:	41600c33          	neg	s8,s6
     89e:	410c0b33          	sub	s6,s8,a6
     8a2:	4929                	li	s2,10
     8a4:	4a81                	li	s5,0
     8a6:	b169                	j	530 <vprintfmt.constprop.0+0x10a>
     8a8:	001b4903          	lbu	s2,1(s6)
     8ac:	0685                	addi	a3,a3,1
     8ae:	8b22                	mv	s6,s0
     8b0:	b109                	j	4b2 <vprintfmt.constprop.0+0x8c>
     8b2:	4921                	li	s2,8
     8b4:	4a81                	li	s5,0
     8b6:	b18d                	j	518 <vprintfmt.constprop.0+0xf2>
     8b8:	4581                	li	a1,0
     8ba:	03000513          	li	a0,48
     8be:	3481                	jal	2fe <printf_putch>
     8c0:	07800513          	li	a0,120
     8c4:	4581                	li	a1,0
     8c6:	3c25                	jal	2fe <printf_putch>
     8c8:	06100513          	li	a0,97
     8cc:	4941                	li	s2,16
     8ce:	004b8393          	addi	t2,s7,4
     8d2:	4a81                	li	s5,0
     8d4:	c42a                	sw	a0,8(sp)
     8d6:	000bac83          	lw	s9,0(s7)
     8da:	4b01                	li	s6,0
     8dc:	8b9e                	mv	s7,t2
     8de:	b989                	j	530 <vprintfmt.constprop.0+0x10a>
     8e0:	000bab03          	lw	s6,0(s7)
     8e4:	0b91                	addi	s7,s7,4
     8e6:	200b0363          	beqz	s6,aec <vprintfmt.constprop.0+0x6c6>
     8ea:	1f405063          	blez	s4,aca <vprintfmt.constprop.0+0x6a4>
     8ee:	02d00513          	li	a0,45
     8f2:	12a99363          	bne	s3,a0,a18 <vprintfmt.constprop.0+0x5f2>
     8f6:	000b4503          	lbu	a0,0(s6)
     8fa:	c105                	beqz	a0,91a <vprintfmt.constprop.0+0x4f4>
     8fc:	59fd                	li	s3,-1
     8fe:	000dc563          	bltz	s11,908 <vprintfmt.constprop.0+0x4e2>
     902:	1dfd                	addi	s11,s11,-1
     904:	013d8963          	beq	s11,s3,916 <vprintfmt.constprop.0+0x4f0>
     908:	4581                	li	a1,0
     90a:	0b05                	addi	s6,s6,1
     90c:	3acd                	jal	2fe <printf_putch>
     90e:	000b4503          	lbu	a0,0(s6)
     912:	1a7d                	addi	s4,s4,-1
     914:	f56d                	bnez	a0,8fe <vprintfmt.constprop.0+0x4d8>
     916:	b74051e3          	blez	s4,478 <vprintfmt.constprop.0+0x52>
     91a:	007a7093          	andi	ra,s4,7
     91e:	fffa0c93          	addi	s9,s4,-1
     922:	06008963          	beqz	ra,994 <vprintfmt.constprop.0+0x56e>
     926:	4285                	li	t0,1
     928:	04508f63          	beq	ra,t0,986 <vprintfmt.constprop.0+0x560>
     92c:	4309                	li	t1,2
     92e:	04608763          	beq	ra,t1,97c <vprintfmt.constprop.0+0x556>
     932:	438d                	li	t2,3
     934:	02708f63          	beq	ra,t2,972 <vprintfmt.constprop.0+0x54c>
     938:	4611                	li	a2,4
     93a:	02c08763          	beq	ra,a2,968 <vprintfmt.constprop.0+0x542>
     93e:	4895                	li	a7,5
     940:	01108f63          	beq	ra,a7,95e <vprintfmt.constprop.0+0x538>
     944:	4d19                	li	s10,6
     946:	01a08763          	beq	ra,s10,954 <vprintfmt.constprop.0+0x52e>
     94a:	4581                	li	a1,0
     94c:	02000513          	li	a0,32
     950:	327d                	jal	2fe <printf_putch>
     952:	8a66                	mv	s4,s9
     954:	4581                	li	a1,0
     956:	02000513          	li	a0,32
     95a:	3255                	jal	2fe <printf_putch>
     95c:	1a7d                	addi	s4,s4,-1
     95e:	4581                	li	a1,0
     960:	02000513          	li	a0,32
     964:	3a69                	jal	2fe <printf_putch>
     966:	1a7d                	addi	s4,s4,-1
     968:	4581                	li	a1,0
     96a:	02000513          	li	a0,32
     96e:	3a41                	jal	2fe <printf_putch>
     970:	1a7d                	addi	s4,s4,-1
     972:	4581                	li	a1,0
     974:	02000513          	li	a0,32
     978:	3259                	jal	2fe <printf_putch>
     97a:	1a7d                	addi	s4,s4,-1
     97c:	4581                	li	a1,0
     97e:	02000513          	li	a0,32
     982:	3ab5                	jal	2fe <printf_putch>
     984:	1a7d                	addi	s4,s4,-1
     986:	1a7d                	addi	s4,s4,-1
     988:	4581                	li	a1,0
     98a:	02000513          	li	a0,32
     98e:	3a85                	jal	2fe <printf_putch>
     990:	ae0a04e3          	beqz	s4,478 <vprintfmt.constprop.0+0x52>
     994:	4581                	li	a1,0
     996:	02000513          	li	a0,32
     99a:	3295                	jal	2fe <printf_putch>
     99c:	4581                	li	a1,0
     99e:	02000513          	li	a0,32
     9a2:	3ab1                	jal	2fe <printf_putch>
     9a4:	4581                	li	a1,0
     9a6:	02000513          	li	a0,32
     9aa:	3a91                	jal	2fe <printf_putch>
     9ac:	4581                	li	a1,0
     9ae:	02000513          	li	a0,32
     9b2:	32b1                	jal	2fe <printf_putch>
     9b4:	4581                	li	a1,0
     9b6:	02000513          	li	a0,32
     9ba:	3291                	jal	2fe <printf_putch>
     9bc:	4581                	li	a1,0
     9be:	02000513          	li	a0,32
     9c2:	3a35                	jal	2fe <printf_putch>
     9c4:	4581                	li	a1,0
     9c6:	02000513          	li	a0,32
     9ca:	3a15                	jal	2fe <printf_putch>
     9cc:	1a61                	addi	s4,s4,-8
     9ce:	4581                	li	a1,0
     9d0:	02000513          	li	a0,32
     9d4:	322d                	jal	2fe <printf_putch>
     9d6:	fa0a1fe3          	bnez	s4,994 <vprintfmt.constprop.0+0x56e>
     9da:	bc79                	j	478 <vprintfmt.constprop.0+0x52>
     9dc:	4581                	li	a1,0
     9de:	02500513          	li	a0,37
     9e2:	3a31                	jal	2fe <printf_putch>
     9e4:	bc51                	j	478 <vprintfmt.constprop.0+0x52>
     9e6:	000bad83          	lw	s11,0(s7)
     9ea:	001b4903          	lbu	s2,1(s6)
     9ee:	0b91                	addi	s7,s7,4
     9f0:	8b22                	mv	s6,s0
     9f2:	b5a1                	j	83a <vprintfmt.constprop.0+0x414>
     9f4:	4581                	li	a1,0
     9f6:	02500513          	li	a0,37
     9fa:	3211                	jal	2fe <printf_putch>
     9fc:	8426                	mv	s0,s1
     9fe:	bcad                	j	478 <vprintfmt.constprop.0+0x52>
     a00:	b52cf2e3          	bgeu	s9,s2,544 <vprintfmt.constprop.0+0x11e>
     a04:	4885                	li	a7,1
     a06:	4481                	li	s1,0
     a08:	4c05                	li	s8,1
     a0a:	b748cae3          	blt	a7,s4,57e <vprintfmt.constprop.0+0x158>
     a0e:	b11d                	j	634 <vprintfmt.constprop.0+0x20e>
     a10:	000036b7          	lui	a3,0x3
     a14:	9bc68b13          	addi	s6,a3,-1604 # 29bc <__clz_tab+0x100>
     a18:	85ee                	mv	a1,s11
     a1a:	855a                	mv	a0,s6
     a1c:	22d000ef          	jal	ra,1448 <strnlen>
     a20:	40aa0a33          	sub	s4,s4,a0
     a24:	0b405363          	blez	s4,aca <vprintfmt.constprop.0+0x6a4>
     a28:	007a7813          	andi	a6,s4,7
     a2c:	fffa0c13          	addi	s8,s4,-1
     a30:	06080263          	beqz	a6,a94 <vprintfmt.constprop.0+0x66e>
     a34:	4705                	li	a4,1
     a36:	04e80963          	beq	a6,a4,a88 <vprintfmt.constprop.0+0x662>
     a3a:	4e09                	li	t3,2
     a3c:	05c80263          	beq	a6,t3,a80 <vprintfmt.constprop.0+0x65a>
     a40:	4e8d                	li	t4,3
     a42:	03d80b63          	beq	a6,t4,a78 <vprintfmt.constprop.0+0x652>
     a46:	4f11                	li	t5,4
     a48:	03e80463          	beq	a6,t5,a70 <vprintfmt.constprop.0+0x64a>
     a4c:	4f95                	li	t6,5
     a4e:	01f80d63          	beq	a6,t6,a68 <vprintfmt.constprop.0+0x642>
     a52:	4799                	li	a5,6
     a54:	00f80663          	beq	a6,a5,a60 <vprintfmt.constprop.0+0x63a>
     a58:	4581                	li	a1,0
     a5a:	854e                	mv	a0,s3
     a5c:	304d                	jal	2fe <printf_putch>
     a5e:	8a62                	mv	s4,s8
     a60:	4581                	li	a1,0
     a62:	854e                	mv	a0,s3
     a64:	3869                	jal	2fe <printf_putch>
     a66:	1a7d                	addi	s4,s4,-1
     a68:	4581                	li	a1,0
     a6a:	854e                	mv	a0,s3
     a6c:	3849                	jal	2fe <printf_putch>
     a6e:	1a7d                	addi	s4,s4,-1
     a70:	4581                	li	a1,0
     a72:	854e                	mv	a0,s3
     a74:	3069                	jal	2fe <printf_putch>
     a76:	1a7d                	addi	s4,s4,-1
     a78:	4581                	li	a1,0
     a7a:	854e                	mv	a0,s3
     a7c:	3049                	jal	2fe <printf_putch>
     a7e:	1a7d                	addi	s4,s4,-1
     a80:	4581                	li	a1,0
     a82:	854e                	mv	a0,s3
     a84:	38ad                	jal	2fe <printf_putch>
     a86:	1a7d                	addi	s4,s4,-1
     a88:	1a7d                	addi	s4,s4,-1
     a8a:	4581                	li	a1,0
     a8c:	854e                	mv	a0,s3
     a8e:	3885                	jal	2fe <printf_putch>
     a90:	020a0d63          	beqz	s4,aca <vprintfmt.constprop.0+0x6a4>
     a94:	4581                	li	a1,0
     a96:	854e                	mv	a0,s3
     a98:	309d                	jal	2fe <printf_putch>
     a9a:	4581                	li	a1,0
     a9c:	854e                	mv	a0,s3
     a9e:	3085                	jal	2fe <printf_putch>
     aa0:	4581                	li	a1,0
     aa2:	854e                	mv	a0,s3
     aa4:	38a9                	jal	2fe <printf_putch>
     aa6:	4581                	li	a1,0
     aa8:	854e                	mv	a0,s3
     aaa:	3891                	jal	2fe <printf_putch>
     aac:	4581                	li	a1,0
     aae:	854e                	mv	a0,s3
     ab0:	30b9                	jal	2fe <printf_putch>
     ab2:	4581                	li	a1,0
     ab4:	854e                	mv	a0,s3
     ab6:	30a1                	jal	2fe <printf_putch>
     ab8:	4581                	li	a1,0
     aba:	854e                	mv	a0,s3
     abc:	3089                	jal	2fe <printf_putch>
     abe:	1a61                	addi	s4,s4,-8
     ac0:	4581                	li	a1,0
     ac2:	854e                	mv	a0,s3
     ac4:	382d                	jal	2fe <printf_putch>
     ac6:	fc0a17e3          	bnez	s4,a94 <vprintfmt.constprop.0+0x66e>
     aca:	000b4503          	lbu	a0,0(s6)
     ace:	9a0505e3          	beqz	a0,478 <vprintfmt.constprop.0+0x52>
     ad2:	59fd                	li	s3,-1
     ad4:	b52d                	j	8fe <vprintfmt.constprop.0+0x4d8>
     ad6:	007b8593          	addi	a1,s7,7
     ada:	ff85fd93          	andi	s11,a1,-8
     ade:	008d8b93          	addi	s7,s11,8
     ae2:	000dac83          	lw	s9,0(s11)
     ae6:	004dab03          	lw	s6,4(s11)
     aea:	bb71                	j	886 <vprintfmt.constprop.0+0x460>
     aec:	01405663          	blez	s4,af8 <vprintfmt.constprop.0+0x6d2>
     af0:	02d00493          	li	s1,45
     af4:	f0999ee3          	bne	s3,s1,a10 <vprintfmt.constprop.0+0x5ea>
     af8:	000035b7          	lui	a1,0x3
     afc:	9bc58b13          	addi	s6,a1,-1604 # 29bc <__clz_tab+0x100>
     b00:	02800513          	li	a0,40
     b04:	59fd                	li	s3,-1
     b06:	bbe5                	j	8fe <vprintfmt.constprop.0+0x4d8>

00000b08 <putchar>:
     b08:	04022603          	lw	a2,64(tp) # 40 <buflen.1937>
     b0c:	00020293          	mv	t0,tp
     b10:	00160593          	addi	a1,a2,1
     b14:	00c28333          	add	t1,t0,a2
     b18:	04b22023          	sw	a1,64(tp) # 40 <buflen.1937>
     b1c:	00a30023          	sb	a0,0(t1)
     b20:	43a9                	li	t2,10
     b22:	00750863          	beq	a0,t2,b32 <putchar+0x2a>
     b26:	04000513          	li	a0,64
     b2a:	00a58663          	beq	a1,a0,b36 <putchar+0x2e>
     b2e:	4501                	li	a0,0
     b30:	8082                	ret
     b32:	0eb05d63          	blez	a1,c2c <putchar+0x124>
     b36:	00020e13          	mv	t3,tp
     b3a:	001e0793          	addi	a5,t3,1
     b3e:	fff7ce83          	lbu	t4,-1(a5)
     b42:	fffe4f13          	not	t5,t3
     b46:	f0000fb7          	lui	t6,0xf0000
     b4a:	01ee06b3          	add	a3,t3,t5
     b4e:	00b68633          	add	a2,a3,a1
     b52:	01df8023          	sb	t4,0(t6) # f0000000 <__C_STACK_TOP__+0xefff0000>
     b56:	fff58713          	addi	a4,a1,-1
     b5a:	00767293          	andi	t0,a2,7
     b5e:	0ce05763          	blez	a4,c2c <putchar+0x124>
     b62:	06028e63          	beqz	t0,bde <putchar+0xd6>
     b66:	4305                	li	t1,1
     b68:	06628063          	beq	t0,t1,bc8 <putchar+0xc0>
     b6c:	4389                	li	t2,2
     b6e:	04728863          	beq	t0,t2,bbe <putchar+0xb6>
     b72:	450d                	li	a0,3
     b74:	04a28063          	beq	t0,a0,bb4 <putchar+0xac>
     b78:	4891                	li	a7,4
     b7a:	03128863          	beq	t0,a7,baa <putchar+0xa2>
     b7e:	4e95                	li	t4,5
     b80:	03d28063          	beq	t0,t4,ba0 <putchar+0x98>
     b84:	4f19                	li	t5,6
     b86:	01e28863          	beq	t0,t5,b96 <putchar+0x8e>
     b8a:	001e4683          	lbu	a3,1(t3)
     b8e:	002e0793          	addi	a5,t3,2
     b92:	00df8023          	sb	a3,0(t6)
     b96:	0007c603          	lbu	a2,0(a5)
     b9a:	0785                	addi	a5,a5,1
     b9c:	00cf8023          	sb	a2,0(t6)
     ba0:	0007c703          	lbu	a4,0(a5)
     ba4:	0785                	addi	a5,a5,1
     ba6:	00ef8023          	sb	a4,0(t6)
     baa:	0007c283          	lbu	t0,0(a5)
     bae:	0785                	addi	a5,a5,1
     bb0:	005f8023          	sb	t0,0(t6)
     bb4:	0007c303          	lbu	t1,0(a5)
     bb8:	0785                	addi	a5,a5,1
     bba:	006f8023          	sb	t1,0(t6)
     bbe:	0007c383          	lbu	t2,0(a5)
     bc2:	0785                	addi	a5,a5,1
     bc4:	007f8023          	sb	t2,0(t6)
     bc8:	0785                	addi	a5,a5,1
     bca:	fff7c503          	lbu	a0,-1(a5)
     bce:	40fe08b3          	sub	a7,t3,a5
     bd2:	00b88eb3          	add	t4,a7,a1
     bd6:	00af8023          	sb	a0,0(t6)
     bda:	05d05963          	blez	t4,c2c <putchar+0x124>
     bde:	0007cf03          	lbu	t5,0(a5)
     be2:	07a1                	addi	a5,a5,8
     be4:	40fe0533          	sub	a0,t3,a5
     be8:	01ef8023          	sb	t5,0(t6)
     bec:	ff97c683          	lbu	a3,-7(a5)
     bf0:	00b508b3          	add	a7,a0,a1
     bf4:	00df8023          	sb	a3,0(t6)
     bf8:	ffa7c603          	lbu	a2,-6(a5)
     bfc:	00cf8023          	sb	a2,0(t6)
     c00:	ffb7c703          	lbu	a4,-5(a5)
     c04:	00ef8023          	sb	a4,0(t6)
     c08:	ffc7c283          	lbu	t0,-4(a5)
     c0c:	005f8023          	sb	t0,0(t6)
     c10:	ffd7c303          	lbu	t1,-3(a5)
     c14:	006f8023          	sb	t1,0(t6)
     c18:	ffe7c383          	lbu	t2,-2(a5)
     c1c:	007f8023          	sb	t2,0(t6)
     c20:	fff7ce83          	lbu	t4,-1(a5)
     c24:	01df8023          	sb	t4,0(t6)
     c28:	fb104be3          	bgtz	a7,bde <putchar+0xd6>
     c2c:	04022023          	sw	zero,64(tp) # 40 <buflen.1937>
     c30:	4501                	li	a0,0
     c32:	8082                	ret

00000c34 <sc_printf>:
     c34:	7139                	addi	sp,sp,-64
     c36:	02410313          	addi	t1,sp,36
     c3a:	d22e                	sw	a1,36(sp)
     c3c:	859a                	mv	a1,t1
     c3e:	ce06                	sw	ra,28(sp)
     c40:	d432                	sw	a2,40(sp)
     c42:	d636                	sw	a3,44(sp)
     c44:	d83a                	sw	a4,48(sp)
     c46:	da3e                	sw	a5,52(sp)
     c48:	dc42                	sw	a6,56(sp)
     c4a:	de46                	sw	a7,60(sp)
     c4c:	c61a                	sw	t1,12(sp)
     c4e:	fd8ff0ef          	jal	ra,426 <vprintfmt.constprop.0>
     c52:	40f2                	lw	ra,28(sp)
     c54:	4501                	li	a0,0
     c56:	6121                	addi	sp,sp,64
     c58:	8082                	ret

00000c5a <Func_1.constprop.1>:
     c5a:	04300793          	li	a5,67
     c5e:	00f50463          	beq	a0,a5,c66 <Func_1.constprop.1+0xc>
     c62:	4501                	li	a0,0
     c64:	8082                	ret
     c66:	628d                	lui	t0,0x3
     c68:	5aa28623          	sb	a0,1452(t0) # 35ac <Ch_1_Glob>
     c6c:	4505                	li	a0,1
     c6e:	8082                	ret

00000c70 <main>:
     c70:	00003637          	lui	a2,0x3
     c74:	7131                	addi	sp,sp,-192
     c76:	9c460713          	addi	a4,a2,-1596 # 29c4 <__clz_tab+0x108>
     c7a:	dd22                	sw	s0,184(sp)
     c7c:	db26                	sw	s1,180(sp)
     c7e:	4340                	lw	s0,4(a4)
     c80:	9c462483          	lw	s1,-1596(a2)
     c84:	680d                	lui	a6,0x3
     c86:	df06                	sw	ra,188(sp)
     c88:	d356                	sw	s5,164(sp)
     c8a:	00872083          	lw	ra,8(a4)
     c8e:	5b480a93          	addi	s5,a6,1460 # 35b4 <glob1.3272>
     c92:	d94a                	sw	s2,176(sp)
     c94:	d74e                	sw	s3,172(sp)
     c96:	d15a                	sw	s6,160(sp)
     c98:	cf5e                	sw	s7,156(sp)
     c9a:	cd62                	sw	s8,152(sp)
     c9c:	cb66                	sw	s9,148(sp)
     c9e:	c96a                	sw	s10,144(sp)
     ca0:	c76e                	sw	s11,140(sp)
     ca2:	d552                	sw	s4,168(sp)
     ca4:	000036b7          	lui	a3,0x3
     ca8:	030a8913          	addi	s2,s5,48
     cac:	698d                	lui	s3,0x3
     cae:	6b0d                	lui	s6,0x3
     cb0:	4b89                	li	s7,2
     cb2:	02800c13          	li	s8,40
     cb6:	f4068793          	addi	a5,a3,-192 # 2f40 <__clz_tab+0x684>
     cba:	00c72383          	lw	t2,12(a4)
     cbe:	049aa023          	sw	s1,64(s5)
     cc2:	048aa223          	sw	s0,68(s5)
     cc6:	5b59a423          	sw	s5,1448(s3) # 35a8 <Next_Ptr_Glob>
     cca:	5b2b2223          	sw	s2,1444(s6) # 35a4 <Ptr_Glob>
     cce:	035aa823          	sw	s5,48(s5)
     cd2:	020aaa23          	sw	zero,52(s5)
     cd6:	037aac23          	sw	s7,56(s5)
     cda:	038aae23          	sw	s8,60(s5)
     cde:	01072283          	lw	t0,16(a4)
     ce2:	01472f83          	lw	t6,20(a4)
     ce6:	01872f03          	lw	t5,24(a4)
     cea:	01c75e83          	lhu	t4,28(a4)
     cee:	01e74e03          	lbu	t3,30(a4)
     cf2:	f406a303          	lw	t1,-192(a3)
     cf6:	0047a883          	lw	a7,4(a5)
     cfa:	041aa423          	sw	ra,72(s5)
     cfe:	0087ac83          	lw	s9,8(a5)
     d02:	00c7ad83          	lw	s11,12(a5)
     d06:	4b84                	lw	s1,16(a5)
     d08:	4bc0                	lw	s0,20(a5)
     d0a:	4f90                	lw	a2,24(a5)
     d0c:	01c7d703          	lhu	a4,28(a5)
     d10:	01e7c783          	lbu	a5,30(a5)
     d14:	6d0d                	lui	s10,0x3
     d16:	047aa623          	sw	t2,76(s5)
     d1a:	6dcd0d13          	addi	s10,s10,1756 # 36dc <Arr_2_Glob>
     d1e:	46a9                	li	a3,10
     d20:	1f400393          	li	t2,500
     d24:	045aa823          	sw	t0,80(s5)
     d28:	05faaa23          	sw	t6,84(s5)
     d2c:	05eaac23          	sw	t5,88(s5)
     d30:	05da9e23          	sh	t4,92(s5)
     d34:	05ca8f23          	sb	t3,94(s5)
     d38:	d09a                	sw	t1,96(sp)
     d3a:	d2c6                	sw	a7,100(sp)
     d3c:	d4e6                	sw	s9,104(sp)
     d3e:	d6ee                	sw	s11,108(sp)
     d40:	d8a6                	sw	s1,112(sp)
     d42:	daa2                	sw	s0,116(sp)
     d44:	dcb2                	sw	a2,120(sp)
     d46:	06e11e23          	sh	a4,124(sp)
     d4a:	06f10f23          	sb	a5,126(sp)
     d4e:	64dd2e23          	sw	a3,1628(s10)
     d52:	4085                	li	ra,1
     d54:	c81e                	sw	t2,16(sp)
     d56:	00a0d863          	bge	ra,a0,d66 <main+0xf6>
     d5a:	41c8                	lw	a0,4(a1)
     d5c:	c61a                	sw	t1,12(sp)
     d5e:	6d2000ef          	jal	ra,1430 <atoi>
     d62:	c82a                	sw	a0,16(sp)
     d64:	4532                	lw	a0,12(sp)
     d66:	00003937          	lui	s2,0x3
     d6a:	c62a                	sw	a0,12(sp)
     d6c:	bc490513          	addi	a0,s2,-1084 # 2bc4 <__clz_tab+0x308>
     d70:	35d1                	jal	c34 <sc_printf>
     d72:	000035b7          	lui	a1,0x3
     d76:	9e458513          	addi	a0,a1,-1564 # 29e4 <__clz_tab+0x128>
     d7a:	3d6d                	jal	c34 <sc_printf>
     d7c:	bc490513          	addi	a0,s2,-1084
     d80:	3d55                	jal	c34 <sc_printf>
     d82:	000032b7          	lui	t0,0x3
     d86:	a1428513          	addi	a0,t0,-1516 # 2a14 <__clz_tab+0x158>
     d8a:	356d                	jal	c34 <sc_printf>
     d8c:	bc490513          	addi	a0,s2,-1084
     d90:	3555                	jal	c34 <sc_printf>
     d92:	49c2                	lw	s3,16(sp)
     d94:	00003fb7          	lui	t6,0x3
     d98:	a44f8513          	addi	a0,t6,-1468 # 2a44 <__clz_tab+0x188>
     d9c:	85ce                	mv	a1,s3
     d9e:	3d59                	jal	c34 <sc_printf>
     da0:	c0002f73          	rdcycle	t5
     da4:	6e8d                	lui	t4,0x3
     da6:	4e05                	li	t3,1
     da8:	630d                	lui	t1,0x3
     daa:	5beea023          	sw	t5,1440(t4) # 35a0 <Begin_Time>
     dae:	59c32e23          	sw	t3,1436(t1) # 359c <Run_Index>
     db2:	4f32                	lw	t5,12(sp)
     db4:	66098563          	beqz	s3,141e <main+0x7ae>
     db8:	00003a37          	lui	s4,0x3
     dbc:	f60a0d93          	addi	s11,s4,-160 # 2f60 <__clz_tab+0x6a4>
     dc0:	000038b7          	lui	a7,0x3
     dc4:	f808a603          	lw	a2,-128(a7) # 2f80 <__clz_tab+0x6c4>
     dc8:	f60a2b83          	lw	s7,-160(s4)
     dcc:	004dac03          	lw	s8,4(s11)
     dd0:	008dac83          	lw	s9,8(s11)
     dd4:	00cda483          	lw	s1,12(s11)
     dd8:	010da403          	lw	s0,16(s11)
     ddc:	014da703          	lw	a4,20(s11)
     de0:	018da783          	lw	a5,24(s11)
     de4:	01cdd683          	lhu	a3,28(s11)
     de8:	6b0d                	lui	s6,0x3
     dea:	608d                	lui	ra,0x3
     dec:	6391                	lui	t2,0x4
     dee:	5a4b2903          	lw	s2,1444(s6) # 35a4 <Ptr_Glob>
     df2:	cc5e                	sw	s7,24(sp)
     df4:	ce62                	sw	s8,28(sp)
     df6:	d066                	sw	s9,32(sp)
     df8:	d226                	sw	s1,36(sp)
     dfa:	d422                	sw	s0,40(sp)
     dfc:	dc32                	sw	a2,56(sp)
     dfe:	d63a                	sw	a4,44(sp)
     e00:	d83e                	sw	a5,48(sp)
     e02:	02d11b23          	sh	a3,54(sp)
     e06:	4c05                	li	s8,1
     e08:	6c8d                	lui	s9,0x3
     e0a:	ca06                	sw	ra,20(sp)
     e0c:	0080                	addi	s0,sp,64
     e0e:	1084                	addi	s1,sp,96
     e10:	6b8d                	lui	s7,0x3
     e12:	6dc38b13          	addi	s6,t2,1756 # 46dc <_gp+0x97c>
     e16:	698d                	lui	s3,0x3
     e18:	de32                	sw	a2,60(sp)
     e1a:	a865                	j	ed2 <main+0x262>
     e1c:	00092083          	lw	ra,0(s2)
     e20:	0000aa03          	lw	s4,0(ra) # 3000 <impure_data+0x50>
     e24:	0200a503          	lw	a0,32(ra)
     e28:	0040af83          	lw	t6,4(ra)
     e2c:	0080af03          	lw	t5,8(ra)
     e30:	00c0ae83          	lw	t4,12(ra)
     e34:	0100ae03          	lw	t3,16(ra)
     e38:	0140a303          	lw	t1,20(ra)
     e3c:	0180a883          	lw	a7,24(ra)
     e40:	01c0a803          	lw	a6,28(ra)
     e44:	0240a603          	lw	a2,36(ra)
     e48:	0280a683          	lw	a3,40(ra)
     e4c:	02c0a783          	lw	a5,44(ra)
     e50:	01492023          	sw	s4,0(s2)
     e54:	02a92023          	sw	a0,32(s2)
     e58:	01f92223          	sw	t6,4(s2)
     e5c:	01e92423          	sw	t5,8(s2)
     e60:	01d92623          	sw	t4,12(s2)
     e64:	01c92823          	sw	t3,16(s2)
     e68:	00692a23          	sw	t1,20(s2)
     e6c:	01192c23          	sw	a7,24(s2)
     e70:	01092e23          	sw	a6,28(s2)
     e74:	02c92223          	sw	a2,36(s2)
     e78:	02d92423          	sw	a3,40(s2)
     e7c:	02f92623          	sw	a5,44(s2)
     e80:	04100513          	li	a0,65
     e84:	3bd9                	jal	c5a <Func_1.constprop.1>
     e86:	4a05                	li	s4,1
     e88:	428d                	li	t0,3
     e8a:	19450363          	beq	a0,s4,1010 <main+0x3a0>
     e8e:	04200513          	li	a0,66
     e92:	c616                	sw	t0,12(sp)
     e94:	33d9                	jal	c5a <Func_1.constprop.1>
     e96:	43b2                	lw	t2,12(sp)
     e98:	1caa0763          	beq	s4,a0,1066 <main+0x3f6>
     e9c:	00139613          	slli	a2,t2,0x1
     ea0:	007606b3          	add	a3,a2,t2
     ea4:	479d                	li	a5,7
     ea6:	02f6c2b3          	div	t0,a3,a5
     eaa:	5accc703          	lbu	a4,1452(s9) # 35ac <Ch_1_Glob>
     eae:	04100593          	li	a1,65
     eb2:	8f16                	mv	t5,t0
     eb4:	00b71863          	bne	a4,a1,ec4 <main+0x254>
     eb8:	5909a083          	lw	ra,1424(s3) # 3590 <Int_Glob>
     ebc:	00928f93          	addi	t6,t0,9
     ec0:	401f8f33          	sub	t5,t6,ra
     ec4:	4e42                	lw	t3,16(sp)
     ec6:	0c05                	addi	s8,s8,1
     ec8:	6e8d                	lui	t4,0x3
     eca:	598eae23          	sw	s8,1436(t4) # 359c <Run_Index>
     ece:	1f8e6663          	bltu	t3,s8,10ba <main+0x44a>
     ed2:	01edc503          	lbu	a0,30(s11)
     ed6:	4f52                	lw	t5,20(sp)
     ed8:	4ee2                	lw	t4,24(sp)
     eda:	4e72                	lw	t3,28(sp)
     edc:	5302                	lw	t1,32(sp)
     ede:	5812                	lw	a6,36(sp)
     ee0:	5a22                	lw	s4,40(sp)
     ee2:	58b2                	lw	a7,44(sp)
     ee4:	5642                	lw	a2,48(sp)
     ee6:	03615703          	lhu	a4,54(sp)
     eea:	06214583          	lbu	a1,98(sp)
     eee:	04100293          	li	t0,65
     ef2:	04200f93          	li	t6,66
     ef6:	5a5c8623          	sb	t0,1452(s9)
     efa:	59ff0a23          	sb	t6,1428(t5)
     efe:	c0f6                	sw	t4,64(sp)
     f00:	c2f2                	sw	t3,68(sp)
     f02:	c49a                	sw	t1,72(sp)
     f04:	c6c2                	sw	a6,76(sp)
     f06:	c8d2                	sw	s4,80(sp)
     f08:	cac6                	sw	a7,84(sp)
     f0a:	ccb2                	sw	a2,88(sp)
     f0c:	04e11e23          	sh	a4,92(sp)
     f10:	04a10f23          	sb	a0,94(sp)
     f14:	05900793          	li	a5,89
     f18:	18f58c63          	beq	a1,a5,10b0 <main+0x440>
     f1c:	85a2                	mv	a1,s0
     f1e:	8526                	mv	a0,s1
     f20:	0bd000ef          	jal	ra,17dc <strcmp>
     f24:	65cd2683          	lw	a3,1628(s10)
     f28:	439d                	li	t2,7
     f2a:	45a1                	li	a1,8
     f2c:	00168293          	addi	t0,a3,1
     f30:	0ebaac23          	sw	a1,248(s5)
     f34:	66bd2023          	sw	a1,1632(s10)
     f38:	66bd2223          	sw	a1,1636(s10)
     f3c:	645d2e23          	sw	t0,1628(s10)
     f40:	607b2023          	sw	t2,1536(s6)
     f44:	087aa223          	sw	t2,132(s5)
     f48:	087aa023          	sw	t2,128(s5)
     f4c:	00092a03          	lw	s4,0(s2)
     f50:	00492703          	lw	a4,4(s2)
     f54:	00892f83          	lw	t6,8(s2)
     f58:	01092f03          	lw	t5,16(s2)
     f5c:	01492e83          	lw	t4,20(s2)
     f60:	01892e03          	lw	t3,24(s2)
     f64:	01c92303          	lw	t1,28(s2)
     f68:	02092883          	lw	a7,32(s2)
     f6c:	02492803          	lw	a6,36(s2)
     f70:	02892783          	lw	a5,40(s2)
     f74:	02c92603          	lw	a2,44(s2)
     f78:	4695                	li	a3,5
     f7a:	00152513          	slti	a0,a0,1
     f7e:	00ea2223          	sw	a4,4(s4)
     f82:	58abac23          	sw	a0,1432(s7) # 3598 <Bool_Glob>
     f86:	58d9a823          	sw	a3,1424(s3)
     f8a:	014a2023          	sw	s4,0(s4)
     f8e:	01fa2423          	sw	t6,8(s4)
     f92:	01ea2823          	sw	t5,16(s4)
     f96:	01da2a23          	sw	t4,20(s4)
     f9a:	01ca2c23          	sw	t3,24(s4)
     f9e:	006a2e23          	sw	t1,28(s4)
     fa2:	031a2023          	sw	a7,32(s4)
     fa6:	030a2223          	sw	a6,36(s4)
     faa:	02fa2423          	sw	a5,40(s4)
     fae:	02ca2623          	sw	a2,44(s4)
     fb2:	00092383          	lw	t2,0(s2)
     fb6:	42c5                	li	t0,17
     fb8:	00da2623          	sw	a3,12(s4)
     fbc:	007a2023          	sw	t2,0(s4)
     fc0:	00092583          	lw	a1,0(s2)
     fc4:	00ba2023          	sw	a1,0(s4)
     fc8:	00592623          	sw	t0,12(s2)
     fcc:	004a2703          	lw	a4,4(s4)
     fd0:	e40716e3          	bnez	a4,e1c <main+0x1ac>
     fd4:	00892383          	lw	t2,8(s2)
     fd8:	4599                	li	a1,6
     fda:	00ba2623          	sw	a1,12(s4)
     fde:	4289                	li	t0,2
     fe0:	0c538963          	beq	t2,t0,10b2 <main+0x442>
     fe4:	40038663          	beqz	t2,13f0 <main+0x780>
     fe8:	4711                	li	a4,4
     fea:	40e38663          	beq	t2,a4,13f6 <main+0x786>
     fee:	408d                	li	ra,3
     ff0:	001a2423          	sw	ra,8(s4)
     ff4:	00092f03          	lw	t5,0(s2)
     ff8:	4ec9                	li	t4,18
     ffa:	01da2623          	sw	t4,12(s4)
     ffe:	01ea2023          	sw	t5,0(s4)
    1002:	04100513          	li	a0,65
    1006:	3991                	jal	c5a <Func_1.constprop.1>
    1008:	4a05                	li	s4,1
    100a:	428d                	li	t0,3
    100c:	e94511e3          	bne	a0,s4,e8e <main+0x21e>
    1010:	00003a37          	lui	s4,0x3
    1014:	f80a0e13          	addi	t3,s4,-128 # 2f80 <__clz_tab+0x6c4>
    1018:	010e2503          	lw	a0,16(t3)
    101c:	014e2383          	lw	t2,20(t3)
    1020:	004e2303          	lw	t1,4(t3)
    1024:	008e2883          	lw	a7,8(t3)
    1028:	00ce2803          	lw	a6,12(t3)
    102c:	018e2603          	lw	a2,24(t3)
    1030:	01ce5683          	lhu	a3,28(t3)
    1034:	01ee4783          	lbu	a5,30(t3)
    1038:	55e2                	lw	a1,56(sp)
    103a:	c8aa                	sw	a0,80(sp)
    103c:	82e2                	mv	t0,s8
    103e:	04200513          	li	a0,66
    1042:	ca9e                	sw	t2,84(sp)
    1044:	c0ae                	sw	a1,64(sp)
    1046:	c29a                	sw	t1,68(sp)
    1048:	c4c6                	sw	a7,72(sp)
    104a:	c6c2                	sw	a6,76(sp)
    104c:	ccb2                	sw	a2,88(sp)
    104e:	04d11e23          	sh	a3,92(sp)
    1052:	04f10f23          	sb	a5,94(sp)
    1056:	5989a823          	sw	s8,1424(s3)
    105a:	c616                	sw	t0,12(sp)
    105c:	4a01                	li	s4,0
    105e:	3ef5                	jal	c5a <Func_1.constprop.1>
    1060:	43b2                	lw	t2,12(sp)
    1062:	e2aa1de3          	bne	s4,a0,e9c <main+0x22c>
    1066:	00003737          	lui	a4,0x3
    106a:	f8070093          	addi	ra,a4,-128 # 2f80 <__clz_tab+0x6c4>
    106e:	0100aa03          	lw	s4,16(ra)
    1072:	0040af83          	lw	t6,4(ra)
    1076:	0080af03          	lw	t5,8(ra)
    107a:	00c0ae83          	lw	t4,12(ra)
    107e:	0140ae03          	lw	t3,20(ra)
    1082:	0180a303          	lw	t1,24(ra)
    1086:	01c0d883          	lhu	a7,28(ra)
    108a:	01e0c803          	lbu	a6,30(ra)
    108e:	5572                	lw	a0,60(sp)
    1090:	c8d2                	sw	s4,80(sp)
    1092:	c2fe                	sw	t6,68(sp)
    1094:	c0aa                	sw	a0,64(sp)
    1096:	c4fa                	sw	t5,72(sp)
    1098:	c6f6                	sw	t4,76(sp)
    109a:	caf2                	sw	t3,84(sp)
    109c:	cc9a                	sw	t1,88(sp)
    109e:	05111e23          	sh	a7,92(sp)
    10a2:	05010f23          	sb	a6,94(sp)
    10a6:	83e2                	mv	t2,s8
    10a8:	5989a823          	sw	s8,1424(s3)
    10ac:	4a01                	li	s4,0
    10ae:	b3fd                	j	e9c <main+0x22c>
    10b0:	a001                	j	10b0 <main+0x440>
    10b2:	4f85                	li	t6,1
    10b4:	01fa2423          	sw	t6,8(s4)
    10b8:	bf35                	j	ff4 <main+0x384>
    10ba:	ff968d93          	addi	s11,a3,-7
    10be:	003d9913          	slli	s2,s11,0x3
    10c2:	41b90b33          	sub	s6,s2,s11
    10c6:	405b0333          	sub	t1,s6,t0
    10ca:	cc1a                	sw	t1,24(sp)
    10cc:	c67a                	sw	t5,12(sp)
    10ce:	c00028f3          	rdcycle	a7
    10d2:	00003537          	lui	a0,0x3
    10d6:	680d                	lui	a6,0x3
    10d8:	a7450513          	addi	a0,a0,-1420 # 2a74 <__clz_tab+0x1b8>
    10dc:	59182623          	sw	a7,1420(a6) # 358c <End_Time>
    10e0:	00003c37          	lui	s8,0x3
    10e4:	3e81                	jal	c34 <sc_printf>
    10e6:	bc4c0513          	addi	a0,s8,-1084 # 2bc4 <__clz_tab+0x308>
    10ea:	36a9                	jal	c34 <sc_printf>
    10ec:	000033b7          	lui	t2,0x3
    10f0:	a8438513          	addi	a0,t2,-1404 # 2a84 <__clz_tab+0x1c8>
    10f4:	3681                	jal	c34 <sc_printf>
    10f6:	bc4c0513          	addi	a0,s8,-1084
    10fa:	3e2d                	jal	c34 <sc_printf>
    10fc:	5909a583          	lw	a1,1424(s3)
    1100:	000039b7          	lui	s3,0x3
    1104:	abc98513          	addi	a0,s3,-1348 # 2abc <__clz_tab+0x200>
    1108:	3635                	jal	c34 <sc_printf>
    110a:	000039b7          	lui	s3,0x3
    110e:	4595                	li	a1,5
    1110:	ad898513          	addi	a0,s3,-1320 # 2ad8 <__clz_tab+0x21c>
    1114:	3605                	jal	c34 <sc_printf>
    1116:	598ba583          	lw	a1,1432(s7)
    111a:	00003bb7          	lui	s7,0x3
    111e:	af4b8513          	addi	a0,s7,-1292 # 2af4 <__clz_tab+0x238>
    1122:	3e09                	jal	c34 <sc_printf>
    1124:	4585                	li	a1,1
    1126:	ad898513          	addi	a0,s3,-1320
    112a:	3629                	jal	c34 <sc_printf>
    112c:	5accc583          	lbu	a1,1452(s9)
    1130:	00003cb7          	lui	s9,0x3
    1134:	b10c8513          	addi	a0,s9,-1264 # 2b10 <__clz_tab+0x254>
    1138:	3cf5                	jal	c34 <sc_printf>
    113a:	00003db7          	lui	s11,0x3
    113e:	04100593          	li	a1,65
    1142:	b2cd8513          	addi	a0,s11,-1236 # 2b2c <__clz_tab+0x270>
    1146:	34fd                	jal	c34 <sc_printf>
    1148:	4652                	lw	a2,20(sp)
    114a:	000036b7          	lui	a3,0x3
    114e:	b4868513          	addi	a0,a3,-1208 # 2b48 <__clz_tab+0x28c>
    1152:	59464583          	lbu	a1,1428(a2)
    1156:	690d                	lui	s2,0x3
    1158:	00003cb7          	lui	s9,0x3
    115c:	3ce1                	jal	c34 <sc_printf>
    115e:	04200593          	li	a1,66
    1162:	b2cd8513          	addi	a0,s11,-1236
    1166:	34f9                	jal	c34 <sc_printf>
    1168:	080aa583          	lw	a1,128(s5)
    116c:	00003ab7          	lui	s5,0x3
    1170:	b64a8513          	addi	a0,s5,-1180 # 2b64 <__clz_tab+0x2a8>
    1174:	34c1                	jal	c34 <sc_printf>
    1176:	459d                	li	a1,7
    1178:	ad898513          	addi	a0,s3,-1320
    117c:	3c65                	jal	c34 <sc_printf>
    117e:	65cd2583          	lw	a1,1628(s10)
    1182:	00003d37          	lui	s10,0x3
    1186:	b80d0513          	addi	a0,s10,-1152 # 2b80 <__clz_tab+0x2c4>
    118a:	346d                	jal	c34 <sc_printf>
    118c:	000037b7          	lui	a5,0x3
    1190:	b9c78513          	addi	a0,a5,-1124 # 2b9c <__clz_tab+0x2e0>
    1194:	3445                	jal	c34 <sc_printf>
    1196:	000032b7          	lui	t0,0x3
    119a:	bc828513          	addi	a0,t0,-1080 # 2bc8 <__clz_tab+0x30c>
    119e:	3c59                	jal	c34 <sc_printf>
    11a0:	5a492703          	lw	a4,1444(s2) # 35a4 <Ptr_Glob>
    11a4:	000035b7          	lui	a1,0x3
    11a8:	bd458513          	addi	a0,a1,-1068 # 2bd4 <__clz_tab+0x318>
    11ac:	430c                	lw	a1,0(a4)
    11ae:	00003ab7          	lui	s5,0x3
    11b2:	00003c37          	lui	s8,0x3
    11b6:	3cbd                	jal	c34 <sc_printf>
    11b8:	00003fb7          	lui	t6,0x3
    11bc:	bf0f8513          	addi	a0,t6,-1040 # 2bf0 <__clz_tab+0x334>
    11c0:	3c95                	jal	c34 <sc_printf>
    11c2:	5a492f03          	lw	t5,1444(s2)
    11c6:	c24a8513          	addi	a0,s5,-988 # 2c24 <__clz_tab+0x368>
    11ca:	00003bb7          	lui	s7,0x3
    11ce:	004f2583          	lw	a1,4(t5)
    11d2:	00003b37          	lui	s6,0x3
    11d6:	6d0d                	lui	s10,0x3
    11d8:	3cb1                	jal	c34 <sc_printf>
    11da:	4581                	li	a1,0
    11dc:	ad898513          	addi	a0,s3,-1320
    11e0:	3c91                	jal	c34 <sc_printf>
    11e2:	5a492e83          	lw	t4,1444(s2)
    11e6:	c40c8513          	addi	a0,s9,-960 # 2c40 <__clz_tab+0x384>
    11ea:	6d8d                	lui	s11,0x3
    11ec:	008ea583          	lw	a1,8(t4)
    11f0:	3491                	jal	c34 <sc_printf>
    11f2:	4589                	li	a1,2
    11f4:	ad898513          	addi	a0,s3,-1320
    11f8:	3c35                	jal	c34 <sc_printf>
    11fa:	5a492e03          	lw	t3,1444(s2)
    11fe:	c5cc0513          	addi	a0,s8,-932 # 2c5c <__clz_tab+0x3a0>
    1202:	00ce2583          	lw	a1,12(t3)
    1206:	343d                	jal	c34 <sc_printf>
    1208:	45c5                	li	a1,17
    120a:	ad898513          	addi	a0,s3,-1320
    120e:	341d                	jal	c34 <sc_printf>
    1210:	5a492303          	lw	t1,1444(s2)
    1214:	c78b8513          	addi	a0,s7,-904 # 2c78 <__clz_tab+0x3bc>
    1218:	00003937          	lui	s2,0x3
    121c:	01030593          	addi	a1,t1,16
    1220:	3c11                	jal	c34 <sc_printf>
    1222:	c94b0513          	addi	a0,s6,-876 # 2c94 <__clz_tab+0x3d8>
    1226:	3439                	jal	c34 <sc_printf>
    1228:	000038b7          	lui	a7,0x3
    122c:	ccc88513          	addi	a0,a7,-820 # 2ccc <__clz_tab+0x410>
    1230:	3411                	jal	c34 <sc_printf>
    1232:	5a8d2803          	lw	a6,1448(s10) # 35a8 <Next_Ptr_Glob>
    1236:	00003537          	lui	a0,0x3
    123a:	bd450513          	addi	a0,a0,-1068 # 2bd4 <__clz_tab+0x318>
    123e:	00082583          	lw	a1,0(a6)
    1242:	3acd                	jal	c34 <sc_printf>
    1244:	000033b7          	lui	t2,0x3
    1248:	ce038513          	addi	a0,t2,-800 # 2ce0 <__clz_tab+0x424>
    124c:	32e5                	jal	c34 <sc_printf>
    124e:	5a8d2603          	lw	a2,1448(s10)
    1252:	c24a8513          	addi	a0,s5,-988
    1256:	00003ab7          	lui	s5,0x3
    125a:	424c                	lw	a1,4(a2)
    125c:	9d9ff0ef          	jal	ra,c34 <sc_printf>
    1260:	4581                	li	a1,0
    1262:	ad898513          	addi	a0,s3,-1320
    1266:	9cfff0ef          	jal	ra,c34 <sc_printf>
    126a:	5a8d2683          	lw	a3,1448(s10)
    126e:	c40c8513          	addi	a0,s9,-960
    1272:	00003cb7          	lui	s9,0x3
    1276:	468c                	lw	a1,8(a3)
    1278:	9bdff0ef          	jal	ra,c34 <sc_printf>
    127c:	4585                	li	a1,1
    127e:	ad898513          	addi	a0,s3,-1320
    1282:	9b3ff0ef          	jal	ra,c34 <sc_printf>
    1286:	5a8d2783          	lw	a5,1448(s10)
    128a:	c5cc0513          	addi	a0,s8,-932
    128e:	00003c37          	lui	s8,0x3
    1292:	47cc                	lw	a1,12(a5)
    1294:	9a1ff0ef          	jal	ra,c34 <sc_printf>
    1298:	45c9                	li	a1,18
    129a:	ad898513          	addi	a0,s3,-1320
    129e:	997ff0ef          	jal	ra,c34 <sc_printf>
    12a2:	5a8d2283          	lw	t0,1448(s10)
    12a6:	c78b8513          	addi	a0,s7,-904
    12aa:	6b8d                	lui	s7,0x3
    12ac:	01028593          	addi	a1,t0,16
    12b0:	985ff0ef          	jal	ra,c34 <sc_printf>
    12b4:	c94b0513          	addi	a0,s6,-876
    12b8:	97dff0ef          	jal	ra,c34 <sc_printf>
    12bc:	45b2                	lw	a1,12(sp)
    12be:	d2090513          	addi	a0,s2,-736 # 2d20 <__clz_tab+0x464>
    12c2:	973ff0ef          	jal	ra,c34 <sc_printf>
    12c6:	4595                	li	a1,5
    12c8:	ad898513          	addi	a0,s3,-1320
    12cc:	969ff0ef          	jal	ra,c34 <sc_printf>
    12d0:	45e2                	lw	a1,24(sp)
    12d2:	00003737          	lui	a4,0x3
    12d6:	d3c70513          	addi	a0,a4,-708 # 2d3c <__clz_tab+0x480>
    12da:	95bff0ef          	jal	ra,c34 <sc_printf>
    12de:	45b5                	li	a1,13
    12e0:	ad898513          	addi	a0,s3,-1320
    12e4:	951ff0ef          	jal	ra,c34 <sc_printf>
    12e8:	459d                	li	a1,7
    12ea:	d58a8513          	addi	a0,s5,-680 # 2d58 <__clz_tab+0x49c>
    12ee:	947ff0ef          	jal	ra,c34 <sc_printf>
    12f2:	459d                	li	a1,7
    12f4:	ad898513          	addi	a0,s3,-1320
    12f8:	93dff0ef          	jal	ra,c34 <sc_printf>
    12fc:	85d2                	mv	a1,s4
    12fe:	00003a37          	lui	s4,0x3
    1302:	d74a0513          	addi	a0,s4,-652 # 2d74 <__clz_tab+0x4b8>
    1306:	92fff0ef          	jal	ra,c34 <sc_printf>
    130a:	4585                	li	a1,1
    130c:	ad898513          	addi	a0,s3,-1320
    1310:	925ff0ef          	jal	ra,c34 <sc_printf>
    1314:	85a6                	mv	a1,s1
    1316:	000034b7          	lui	s1,0x3
    131a:	d9048513          	addi	a0,s1,-624 # 2d90 <__clz_tab+0x4d4>
    131e:	917ff0ef          	jal	ra,c34 <sc_printf>
    1322:	000039b7          	lui	s3,0x3
    1326:	dac98513          	addi	a0,s3,-596 # 2dac <__clz_tab+0x4f0>
    132a:	90bff0ef          	jal	ra,c34 <sc_printf>
    132e:	85a2                	mv	a1,s0
    1330:	00003437          	lui	s0,0x3
    1334:	de440513          	addi	a0,s0,-540 # 2de4 <__clz_tab+0x528>
    1338:	8fdff0ef          	jal	ra,c34 <sc_printf>
    133c:	e00c8513          	addi	a0,s9,-512 # 2e00 <__clz_tab+0x544>
    1340:	8f5ff0ef          	jal	ra,c34 <sc_printf>
    1344:	bc4c0513          	addi	a0,s8,-1084 # 2bc4 <__clz_tab+0x308>
    1348:	8edff0ef          	jal	ra,c34 <sc_printf>
    134c:	6f8d                	lui	t6,0x3
    134e:	58cfaf03          	lw	t5,1420(t6) # 358c <End_Time>
    1352:	5a0bab03          	lw	s6,1440(s7) # 35a0 <Begin_Time>
    1356:	4e85                	li	t4,1
    1358:	416f0e33          	sub	t3,t5,s6
    135c:	59cda423          	sw	t3,1416(s11) # 3588 <User_Time>
    1360:	09cede63          	bge	t4,t3,13fc <main+0x78c>
    1364:	4342                	lw	t1,16(sp)
    1366:	000f40b7          	lui	ra,0xf4
    136a:	24008613          	addi	a2,ra,576 # f4240 <__C_STACK_TOP__+0xe4240>
    136e:	02c308b3          	mul	a7,t1,a2
    1372:	00003837          	lui	a6,0x3
    1376:	859a                	mv	a1,t1
    1378:	e9080513          	addi	a0,a6,-368 # 2e90 <__clz_tab+0x5d4>
    137c:	6d0d                	lui	s10,0x3
    137e:	6a8d                	lui	s5,0x3
    1380:	03c8c6b3          	div	a3,a7,t3
    1384:	026e43b3          	div	t2,t3,t1
    1388:	58daa023          	sw	a3,1408(s5) # 3580 <__BSS_START__>
    138c:	587d2223          	sw	t2,1412(s10) # 3584 <Microseconds>
    1390:	8a5ff0ef          	jal	ra,c34 <sc_printf>
    1394:	588da683          	lw	a3,1416(s11)
    1398:	650d                	lui	a0,0x3
    139a:	6d8d                	lui	s11,0x3
    139c:	5a052583          	lw	a1,1440(a0) # 35a0 <Begin_Time>
    13a0:	58cda603          	lw	a2,1420(s11) # 358c <End_Time>
    13a4:	000037b7          	lui	a5,0x3
    13a8:	eb078513          	addi	a0,a5,-336 # 2eb0 <__clz_tab+0x5f4>
    13ac:	889ff0ef          	jal	ra,c34 <sc_printf>
    13b0:	584d2583          	lw	a1,1412(s10)
    13b4:	00003637          	lui	a2,0x3
    13b8:	ed860513          	addi	a0,a2,-296 # 2ed8 <__clz_tab+0x61c>
    13bc:	879ff0ef          	jal	ra,c34 <sc_printf>
    13c0:	580aa583          	lw	a1,1408(s5)
    13c4:	000032b7          	lui	t0,0x3
    13c8:	f0c28513          	addi	a0,t0,-244 # 2f0c <__clz_tab+0x650>
    13cc:	869ff0ef          	jal	ra,c34 <sc_printf>
    13d0:	50fa                	lw	ra,188(sp)
    13d2:	546a                	lw	s0,184(sp)
    13d4:	54da                	lw	s1,180(sp)
    13d6:	594a                	lw	s2,176(sp)
    13d8:	59ba                	lw	s3,172(sp)
    13da:	5a2a                	lw	s4,168(sp)
    13dc:	5a9a                	lw	s5,164(sp)
    13de:	5b0a                	lw	s6,160(sp)
    13e0:	4bfa                	lw	s7,156(sp)
    13e2:	4c6a                	lw	s8,152(sp)
    13e4:	4cda                	lw	s9,148(sp)
    13e6:	4d4a                	lw	s10,144(sp)
    13e8:	4dba                	lw	s11,140(sp)
    13ea:	4501                	li	a0,0
    13ec:	6129                	addi	sp,sp,192
    13ee:	8082                	ret
    13f0:	000a2423          	sw	zero,8(s4)
    13f4:	b101                	j	ff4 <main+0x384>
    13f6:	005a2423          	sw	t0,8(s4)
    13fa:	beed                	j	ff4 <main+0x384>
    13fc:	000035b7          	lui	a1,0x3
    1400:	e3858513          	addi	a0,a1,-456 # 2e38 <__clz_tab+0x57c>
    1404:	831ff0ef          	jal	ra,c34 <sc_printf>
    1408:	00003937          	lui	s2,0x3
    140c:	e7090513          	addi	a0,s2,-400 # 2e70 <__clz_tab+0x5b4>
    1410:	825ff0ef          	jal	ra,c34 <sc_printf>
    1414:	bc4c0513          	addi	a0,s8,-1084
    1418:	81dff0ef          	jal	ra,c34 <sc_printf>
    141c:	bf55                	j	13d0 <main+0x760>
    141e:	680d                	lui	a6,0x3
    1420:	6c8d                	lui	s9,0x3
    1422:	ca42                	sw	a6,20(sp)
    1424:	0080                	addi	s0,sp,64
    1426:	1084                	addi	s1,sp,96
    1428:	6b8d                	lui	s7,0x3
    142a:	698d                	lui	s3,0x3
    142c:	b145                	j	10cc <main+0x45c>
	...

00001430 <atoi>:
    1430:	00a00613          	li	a2,10
    1434:	00000593          	li	a1,0
    1438:	22c0006f          	j	1664 <strtol>

0000143c <_atoi_r>:
    143c:	00a00693          	li	a3,10
    1440:	00000613          	li	a2,0
    1444:	1e80006f          	j	162c <_strtol_r>

00001448 <strnlen>:
    1448:	00b505b3          	add	a1,a0,a1
    144c:	00050793          	mv	a5,a0
    1450:	00b78663          	beq	a5,a1,145c <strnlen+0x14>
    1454:	0007c703          	lbu	a4,0(a5)
    1458:	00071663          	bnez	a4,1464 <strnlen+0x1c>
    145c:	40a78533          	sub	a0,a5,a0
    1460:	00008067          	ret
    1464:	00178793          	addi	a5,a5,1
    1468:	fe9ff06f          	j	1450 <strnlen+0x8>

0000146c <_strtol_l.isra.0>:
    146c:	fd010113          	addi	sp,sp,-48
    1470:	03212023          	sw	s2,32(sp)
    1474:	01312e23          	sw	s3,28(sp)
    1478:	02112623          	sw	ra,44(sp)
    147c:	02812423          	sw	s0,40(sp)
    1480:	02912223          	sw	s1,36(sp)
    1484:	00050993          	mv	s3,a0
    1488:	00058913          	mv	s2,a1
    148c:	00190493          	addi	s1,s2,1
    1490:	fff4c403          	lbu	s0,-1(s1)
    1494:	00070513          	mv	a0,a4
    1498:	00d12623          	sw	a3,12(sp)
    149c:	00c12423          	sw	a2,8(sp)
    14a0:	00b12223          	sw	a1,4(sp)
    14a4:	00e12023          	sw	a4,0(sp)
    14a8:	27c000ef          	jal	ra,1724 <__locale_ctype_ptr_l>
    14ac:	00850533          	add	a0,a0,s0
    14b0:	00154783          	lbu	a5,1(a0)
    14b4:	00012703          	lw	a4,0(sp)
    14b8:	00412583          	lw	a1,4(sp)
    14bc:	0087f793          	andi	a5,a5,8
    14c0:	00812603          	lw	a2,8(sp)
    14c4:	00c12683          	lw	a3,12(sp)
    14c8:	0a079663          	bnez	a5,1574 <_strtol_l.isra.0+0x108>
    14cc:	02d00793          	li	a5,45
    14d0:	0af41663          	bne	s0,a5,157c <_strtol_l.isra.0+0x110>
    14d4:	0004c783          	lbu	a5,0(s1)
    14d8:	00100313          	li	t1,1
    14dc:	00290493          	addi	s1,s2,2
    14e0:	12068e63          	beqz	a3,161c <_strtol_l.isra.0+0x1b0>
    14e4:	01000713          	li	a4,16
    14e8:	02e69463          	bne	a3,a4,1510 <_strtol_l.isra.0+0xa4>
    14ec:	03000713          	li	a4,48
    14f0:	02e79063          	bne	a5,a4,1510 <_strtol_l.isra.0+0xa4>
    14f4:	0004c783          	lbu	a5,0(s1)
    14f8:	05800713          	li	a4,88
    14fc:	0df7f793          	andi	a5,a5,223
    1500:	10e79663          	bne	a5,a4,160c <_strtol_l.isra.0+0x1a0>
    1504:	0014c783          	lbu	a5,1(s1)
    1508:	01000693          	li	a3,16
    150c:	00248493          	addi	s1,s1,2
    1510:	800008b7          	lui	a7,0x80000
    1514:	00031463          	bnez	t1,151c <_strtol_l.isra.0+0xb0>
    1518:	fff8c893          	not	a7,a7
    151c:	02d8ff33          	remu	t5,a7,a3
    1520:	00000813          	li	a6,0
    1524:	00000513          	li	a0,0
    1528:	00900f93          	li	t6,9
    152c:	01900e93          	li	t4,25
    1530:	fff00293          	li	t0,-1
    1534:	02d8de33          	divu	t3,a7,a3
    1538:	fd078713          	addi	a4,a5,-48
    153c:	06efe063          	bltu	t6,a4,159c <_strtol_l.isra.0+0x130>
    1540:	00070793          	mv	a5,a4
    1544:	06d7dc63          	bge	a5,a3,15bc <_strtol_l.isra.0+0x150>
    1548:	02580063          	beq	a6,t0,1568 <_strtol_l.isra.0+0xfc>
    154c:	fff00813          	li	a6,-1
    1550:	00ae6c63          	bltu	t3,a0,1568 <_strtol_l.isra.0+0xfc>
    1554:	00ae1463          	bne	t3,a0,155c <_strtol_l.isra.0+0xf0>
    1558:	00ff4863          	blt	t5,a5,1568 <_strtol_l.isra.0+0xfc>
    155c:	00100813          	li	a6,1
    1560:	02a68533          	mul	a0,a3,a0
    1564:	00a78533          	add	a0,a5,a0
    1568:	00148493          	addi	s1,s1,1
    156c:	fff4c783          	lbu	a5,-1(s1)
    1570:	fc9ff06f          	j	1538 <_strtol_l.isra.0+0xcc>
    1574:	00048913          	mv	s2,s1
    1578:	f15ff06f          	j	148c <_strtol_l.isra.0+0x20>
    157c:	02b00793          	li	a5,43
    1580:	00f40863          	beq	s0,a5,1590 <_strtol_l.isra.0+0x124>
    1584:	00040793          	mv	a5,s0
    1588:	00000313          	li	t1,0
    158c:	f55ff06f          	j	14e0 <_strtol_l.isra.0+0x74>
    1590:	0004c783          	lbu	a5,0(s1)
    1594:	00290493          	addi	s1,s2,2
    1598:	ff1ff06f          	j	1588 <_strtol_l.isra.0+0x11c>
    159c:	fbf78713          	addi	a4,a5,-65
    15a0:	00eee663          	bltu	t4,a4,15ac <_strtol_l.isra.0+0x140>
    15a4:	fc978793          	addi	a5,a5,-55
    15a8:	f9dff06f          	j	1544 <_strtol_l.isra.0+0xd8>
    15ac:	f9f78713          	addi	a4,a5,-97
    15b0:	00eee663          	bltu	t4,a4,15bc <_strtol_l.isra.0+0x150>
    15b4:	fa978793          	addi	a5,a5,-87
    15b8:	f8dff06f          	j	1544 <_strtol_l.isra.0+0xd8>
    15bc:	fff00793          	li	a5,-1
    15c0:	02f81863          	bne	a6,a5,15f0 <_strtol_l.isra.0+0x184>
    15c4:	02200793          	li	a5,34
    15c8:	00f9a023          	sw	a5,0(s3) # 3000 <impure_data+0x50>
    15cc:	00088513          	mv	a0,a7
    15d0:	02061863          	bnez	a2,1600 <_strtol_l.isra.0+0x194>
    15d4:	02c12083          	lw	ra,44(sp)
    15d8:	02812403          	lw	s0,40(sp)
    15dc:	02412483          	lw	s1,36(sp)
    15e0:	02012903          	lw	s2,32(sp)
    15e4:	01c12983          	lw	s3,28(sp)
    15e8:	03010113          	addi	sp,sp,48
    15ec:	00008067          	ret
    15f0:	00030463          	beqz	t1,15f8 <_strtol_l.isra.0+0x18c>
    15f4:	40a00533          	neg	a0,a0
    15f8:	fc060ee3          	beqz	a2,15d4 <_strtol_l.isra.0+0x168>
    15fc:	00080463          	beqz	a6,1604 <_strtol_l.isra.0+0x198>
    1600:	fff48593          	addi	a1,s1,-1
    1604:	00b62023          	sw	a1,0(a2)
    1608:	fcdff06f          	j	15d4 <_strtol_l.isra.0+0x168>
    160c:	03000793          	li	a5,48
    1610:	f00690e3          	bnez	a3,1510 <_strtol_l.isra.0+0xa4>
    1614:	00800693          	li	a3,8
    1618:	ef9ff06f          	j	1510 <_strtol_l.isra.0+0xa4>
    161c:	03000713          	li	a4,48
    1620:	ece78ae3          	beq	a5,a4,14f4 <_strtol_l.isra.0+0x88>
    1624:	00a00693          	li	a3,10
    1628:	ee9ff06f          	j	1510 <_strtol_l.isra.0+0xa4>

0000162c <_strtol_r>:
    162c:	000037b7          	lui	a5,0x3
    1630:	5647a783          	lw	a5,1380(a5) # 3564 <_impure_ptr>
    1634:	0347a703          	lw	a4,52(a5)
    1638:	00071663          	bnez	a4,1644 <_strtol_r+0x18>
    163c:	00003737          	lui	a4,0x3
    1640:	3d870713          	addi	a4,a4,984 # 33d8 <__global_locale>
    1644:	e29ff06f          	j	146c <_strtol_l.isra.0>

00001648 <strtol_l>:
    1648:	000037b7          	lui	a5,0x3
    164c:	00068713          	mv	a4,a3
    1650:	00060693          	mv	a3,a2
    1654:	00058613          	mv	a2,a1
    1658:	00050593          	mv	a1,a0
    165c:	5647a503          	lw	a0,1380(a5) # 3564 <_impure_ptr>
    1660:	e0dff06f          	j	146c <_strtol_l.isra.0>

00001664 <strtol>:
    1664:	000037b7          	lui	a5,0x3
    1668:	5647a783          	lw	a5,1380(a5) # 3564 <_impure_ptr>
    166c:	00060693          	mv	a3,a2
    1670:	0347a703          	lw	a4,52(a5)
    1674:	00071663          	bnez	a4,1680 <strtol+0x1c>
    1678:	00003737          	lui	a4,0x3
    167c:	3d870713          	addi	a4,a4,984 # 33d8 <__global_locale>
    1680:	00058613          	mv	a2,a1
    1684:	00050593          	mv	a1,a0
    1688:	00078513          	mv	a0,a5
    168c:	de1ff06f          	j	146c <_strtol_l.isra.0>

00001690 <_setlocale_r>:
    1690:	ff010113          	addi	sp,sp,-16
    1694:	00912223          	sw	s1,4(sp)
    1698:	00112623          	sw	ra,12(sp)
    169c:	00812423          	sw	s0,8(sp)
    16a0:	000034b7          	lui	s1,0x3
    16a4:	00061e63          	bnez	a2,16c0 <_setlocale_r+0x30>
    16a8:	fa048513          	addi	a0,s1,-96 # 2fa0 <__clz_tab+0x6e4>
    16ac:	00c12083          	lw	ra,12(sp)
    16b0:	00812403          	lw	s0,8(sp)
    16b4:	00412483          	lw	s1,4(sp)
    16b8:	01010113          	addi	sp,sp,16
    16bc:	00008067          	ret
    16c0:	000035b7          	lui	a1,0x3
    16c4:	fa458593          	addi	a1,a1,-92 # 2fa4 <__clz_tab+0x6e8>
    16c8:	00060513          	mv	a0,a2
    16cc:	00060413          	mv	s0,a2
    16d0:	10c000ef          	jal	ra,17dc <strcmp>
    16d4:	fc050ae3          	beqz	a0,16a8 <_setlocale_r+0x18>
    16d8:	fa048593          	addi	a1,s1,-96
    16dc:	00040513          	mv	a0,s0
    16e0:	0fc000ef          	jal	ra,17dc <strcmp>
    16e4:	fc0502e3          	beqz	a0,16a8 <_setlocale_r+0x18>
    16e8:	000035b7          	lui	a1,0x3
    16ec:	c2058593          	addi	a1,a1,-992 # 2c20 <__clz_tab+0x364>
    16f0:	00040513          	mv	a0,s0
    16f4:	0e8000ef          	jal	ra,17dc <strcmp>
    16f8:	fa0508e3          	beqz	a0,16a8 <_setlocale_r+0x18>
    16fc:	00000513          	li	a0,0
    1700:	fadff06f          	j	16ac <_setlocale_r+0x1c>

00001704 <__locale_mb_cur_max>:
    1704:	000037b7          	lui	a5,0x3
    1708:	5647a783          	lw	a5,1380(a5) # 3564 <_impure_ptr>
    170c:	0347a783          	lw	a5,52(a5)
    1710:	00079663          	bnez	a5,171c <__locale_mb_cur_max+0x18>
    1714:	000037b7          	lui	a5,0x3
    1718:	3d878793          	addi	a5,a5,984 # 33d8 <__global_locale>
    171c:	1287c503          	lbu	a0,296(a5)
    1720:	00008067          	ret

00001724 <__locale_ctype_ptr_l>:
    1724:	0ec52503          	lw	a0,236(a0)
    1728:	00008067          	ret

0000172c <__locale_ctype_ptr>:
    172c:	000037b7          	lui	a5,0x3
    1730:	5647a783          	lw	a5,1380(a5) # 3564 <_impure_ptr>
    1734:	0347a783          	lw	a5,52(a5)
    1738:	00079663          	bnez	a5,1744 <__locale_ctype_ptr+0x18>
    173c:	000037b7          	lui	a5,0x3
    1740:	3d878793          	addi	a5,a5,984 # 33d8 <__global_locale>
    1744:	0ec7a503          	lw	a0,236(a5)
    1748:	00008067          	ret

0000174c <setlocale>:
    174c:	000037b7          	lui	a5,0x3
    1750:	00058613          	mv	a2,a1
    1754:	00050593          	mv	a1,a0
    1758:	5647a503          	lw	a0,1380(a5) # 3564 <_impure_ptr>
    175c:	f35ff06f          	j	1690 <_setlocale_r>

00001760 <_mbtowc_r>:
    1760:	000037b7          	lui	a5,0x3
    1764:	5647a783          	lw	a5,1380(a5) # 3564 <_impure_ptr>
    1768:	0347a783          	lw	a5,52(a5)
    176c:	00079663          	bnez	a5,1778 <_mbtowc_r+0x18>
    1770:	000037b7          	lui	a5,0x3
    1774:	3d878793          	addi	a5,a5,984 # 33d8 <__global_locale>
    1778:	0e47a303          	lw	t1,228(a5)
    177c:	00030067          	jr	t1

00001780 <__ascii_mbtowc>:
    1780:	02059a63          	bnez	a1,17b4 <__ascii_mbtowc+0x34>
    1784:	ff010113          	addi	sp,sp,-16
    1788:	00c10593          	addi	a1,sp,12
    178c:	00000513          	li	a0,0
    1790:	00060e63          	beqz	a2,17ac <__ascii_mbtowc+0x2c>
    1794:	ffe00513          	li	a0,-2
    1798:	00068a63          	beqz	a3,17ac <__ascii_mbtowc+0x2c>
    179c:	00064783          	lbu	a5,0(a2)
    17a0:	00f5a023          	sw	a5,0(a1)
    17a4:	00064503          	lbu	a0,0(a2)
    17a8:	00a03533          	snez	a0,a0
    17ac:	01010113          	addi	sp,sp,16
    17b0:	00008067          	ret
    17b4:	00000513          	li	a0,0
    17b8:	02060063          	beqz	a2,17d8 <__ascii_mbtowc+0x58>
    17bc:	ffe00513          	li	a0,-2
    17c0:	00068c63          	beqz	a3,17d8 <__ascii_mbtowc+0x58>
    17c4:	00064783          	lbu	a5,0(a2)
    17c8:	00f5a023          	sw	a5,0(a1)
    17cc:	00064503          	lbu	a0,0(a2)
    17d0:	00a03533          	snez	a0,a0
    17d4:	00008067          	ret
    17d8:	00008067          	ret

000017dc <strcmp>:
    17dc:	00b56733          	or	a4,a0,a1
    17e0:	fff00393          	li	t2,-1
    17e4:	00377713          	andi	a4,a4,3
    17e8:	10071063          	bnez	a4,18e8 <strcmp+0x10c>
    17ec:	7f7f87b7          	lui	a5,0x7f7f8
    17f0:	f7f78793          	addi	a5,a5,-129 # 7f7f7f7f <__C_STACK_TOP__+0x7f7e7f7f>
    17f4:	00052603          	lw	a2,0(a0)
    17f8:	0005a683          	lw	a3,0(a1)
    17fc:	00f672b3          	and	t0,a2,a5
    1800:	00f66333          	or	t1,a2,a5
    1804:	00f282b3          	add	t0,t0,a5
    1808:	0062e2b3          	or	t0,t0,t1
    180c:	10729263          	bne	t0,t2,1910 <strcmp+0x134>
    1810:	08d61663          	bne	a2,a3,189c <strcmp+0xc0>
    1814:	00452603          	lw	a2,4(a0)
    1818:	0045a683          	lw	a3,4(a1)
    181c:	00f672b3          	and	t0,a2,a5
    1820:	00f66333          	or	t1,a2,a5
    1824:	00f282b3          	add	t0,t0,a5
    1828:	0062e2b3          	or	t0,t0,t1
    182c:	0c729e63          	bne	t0,t2,1908 <strcmp+0x12c>
    1830:	06d61663          	bne	a2,a3,189c <strcmp+0xc0>
    1834:	00852603          	lw	a2,8(a0)
    1838:	0085a683          	lw	a3,8(a1)
    183c:	00f672b3          	and	t0,a2,a5
    1840:	00f66333          	or	t1,a2,a5
    1844:	00f282b3          	add	t0,t0,a5
    1848:	0062e2b3          	or	t0,t0,t1
    184c:	0c729863          	bne	t0,t2,191c <strcmp+0x140>
    1850:	04d61663          	bne	a2,a3,189c <strcmp+0xc0>
    1854:	00c52603          	lw	a2,12(a0)
    1858:	00c5a683          	lw	a3,12(a1)
    185c:	00f672b3          	and	t0,a2,a5
    1860:	00f66333          	or	t1,a2,a5
    1864:	00f282b3          	add	t0,t0,a5
    1868:	0062e2b3          	or	t0,t0,t1
    186c:	0c729263          	bne	t0,t2,1930 <strcmp+0x154>
    1870:	02d61663          	bne	a2,a3,189c <strcmp+0xc0>
    1874:	01052603          	lw	a2,16(a0)
    1878:	0105a683          	lw	a3,16(a1)
    187c:	00f672b3          	and	t0,a2,a5
    1880:	00f66333          	or	t1,a2,a5
    1884:	00f282b3          	add	t0,t0,a5
    1888:	0062e2b3          	or	t0,t0,t1
    188c:	0a729c63          	bne	t0,t2,1944 <strcmp+0x168>
    1890:	01450513          	addi	a0,a0,20
    1894:	01458593          	addi	a1,a1,20
    1898:	f4d60ee3          	beq	a2,a3,17f4 <strcmp+0x18>
    189c:	01061713          	slli	a4,a2,0x10
    18a0:	01069793          	slli	a5,a3,0x10
    18a4:	00f71e63          	bne	a4,a5,18c0 <strcmp+0xe4>
    18a8:	01065713          	srli	a4,a2,0x10
    18ac:	0106d793          	srli	a5,a3,0x10
    18b0:	40f70533          	sub	a0,a4,a5
    18b4:	0ff57593          	andi	a1,a0,255
    18b8:	02059063          	bnez	a1,18d8 <strcmp+0xfc>
    18bc:	00008067          	ret
    18c0:	01075713          	srli	a4,a4,0x10
    18c4:	0107d793          	srli	a5,a5,0x10
    18c8:	40f70533          	sub	a0,a4,a5
    18cc:	0ff57593          	andi	a1,a0,255
    18d0:	00059463          	bnez	a1,18d8 <strcmp+0xfc>
    18d4:	00008067          	ret
    18d8:	0ff77713          	andi	a4,a4,255
    18dc:	0ff7f793          	andi	a5,a5,255
    18e0:	40f70533          	sub	a0,a4,a5
    18e4:	00008067          	ret
    18e8:	00054603          	lbu	a2,0(a0)
    18ec:	0005c683          	lbu	a3,0(a1)
    18f0:	00150513          	addi	a0,a0,1
    18f4:	00158593          	addi	a1,a1,1
    18f8:	00d61463          	bne	a2,a3,1900 <strcmp+0x124>
    18fc:	fe0616e3          	bnez	a2,18e8 <strcmp+0x10c>
    1900:	40d60533          	sub	a0,a2,a3
    1904:	00008067          	ret
    1908:	00450513          	addi	a0,a0,4
    190c:	00458593          	addi	a1,a1,4
    1910:	fcd61ce3          	bne	a2,a3,18e8 <strcmp+0x10c>
    1914:	00000513          	li	a0,0
    1918:	00008067          	ret
    191c:	00850513          	addi	a0,a0,8
    1920:	00858593          	addi	a1,a1,8
    1924:	fcd612e3          	bne	a2,a3,18e8 <strcmp+0x10c>
    1928:	00000513          	li	a0,0
    192c:	00008067          	ret
    1930:	00c50513          	addi	a0,a0,12
    1934:	00c58593          	addi	a1,a1,12
    1938:	fad618e3          	bne	a2,a3,18e8 <strcmp+0x10c>
    193c:	00000513          	li	a0,0
    1940:	00008067          	ret
    1944:	01050513          	addi	a0,a0,16
    1948:	01058593          	addi	a1,a1,16
    194c:	f8d61ee3          	bne	a2,a3,18e8 <strcmp+0x10c>
    1950:	00000513          	li	a0,0
    1954:	00008067          	ret

00001958 <_wctomb_r>:
    1958:	000037b7          	lui	a5,0x3
    195c:	5647a783          	lw	a5,1380(a5) # 3564 <_impure_ptr>
    1960:	0347a783          	lw	a5,52(a5)
    1964:	00079663          	bnez	a5,1970 <_wctomb_r+0x18>
    1968:	000037b7          	lui	a5,0x3
    196c:	3d878793          	addi	a5,a5,984 # 33d8 <__global_locale>
    1970:	0e07a303          	lw	t1,224(a5)
    1974:	00030067          	jr	t1

00001978 <__ascii_wctomb>:
    1978:	02058463          	beqz	a1,19a0 <__ascii_wctomb+0x28>
    197c:	0ff00793          	li	a5,255
    1980:	00c7fa63          	bgeu	a5,a2,1994 <__ascii_wctomb+0x1c>
    1984:	08a00793          	li	a5,138
    1988:	00f52023          	sw	a5,0(a0)
    198c:	fff00513          	li	a0,-1
    1990:	00008067          	ret
    1994:	00c58023          	sb	a2,0(a1)
    1998:	00100513          	li	a0,1
    199c:	00008067          	ret
    19a0:	00000513          	li	a0,0
    19a4:	00008067          	ret

000019a8 <__moddi3>:
    19a8:	00000893          	li	a7,0
    19ac:	0005dc63          	bgez	a1,19c4 <__moddi3+0x1c>
    19b0:	40a00533          	neg	a0,a0
    19b4:	00a037b3          	snez	a5,a0
    19b8:	40b005b3          	neg	a1,a1
    19bc:	40f585b3          	sub	a1,a1,a5
    19c0:	fff00893          	li	a7,-1
    19c4:	0006da63          	bgez	a3,19d8 <__moddi3+0x30>
    19c8:	40c00633          	neg	a2,a2
    19cc:	00c037b3          	snez	a5,a2
    19d0:	40d006b3          	neg	a3,a3
    19d4:	40f686b3          	sub	a3,a3,a5
    19d8:	00060313          	mv	t1,a2
    19dc:	00068713          	mv	a4,a3
    19e0:	00050793          	mv	a5,a0
    19e4:	00058813          	mv	a6,a1
    19e8:	24069863          	bnez	a3,1c38 <__moddi3+0x290>
    19ec:	000036b7          	lui	a3,0x3
    19f0:	8bc68693          	addi	a3,a3,-1860 # 28bc <__clz_tab>
    19f4:	0ec5f863          	bgeu	a1,a2,1ae4 <__moddi3+0x13c>
    19f8:	00010e37          	lui	t3,0x10
    19fc:	0dc67a63          	bgeu	a2,t3,1ad0 <__moddi3+0x128>
    1a00:	0ff00e13          	li	t3,255
    1a04:	00ce7463          	bgeu	t3,a2,1a0c <__moddi3+0x64>
    1a08:	00800713          	li	a4,8
    1a0c:	00e65e33          	srl	t3,a2,a4
    1a10:	01c686b3          	add	a3,a3,t3
    1a14:	0006ce83          	lbu	t4,0(a3)
    1a18:	02000e13          	li	t3,32
    1a1c:	00ee8eb3          	add	t4,t4,a4
    1a20:	41de0e33          	sub	t3,t3,t4
    1a24:	000e0c63          	beqz	t3,1a3c <__moddi3+0x94>
    1a28:	01c595b3          	sll	a1,a1,t3
    1a2c:	01d55eb3          	srl	t4,a0,t4
    1a30:	01c61333          	sll	t1,a2,t3
    1a34:	00bee833          	or	a6,t4,a1
    1a38:	01c517b3          	sll	a5,a0,t3
    1a3c:	01035613          	srli	a2,t1,0x10
    1a40:	02c876b3          	remu	a3,a6,a2
    1a44:	01031513          	slli	a0,t1,0x10
    1a48:	01055513          	srli	a0,a0,0x10
    1a4c:	0107d713          	srli	a4,a5,0x10
    1a50:	02c85833          	divu	a6,a6,a2
    1a54:	01069693          	slli	a3,a3,0x10
    1a58:	00e6e733          	or	a4,a3,a4
    1a5c:	03050833          	mul	a6,a0,a6
    1a60:	01077a63          	bgeu	a4,a6,1a74 <__moddi3+0xcc>
    1a64:	00670733          	add	a4,a4,t1
    1a68:	00676663          	bltu	a4,t1,1a74 <__moddi3+0xcc>
    1a6c:	01077463          	bgeu	a4,a6,1a74 <__moddi3+0xcc>
    1a70:	00670733          	add	a4,a4,t1
    1a74:	41070733          	sub	a4,a4,a6
    1a78:	02c776b3          	remu	a3,a4,a2
    1a7c:	01079793          	slli	a5,a5,0x10
    1a80:	0107d793          	srli	a5,a5,0x10
    1a84:	02c75733          	divu	a4,a4,a2
    1a88:	02e50733          	mul	a4,a0,a4
    1a8c:	01069513          	slli	a0,a3,0x10
    1a90:	00f567b3          	or	a5,a0,a5
    1a94:	00e7fa63          	bgeu	a5,a4,1aa8 <__moddi3+0x100>
    1a98:	006787b3          	add	a5,a5,t1
    1a9c:	0067e663          	bltu	a5,t1,1aa8 <__moddi3+0x100>
    1aa0:	00e7f463          	bgeu	a5,a4,1aa8 <__moddi3+0x100>
    1aa4:	006787b3          	add	a5,a5,t1
    1aa8:	40e787b3          	sub	a5,a5,a4
    1aac:	01c7d533          	srl	a0,a5,t3
    1ab0:	00000593          	li	a1,0
    1ab4:	00088c63          	beqz	a7,1acc <__moddi3+0x124>
    1ab8:	40a007b3          	neg	a5,a0
    1abc:	00f03733          	snez	a4,a5
    1ac0:	40b005b3          	neg	a1,a1
    1ac4:	00078513          	mv	a0,a5
    1ac8:	40e585b3          	sub	a1,a1,a4
    1acc:	00008067          	ret
    1ad0:	01000e37          	lui	t3,0x1000
    1ad4:	01000713          	li	a4,16
    1ad8:	f3c66ae3          	bltu	a2,t3,1a0c <__moddi3+0x64>
    1adc:	01800713          	li	a4,24
    1ae0:	f2dff06f          	j	1a0c <__moddi3+0x64>
    1ae4:	00061663          	bnez	a2,1af0 <__moddi3+0x148>
    1ae8:	00100313          	li	t1,1
    1aec:	02e35333          	divu	t1,t1,a4
    1af0:	00010637          	lui	a2,0x10
    1af4:	0ac37263          	bgeu	t1,a2,1b98 <__moddi3+0x1f0>
    1af8:	0ff00613          	li	a2,255
    1afc:	00667463          	bgeu	a2,t1,1b04 <__moddi3+0x15c>
    1b00:	00800713          	li	a4,8
    1b04:	00e35633          	srl	a2,t1,a4
    1b08:	00c686b3          	add	a3,a3,a2
    1b0c:	0006ce83          	lbu	t4,0(a3)
    1b10:	02000e13          	li	t3,32
    1b14:	00ee8eb3          	add	t4,t4,a4
    1b18:	41de0e33          	sub	t3,t3,t4
    1b1c:	080e1863          	bnez	t3,1bac <__moddi3+0x204>
    1b20:	406585b3          	sub	a1,a1,t1
    1b24:	01035693          	srli	a3,t1,0x10
    1b28:	01031513          	slli	a0,t1,0x10
    1b2c:	01055513          	srli	a0,a0,0x10
    1b30:	0107d613          	srli	a2,a5,0x10
    1b34:	02d5f733          	remu	a4,a1,a3
    1b38:	02d5d5b3          	divu	a1,a1,a3
    1b3c:	01071713          	slli	a4,a4,0x10
    1b40:	00c76733          	or	a4,a4,a2
    1b44:	02b505b3          	mul	a1,a0,a1
    1b48:	00b77a63          	bgeu	a4,a1,1b5c <__moddi3+0x1b4>
    1b4c:	00670733          	add	a4,a4,t1
    1b50:	00676663          	bltu	a4,t1,1b5c <__moddi3+0x1b4>
    1b54:	00b77463          	bgeu	a4,a1,1b5c <__moddi3+0x1b4>
    1b58:	00670733          	add	a4,a4,t1
    1b5c:	40b705b3          	sub	a1,a4,a1
    1b60:	02d5f733          	remu	a4,a1,a3
    1b64:	01079793          	slli	a5,a5,0x10
    1b68:	0107d793          	srli	a5,a5,0x10
    1b6c:	02d5d5b3          	divu	a1,a1,a3
    1b70:	02b505b3          	mul	a1,a0,a1
    1b74:	01071513          	slli	a0,a4,0x10
    1b78:	00f567b3          	or	a5,a0,a5
    1b7c:	00b7fa63          	bgeu	a5,a1,1b90 <__moddi3+0x1e8>
    1b80:	006787b3          	add	a5,a5,t1
    1b84:	0067e663          	bltu	a5,t1,1b90 <__moddi3+0x1e8>
    1b88:	00b7f463          	bgeu	a5,a1,1b90 <__moddi3+0x1e8>
    1b8c:	006787b3          	add	a5,a5,t1
    1b90:	40b787b3          	sub	a5,a5,a1
    1b94:	f19ff06f          	j	1aac <__moddi3+0x104>
    1b98:	01000637          	lui	a2,0x1000
    1b9c:	01000713          	li	a4,16
    1ba0:	f6c362e3          	bltu	t1,a2,1b04 <__moddi3+0x15c>
    1ba4:	01800713          	li	a4,24
    1ba8:	f5dff06f          	j	1b04 <__moddi3+0x15c>
    1bac:	01c31333          	sll	t1,t1,t3
    1bb0:	01d5df33          	srl	t5,a1,t4
    1bb4:	01c517b3          	sll	a5,a0,t3
    1bb8:	01d55eb3          	srl	t4,a0,t4
    1bbc:	01035513          	srli	a0,t1,0x10
    1bc0:	02af56b3          	divu	a3,t5,a0
    1bc4:	01c595b3          	sll	a1,a1,t3
    1bc8:	00beeeb3          	or	t4,t4,a1
    1bcc:	01031593          	slli	a1,t1,0x10
    1bd0:	0105d593          	srli	a1,a1,0x10
    1bd4:	010ed613          	srli	a2,t4,0x10
    1bd8:	02af7733          	remu	a4,t5,a0
    1bdc:	02d586b3          	mul	a3,a1,a3
    1be0:	01071713          	slli	a4,a4,0x10
    1be4:	00c76733          	or	a4,a4,a2
    1be8:	00d77a63          	bgeu	a4,a3,1bfc <__moddi3+0x254>
    1bec:	00670733          	add	a4,a4,t1
    1bf0:	00676663          	bltu	a4,t1,1bfc <__moddi3+0x254>
    1bf4:	00d77463          	bgeu	a4,a3,1bfc <__moddi3+0x254>
    1bf8:	00670733          	add	a4,a4,t1
    1bfc:	40d70633          	sub	a2,a4,a3
    1c00:	02a67733          	remu	a4,a2,a0
    1c04:	010e9e93          	slli	t4,t4,0x10
    1c08:	010ede93          	srli	t4,t4,0x10
    1c0c:	02a65633          	divu	a2,a2,a0
    1c10:	01071713          	slli	a4,a4,0x10
    1c14:	02c58633          	mul	a2,a1,a2
    1c18:	01d765b3          	or	a1,a4,t4
    1c1c:	00c5fa63          	bgeu	a1,a2,1c30 <__moddi3+0x288>
    1c20:	006585b3          	add	a1,a1,t1
    1c24:	0065e663          	bltu	a1,t1,1c30 <__moddi3+0x288>
    1c28:	00c5f463          	bgeu	a1,a2,1c30 <__moddi3+0x288>
    1c2c:	006585b3          	add	a1,a1,t1
    1c30:	40c585b3          	sub	a1,a1,a2
    1c34:	ef1ff06f          	j	1b24 <__moddi3+0x17c>
    1c38:	e6d5eee3          	bltu	a1,a3,1ab4 <__moddi3+0x10c>
    1c3c:	00010737          	lui	a4,0x10
    1c40:	04e6fc63          	bgeu	a3,a4,1c98 <__moddi3+0x2f0>
    1c44:	0ff00f13          	li	t5,255
    1c48:	00df3733          	sltu	a4,t5,a3
    1c4c:	00371713          	slli	a4,a4,0x3
    1c50:	00003e37          	lui	t3,0x3
    1c54:	00e6d333          	srl	t1,a3,a4
    1c58:	8bce0e13          	addi	t3,t3,-1860 # 28bc <__clz_tab>
    1c5c:	01c30333          	add	t1,t1,t3
    1c60:	00034f03          	lbu	t5,0(t1)
    1c64:	02000e93          	li	t4,32
    1c68:	00ef0f33          	add	t5,t5,a4
    1c6c:	41ee8eb3          	sub	t4,t4,t5
    1c70:	020e9e63          	bnez	t4,1cac <__moddi3+0x304>
    1c74:	00b6e463          	bltu	a3,a1,1c7c <__moddi3+0x2d4>
    1c78:	00c56a63          	bltu	a0,a2,1c8c <__moddi3+0x2e4>
    1c7c:	40c507b3          	sub	a5,a0,a2
    1c80:	40d586b3          	sub	a3,a1,a3
    1c84:	00f53533          	sltu	a0,a0,a5
    1c88:	40a68833          	sub	a6,a3,a0
    1c8c:	00078513          	mv	a0,a5
    1c90:	00080593          	mv	a1,a6
    1c94:	e21ff06f          	j	1ab4 <__moddi3+0x10c>
    1c98:	01000337          	lui	t1,0x1000
    1c9c:	01000713          	li	a4,16
    1ca0:	fa66e8e3          	bltu	a3,t1,1c50 <__moddi3+0x2a8>
    1ca4:	01800713          	li	a4,24
    1ca8:	fa9ff06f          	j	1c50 <__moddi3+0x2a8>
    1cac:	01e65733          	srl	a4,a2,t5
    1cb0:	01d696b3          	sll	a3,a3,t4
    1cb4:	00d766b3          	or	a3,a4,a3
    1cb8:	01e5d7b3          	srl	a5,a1,t5
    1cbc:	0106d713          	srli	a4,a3,0x10
    1cc0:	02e7fe33          	remu	t3,a5,a4
    1cc4:	01d595b3          	sll	a1,a1,t4
    1cc8:	01e55833          	srl	a6,a0,t5
    1ccc:	00b86833          	or	a6,a6,a1
    1cd0:	01069593          	slli	a1,a3,0x10
    1cd4:	0105d593          	srli	a1,a1,0x10
    1cd8:	01085313          	srli	t1,a6,0x10
    1cdc:	01d61633          	sll	a2,a2,t4
    1ce0:	01d51533          	sll	a0,a0,t4
    1ce4:	02e7d7b3          	divu	a5,a5,a4
    1ce8:	010e1e13          	slli	t3,t3,0x10
    1cec:	006e6333          	or	t1,t3,t1
    1cf0:	02f58fb3          	mul	t6,a1,a5
    1cf4:	00078e13          	mv	t3,a5
    1cf8:	01f37e63          	bgeu	t1,t6,1d14 <__moddi3+0x36c>
    1cfc:	00d30333          	add	t1,t1,a3
    1d00:	fff78e13          	addi	t3,a5,-1
    1d04:	00d36863          	bltu	t1,a3,1d14 <__moddi3+0x36c>
    1d08:	01f37663          	bgeu	t1,t6,1d14 <__moddi3+0x36c>
    1d0c:	ffe78e13          	addi	t3,a5,-2
    1d10:	00d30333          	add	t1,t1,a3
    1d14:	41f30333          	sub	t1,t1,t6
    1d18:	02e37fb3          	remu	t6,t1,a4
    1d1c:	01081813          	slli	a6,a6,0x10
    1d20:	01085813          	srli	a6,a6,0x10
    1d24:	02e35333          	divu	t1,t1,a4
    1d28:	010f9f93          	slli	t6,t6,0x10
    1d2c:	010fefb3          	or	t6,t6,a6
    1d30:	026585b3          	mul	a1,a1,t1
    1d34:	00030793          	mv	a5,t1
    1d38:	00bffe63          	bgeu	t6,a1,1d54 <__moddi3+0x3ac>
    1d3c:	00df8fb3          	add	t6,t6,a3
    1d40:	fff30793          	addi	a5,t1,-1 # ffffff <__C_STACK_TOP__+0xfeffff>
    1d44:	00dfe863          	bltu	t6,a3,1d54 <__moddi3+0x3ac>
    1d48:	00bff663          	bgeu	t6,a1,1d54 <__moddi3+0x3ac>
    1d4c:	ffe30793          	addi	a5,t1,-2
    1d50:	00df8fb3          	add	t6,t6,a3
    1d54:	40bf85b3          	sub	a1,t6,a1
    1d58:	010e1e13          	slli	t3,t3,0x10
    1d5c:	00010fb7          	lui	t6,0x10
    1d60:	00fe6e33          	or	t3,t3,a5
    1d64:	ffff8793          	addi	a5,t6,-1 # ffff <__BSS_END__+0xa1ff>
    1d68:	00fe7333          	and	t1,t3,a5
    1d6c:	01065813          	srli	a6,a2,0x10
    1d70:	010e5e13          	srli	t3,t3,0x10
    1d74:	00f677b3          	and	a5,a2,a5
    1d78:	02f30733          	mul	a4,t1,a5
    1d7c:	02fe07b3          	mul	a5,t3,a5
    1d80:	03030333          	mul	t1,t1,a6
    1d84:	030e0e33          	mul	t3,t3,a6
    1d88:	00f30333          	add	t1,t1,a5
    1d8c:	01075813          	srli	a6,a4,0x10
    1d90:	00680833          	add	a6,a6,t1
    1d94:	00f87463          	bgeu	a6,a5,1d9c <__moddi3+0x3f4>
    1d98:	01fe0e33          	add	t3,t3,t6
    1d9c:	01085793          	srli	a5,a6,0x10
    1da0:	01c78e33          	add	t3,a5,t3
    1da4:	000107b7          	lui	a5,0x10
    1da8:	fff78793          	addi	a5,a5,-1 # ffff <__BSS_END__+0xa1ff>
    1dac:	00f87833          	and	a6,a6,a5
    1db0:	01081813          	slli	a6,a6,0x10
    1db4:	00f77733          	and	a4,a4,a5
    1db8:	00e80733          	add	a4,a6,a4
    1dbc:	01c5e663          	bltu	a1,t3,1dc8 <__moddi3+0x420>
    1dc0:	01c59e63          	bne	a1,t3,1ddc <__moddi3+0x434>
    1dc4:	00e57c63          	bgeu	a0,a4,1ddc <__moddi3+0x434>
    1dc8:	40c70633          	sub	a2,a4,a2
    1dcc:	00c73733          	sltu	a4,a4,a2
    1dd0:	00d70733          	add	a4,a4,a3
    1dd4:	40ee0e33          	sub	t3,t3,a4
    1dd8:	00060713          	mv	a4,a2
    1ddc:	40e50733          	sub	a4,a0,a4
    1de0:	00e53533          	sltu	a0,a0,a4
    1de4:	41c585b3          	sub	a1,a1,t3
    1de8:	40a585b3          	sub	a1,a1,a0
    1dec:	01e597b3          	sll	a5,a1,t5
    1df0:	01d75733          	srl	a4,a4,t4
    1df4:	00e7e533          	or	a0,a5,a4
    1df8:	01d5d5b3          	srl	a1,a1,t4
    1dfc:	cb9ff06f          	j	1ab4 <__moddi3+0x10c>

00001e00 <__udivdi3>:
    1e00:	00058793          	mv	a5,a1
    1e04:	00060813          	mv	a6,a2
    1e08:	00068893          	mv	a7,a3
    1e0c:	00050313          	mv	t1,a0
    1e10:	28069663          	bnez	a3,209c <__udivdi3+0x29c>
    1e14:	00003737          	lui	a4,0x3
    1e18:	8bc70713          	addi	a4,a4,-1860 # 28bc <__clz_tab>
    1e1c:	0ec5f663          	bgeu	a1,a2,1f08 <__udivdi3+0x108>
    1e20:	000106b7          	lui	a3,0x10
    1e24:	0cd67863          	bgeu	a2,a3,1ef4 <__udivdi3+0xf4>
    1e28:	0ff00693          	li	a3,255
    1e2c:	00c6b6b3          	sltu	a3,a3,a2
    1e30:	00369693          	slli	a3,a3,0x3
    1e34:	00d658b3          	srl	a7,a2,a3
    1e38:	01170733          	add	a4,a4,a7
    1e3c:	00074703          	lbu	a4,0(a4)
    1e40:	00d706b3          	add	a3,a4,a3
    1e44:	02000713          	li	a4,32
    1e48:	40d70733          	sub	a4,a4,a3
    1e4c:	00070c63          	beqz	a4,1e64 <__udivdi3+0x64>
    1e50:	00e797b3          	sll	a5,a5,a4
    1e54:	00d556b3          	srl	a3,a0,a3
    1e58:	00e61833          	sll	a6,a2,a4
    1e5c:	00f6e5b3          	or	a1,a3,a5
    1e60:	00e51333          	sll	t1,a0,a4
    1e64:	01085513          	srli	a0,a6,0x10
    1e68:	02a5f733          	remu	a4,a1,a0
    1e6c:	01081613          	slli	a2,a6,0x10
    1e70:	01065613          	srli	a2,a2,0x10
    1e74:	01035693          	srli	a3,t1,0x10
    1e78:	02a5d5b3          	divu	a1,a1,a0
    1e7c:	01071713          	slli	a4,a4,0x10
    1e80:	00d766b3          	or	a3,a4,a3
    1e84:	02b607b3          	mul	a5,a2,a1
    1e88:	00058713          	mv	a4,a1
    1e8c:	00f6fe63          	bgeu	a3,a5,1ea8 <__udivdi3+0xa8>
    1e90:	010686b3          	add	a3,a3,a6
    1e94:	fff58713          	addi	a4,a1,-1
    1e98:	0106e863          	bltu	a3,a6,1ea8 <__udivdi3+0xa8>
    1e9c:	00f6f663          	bgeu	a3,a5,1ea8 <__udivdi3+0xa8>
    1ea0:	ffe58713          	addi	a4,a1,-2
    1ea4:	010686b3          	add	a3,a3,a6
    1ea8:	40f686b3          	sub	a3,a3,a5
    1eac:	02a6f7b3          	remu	a5,a3,a0
    1eb0:	01031313          	slli	t1,t1,0x10
    1eb4:	01035313          	srli	t1,t1,0x10
    1eb8:	02a6d6b3          	divu	a3,a3,a0
    1ebc:	01079793          	slli	a5,a5,0x10
    1ec0:	0067e333          	or	t1,a5,t1
    1ec4:	02d605b3          	mul	a1,a2,a3
    1ec8:	00068513          	mv	a0,a3
    1ecc:	00b37c63          	bgeu	t1,a1,1ee4 <__udivdi3+0xe4>
    1ed0:	00680333          	add	t1,a6,t1
    1ed4:	fff68513          	addi	a0,a3,-1 # ffff <__BSS_END__+0xa1ff>
    1ed8:	01036663          	bltu	t1,a6,1ee4 <__udivdi3+0xe4>
    1edc:	00b37463          	bgeu	t1,a1,1ee4 <__udivdi3+0xe4>
    1ee0:	ffe68513          	addi	a0,a3,-2
    1ee4:	01071713          	slli	a4,a4,0x10
    1ee8:	00a76733          	or	a4,a4,a0
    1eec:	00000593          	li	a1,0
    1ef0:	0e40006f          	j	1fd4 <__udivdi3+0x1d4>
    1ef4:	010008b7          	lui	a7,0x1000
    1ef8:	01000693          	li	a3,16
    1efc:	f3166ce3          	bltu	a2,a7,1e34 <__udivdi3+0x34>
    1f00:	01800693          	li	a3,24
    1f04:	f31ff06f          	j	1e34 <__udivdi3+0x34>
    1f08:	00061663          	bnez	a2,1f14 <__udivdi3+0x114>
    1f0c:	00100693          	li	a3,1
    1f10:	02c6d833          	divu	a6,a3,a2
    1f14:	000106b7          	lui	a3,0x10
    1f18:	0cd87263          	bgeu	a6,a3,1fdc <__udivdi3+0x1dc>
    1f1c:	0ff00693          	li	a3,255
    1f20:	0106f463          	bgeu	a3,a6,1f28 <__udivdi3+0x128>
    1f24:	00800893          	li	a7,8
    1f28:	011856b3          	srl	a3,a6,a7
    1f2c:	00d70733          	add	a4,a4,a3
    1f30:	00074683          	lbu	a3,0(a4)
    1f34:	02000713          	li	a4,32
    1f38:	011686b3          	add	a3,a3,a7
    1f3c:	40d70733          	sub	a4,a4,a3
    1f40:	0a071863          	bnez	a4,1ff0 <__udivdi3+0x1f0>
    1f44:	410787b3          	sub	a5,a5,a6
    1f48:	00100593          	li	a1,1
    1f4c:	01085613          	srli	a2,a6,0x10
    1f50:	01081893          	slli	a7,a6,0x10
    1f54:	0108d893          	srli	a7,a7,0x10
    1f58:	01035693          	srli	a3,t1,0x10
    1f5c:	02c7f733          	remu	a4,a5,a2
    1f60:	02c7d7b3          	divu	a5,a5,a2
    1f64:	01071713          	slli	a4,a4,0x10
    1f68:	00d766b3          	or	a3,a4,a3
    1f6c:	02f88533          	mul	a0,a7,a5
    1f70:	00078713          	mv	a4,a5
    1f74:	00a6fe63          	bgeu	a3,a0,1f90 <__udivdi3+0x190>
    1f78:	010686b3          	add	a3,a3,a6
    1f7c:	fff78713          	addi	a4,a5,-1
    1f80:	0106e863          	bltu	a3,a6,1f90 <__udivdi3+0x190>
    1f84:	00a6f663          	bgeu	a3,a0,1f90 <__udivdi3+0x190>
    1f88:	ffe78713          	addi	a4,a5,-2
    1f8c:	010686b3          	add	a3,a3,a6
    1f90:	40a686b3          	sub	a3,a3,a0
    1f94:	02c6f7b3          	remu	a5,a3,a2
    1f98:	01031313          	slli	t1,t1,0x10
    1f9c:	01035313          	srli	t1,t1,0x10
    1fa0:	02c6d6b3          	divu	a3,a3,a2
    1fa4:	01079793          	slli	a5,a5,0x10
    1fa8:	0067e333          	or	t1,a5,t1
    1fac:	02d888b3          	mul	a7,a7,a3
    1fb0:	00068513          	mv	a0,a3
    1fb4:	01137c63          	bgeu	t1,a7,1fcc <__udivdi3+0x1cc>
    1fb8:	00680333          	add	t1,a6,t1
    1fbc:	fff68513          	addi	a0,a3,-1 # ffff <__BSS_END__+0xa1ff>
    1fc0:	01036663          	bltu	t1,a6,1fcc <__udivdi3+0x1cc>
    1fc4:	01137463          	bgeu	t1,a7,1fcc <__udivdi3+0x1cc>
    1fc8:	ffe68513          	addi	a0,a3,-2
    1fcc:	01071713          	slli	a4,a4,0x10
    1fd0:	00a76733          	or	a4,a4,a0
    1fd4:	00070513          	mv	a0,a4
    1fd8:	00008067          	ret
    1fdc:	010006b7          	lui	a3,0x1000
    1fe0:	01000893          	li	a7,16
    1fe4:	f4d862e3          	bltu	a6,a3,1f28 <__udivdi3+0x128>
    1fe8:	01800893          	li	a7,24
    1fec:	f3dff06f          	j	1f28 <__udivdi3+0x128>
    1ff0:	00e81833          	sll	a6,a6,a4
    1ff4:	00d7d5b3          	srl	a1,a5,a3
    1ff8:	00e51333          	sll	t1,a0,a4
    1ffc:	00d556b3          	srl	a3,a0,a3
    2000:	01085513          	srli	a0,a6,0x10
    2004:	00e797b3          	sll	a5,a5,a4
    2008:	02a5f733          	remu	a4,a1,a0
    200c:	00f6e8b3          	or	a7,a3,a5
    2010:	01081793          	slli	a5,a6,0x10
    2014:	0107d793          	srli	a5,a5,0x10
    2018:	0108d613          	srli	a2,a7,0x10
    201c:	02a5d5b3          	divu	a1,a1,a0
    2020:	01071713          	slli	a4,a4,0x10
    2024:	00c76733          	or	a4,a4,a2
    2028:	02b786b3          	mul	a3,a5,a1
    202c:	00058613          	mv	a2,a1
    2030:	00d77e63          	bgeu	a4,a3,204c <__udivdi3+0x24c>
    2034:	01070733          	add	a4,a4,a6
    2038:	fff58613          	addi	a2,a1,-1
    203c:	01076863          	bltu	a4,a6,204c <__udivdi3+0x24c>
    2040:	00d77663          	bgeu	a4,a3,204c <__udivdi3+0x24c>
    2044:	ffe58613          	addi	a2,a1,-2
    2048:	01070733          	add	a4,a4,a6
    204c:	40d706b3          	sub	a3,a4,a3
    2050:	02a6f733          	remu	a4,a3,a0
    2054:	01089893          	slli	a7,a7,0x10
    2058:	0108d893          	srli	a7,a7,0x10
    205c:	02a6d6b3          	divu	a3,a3,a0
    2060:	01071713          	slli	a4,a4,0x10
    2064:	02d785b3          	mul	a1,a5,a3
    2068:	011767b3          	or	a5,a4,a7
    206c:	00068713          	mv	a4,a3
    2070:	00b7fe63          	bgeu	a5,a1,208c <__udivdi3+0x28c>
    2074:	010787b3          	add	a5,a5,a6
    2078:	fff68713          	addi	a4,a3,-1 # ffffff <__C_STACK_TOP__+0xfeffff>
    207c:	0107e863          	bltu	a5,a6,208c <__udivdi3+0x28c>
    2080:	00b7f663          	bgeu	a5,a1,208c <__udivdi3+0x28c>
    2084:	ffe68713          	addi	a4,a3,-2
    2088:	010787b3          	add	a5,a5,a6
    208c:	40b787b3          	sub	a5,a5,a1
    2090:	01061593          	slli	a1,a2,0x10
    2094:	00e5e5b3          	or	a1,a1,a4
    2098:	eb5ff06f          	j	1f4c <__udivdi3+0x14c>
    209c:	18d5e663          	bltu	a1,a3,2228 <__udivdi3+0x428>
    20a0:	00010737          	lui	a4,0x10
    20a4:	04e6f463          	bgeu	a3,a4,20ec <__udivdi3+0x2ec>
    20a8:	0ff00813          	li	a6,255
    20ac:	00d83733          	sltu	a4,a6,a3
    20b0:	00371713          	slli	a4,a4,0x3
    20b4:	00003837          	lui	a6,0x3
    20b8:	8bc80813          	addi	a6,a6,-1860 # 28bc <__clz_tab>
    20bc:	00e6d5b3          	srl	a1,a3,a4
    20c0:	010585b3          	add	a1,a1,a6
    20c4:	0005c803          	lbu	a6,0(a1)
    20c8:	02000593          	li	a1,32
    20cc:	00e80833          	add	a6,a6,a4
    20d0:	410585b3          	sub	a1,a1,a6
    20d4:	02059663          	bnez	a1,2100 <__udivdi3+0x300>
    20d8:	00100713          	li	a4,1
    20dc:	eef6ece3          	bltu	a3,a5,1fd4 <__udivdi3+0x1d4>
    20e0:	00c53533          	sltu	a0,a0,a2
    20e4:	00154713          	xori	a4,a0,1
    20e8:	eedff06f          	j	1fd4 <__udivdi3+0x1d4>
    20ec:	010005b7          	lui	a1,0x1000
    20f0:	01000713          	li	a4,16
    20f4:	fcb6e0e3          	bltu	a3,a1,20b4 <__udivdi3+0x2b4>
    20f8:	01800713          	li	a4,24
    20fc:	fb9ff06f          	j	20b4 <__udivdi3+0x2b4>
    2100:	01065733          	srl	a4,a2,a6
    2104:	00b696b3          	sll	a3,a3,a1
    2108:	00d766b3          	or	a3,a4,a3
    210c:	0106de93          	srli	t4,a3,0x10
    2110:	0107d733          	srl	a4,a5,a6
    2114:	03d778b3          	remu	a7,a4,t4
    2118:	00b797b3          	sll	a5,a5,a1
    211c:	01055833          	srl	a6,a0,a6
    2120:	00f86333          	or	t1,a6,a5
    2124:	01069793          	slli	a5,a3,0x10
    2128:	0107d793          	srli	a5,a5,0x10
    212c:	01035813          	srli	a6,t1,0x10
    2130:	00b61633          	sll	a2,a2,a1
    2134:	03d75733          	divu	a4,a4,t4
    2138:	01089893          	slli	a7,a7,0x10
    213c:	0108e833          	or	a6,a7,a6
    2140:	02e78f33          	mul	t5,a5,a4
    2144:	00070e13          	mv	t3,a4
    2148:	01e87e63          	bgeu	a6,t5,2164 <__udivdi3+0x364>
    214c:	00d80833          	add	a6,a6,a3
    2150:	fff70e13          	addi	t3,a4,-1 # ffff <__BSS_END__+0xa1ff>
    2154:	00d86863          	bltu	a6,a3,2164 <__udivdi3+0x364>
    2158:	01e87663          	bgeu	a6,t5,2164 <__udivdi3+0x364>
    215c:	ffe70e13          	addi	t3,a4,-2
    2160:	00d80833          	add	a6,a6,a3
    2164:	41e80833          	sub	a6,a6,t5
    2168:	03d878b3          	remu	a7,a6,t4
    216c:	03d85833          	divu	a6,a6,t4
    2170:	01089893          	slli	a7,a7,0x10
    2174:	03078eb3          	mul	t4,a5,a6
    2178:	01031793          	slli	a5,t1,0x10
    217c:	0107d793          	srli	a5,a5,0x10
    2180:	00f8e7b3          	or	a5,a7,a5
    2184:	00080713          	mv	a4,a6
    2188:	01d7fe63          	bgeu	a5,t4,21a4 <__udivdi3+0x3a4>
    218c:	00d787b3          	add	a5,a5,a3
    2190:	fff80713          	addi	a4,a6,-1
    2194:	00d7e863          	bltu	a5,a3,21a4 <__udivdi3+0x3a4>
    2198:	01d7f663          	bgeu	a5,t4,21a4 <__udivdi3+0x3a4>
    219c:	ffe80713          	addi	a4,a6,-2
    21a0:	00d787b3          	add	a5,a5,a3
    21a4:	010e1e13          	slli	t3,t3,0x10
    21a8:	41d787b3          	sub	a5,a5,t4
    21ac:	00010eb7          	lui	t4,0x10
    21b0:	00ee6733          	or	a4,t3,a4
    21b4:	fffe8813          	addi	a6,t4,-1 # ffff <__BSS_END__+0xa1ff>
    21b8:	01077333          	and	t1,a4,a6
    21bc:	01075893          	srli	a7,a4,0x10
    21c0:	01067833          	and	a6,a2,a6
    21c4:	01065613          	srli	a2,a2,0x10
    21c8:	03030e33          	mul	t3,t1,a6
    21cc:	03088833          	mul	a6,a7,a6
    21d0:	010e5693          	srli	a3,t3,0x10
    21d4:	02c30333          	mul	t1,t1,a2
    21d8:	01030333          	add	t1,t1,a6
    21dc:	006686b3          	add	a3,a3,t1
    21e0:	02c888b3          	mul	a7,a7,a2
    21e4:	0106f463          	bgeu	a3,a6,21ec <__udivdi3+0x3ec>
    21e8:	01d888b3          	add	a7,a7,t4
    21ec:	0106d613          	srli	a2,a3,0x10
    21f0:	011608b3          	add	a7,a2,a7
    21f4:	0317e663          	bltu	a5,a7,2220 <__udivdi3+0x420>
    21f8:	cf179ae3          	bne	a5,a7,1eec <__udivdi3+0xec>
    21fc:	000107b7          	lui	a5,0x10
    2200:	fff78793          	addi	a5,a5,-1 # ffff <__BSS_END__+0xa1ff>
    2204:	00f6f6b3          	and	a3,a3,a5
    2208:	01069693          	slli	a3,a3,0x10
    220c:	00fe7e33          	and	t3,t3,a5
    2210:	00b51533          	sll	a0,a0,a1
    2214:	01c686b3          	add	a3,a3,t3
    2218:	00000593          	li	a1,0
    221c:	dad57ce3          	bgeu	a0,a3,1fd4 <__udivdi3+0x1d4>
    2220:	fff70713          	addi	a4,a4,-1
    2224:	cc9ff06f          	j	1eec <__udivdi3+0xec>
    2228:	00000593          	li	a1,0
    222c:	00000713          	li	a4,0
    2230:	da5ff06f          	j	1fd4 <__udivdi3+0x1d4>

00002234 <__umoddi3>:
    2234:	00060893          	mv	a7,a2
    2238:	00068713          	mv	a4,a3
    223c:	00050793          	mv	a5,a0
    2240:	00058813          	mv	a6,a1
    2244:	22069c63          	bnez	a3,247c <__umoddi3+0x248>
    2248:	000036b7          	lui	a3,0x3
    224c:	8bc68693          	addi	a3,a3,-1860 # 28bc <__clz_tab>
    2250:	0cc5fc63          	bgeu	a1,a2,2328 <__umoddi3+0xf4>
    2254:	00010337          	lui	t1,0x10
    2258:	0a667e63          	bgeu	a2,t1,2314 <__umoddi3+0xe0>
    225c:	0ff00313          	li	t1,255
    2260:	00c37463          	bgeu	t1,a2,2268 <__umoddi3+0x34>
    2264:	00800713          	li	a4,8
    2268:	00e65333          	srl	t1,a2,a4
    226c:	006686b3          	add	a3,a3,t1
    2270:	0006ce03          	lbu	t3,0(a3)
    2274:	02000313          	li	t1,32
    2278:	00ee0e33          	add	t3,t3,a4
    227c:	41c30333          	sub	t1,t1,t3
    2280:	00030c63          	beqz	t1,2298 <__umoddi3+0x64>
    2284:	006595b3          	sll	a1,a1,t1
    2288:	01c55e33          	srl	t3,a0,t3
    228c:	006618b3          	sll	a7,a2,t1
    2290:	00be6833          	or	a6,t3,a1
    2294:	006517b3          	sll	a5,a0,t1
    2298:	0108d613          	srli	a2,a7,0x10
    229c:	02c87733          	remu	a4,a6,a2
    22a0:	01089513          	slli	a0,a7,0x10
    22a4:	01055513          	srli	a0,a0,0x10
    22a8:	0107d693          	srli	a3,a5,0x10
    22ac:	02c85833          	divu	a6,a6,a2
    22b0:	01071713          	slli	a4,a4,0x10
    22b4:	00d766b3          	or	a3,a4,a3
    22b8:	03050833          	mul	a6,a0,a6
    22bc:	0106fa63          	bgeu	a3,a6,22d0 <__umoddi3+0x9c>
    22c0:	011686b3          	add	a3,a3,a7
    22c4:	0116e663          	bltu	a3,a7,22d0 <__umoddi3+0x9c>
    22c8:	0106f463          	bgeu	a3,a6,22d0 <__umoddi3+0x9c>
    22cc:	011686b3          	add	a3,a3,a7
    22d0:	410686b3          	sub	a3,a3,a6
    22d4:	02c6f733          	remu	a4,a3,a2
    22d8:	01079793          	slli	a5,a5,0x10
    22dc:	0107d793          	srli	a5,a5,0x10
    22e0:	02c6d6b3          	divu	a3,a3,a2
    22e4:	02d506b3          	mul	a3,a0,a3
    22e8:	01071513          	slli	a0,a4,0x10
    22ec:	00f567b3          	or	a5,a0,a5
    22f0:	00d7fa63          	bgeu	a5,a3,2304 <__umoddi3+0xd0>
    22f4:	011787b3          	add	a5,a5,a7
    22f8:	0117e663          	bltu	a5,a7,2304 <__umoddi3+0xd0>
    22fc:	00d7f463          	bgeu	a5,a3,2304 <__umoddi3+0xd0>
    2300:	011787b3          	add	a5,a5,a7
    2304:	40d787b3          	sub	a5,a5,a3
    2308:	0067d533          	srl	a0,a5,t1
    230c:	00000593          	li	a1,0
    2310:	00008067          	ret
    2314:	01000337          	lui	t1,0x1000
    2318:	01000713          	li	a4,16
    231c:	f46666e3          	bltu	a2,t1,2268 <__umoddi3+0x34>
    2320:	01800713          	li	a4,24
    2324:	f45ff06f          	j	2268 <__umoddi3+0x34>
    2328:	00061663          	bnez	a2,2334 <__umoddi3+0x100>
    232c:	00100613          	li	a2,1
    2330:	031658b3          	divu	a7,a2,a7
    2334:	00010637          	lui	a2,0x10
    2338:	0ac8f263          	bgeu	a7,a2,23dc <__umoddi3+0x1a8>
    233c:	0ff00613          	li	a2,255
    2340:	01167463          	bgeu	a2,a7,2348 <__umoddi3+0x114>
    2344:	00800713          	li	a4,8
    2348:	00e8d633          	srl	a2,a7,a4
    234c:	00c686b3          	add	a3,a3,a2
    2350:	0006ce03          	lbu	t3,0(a3)
    2354:	02000313          	li	t1,32
    2358:	00ee0e33          	add	t3,t3,a4
    235c:	41c30333          	sub	t1,t1,t3
    2360:	08031863          	bnez	t1,23f0 <__umoddi3+0x1bc>
    2364:	411585b3          	sub	a1,a1,a7
    2368:	0108d713          	srli	a4,a7,0x10
    236c:	01089513          	slli	a0,a7,0x10
    2370:	01055513          	srli	a0,a0,0x10
    2374:	0107d613          	srli	a2,a5,0x10
    2378:	02e5f6b3          	remu	a3,a1,a4
    237c:	02e5d5b3          	divu	a1,a1,a4
    2380:	01069693          	slli	a3,a3,0x10
    2384:	00c6e6b3          	or	a3,a3,a2
    2388:	02b505b3          	mul	a1,a0,a1
    238c:	00b6fa63          	bgeu	a3,a1,23a0 <__umoddi3+0x16c>
    2390:	011686b3          	add	a3,a3,a7
    2394:	0116e663          	bltu	a3,a7,23a0 <__umoddi3+0x16c>
    2398:	00b6f463          	bgeu	a3,a1,23a0 <__umoddi3+0x16c>
    239c:	011686b3          	add	a3,a3,a7
    23a0:	40b685b3          	sub	a1,a3,a1
    23a4:	02e5f6b3          	remu	a3,a1,a4
    23a8:	01079793          	slli	a5,a5,0x10
    23ac:	0107d793          	srli	a5,a5,0x10
    23b0:	02e5d5b3          	divu	a1,a1,a4
    23b4:	02b505b3          	mul	a1,a0,a1
    23b8:	01069513          	slli	a0,a3,0x10
    23bc:	00f567b3          	or	a5,a0,a5
    23c0:	00b7fa63          	bgeu	a5,a1,23d4 <__umoddi3+0x1a0>
    23c4:	011787b3          	add	a5,a5,a7
    23c8:	0117e663          	bltu	a5,a7,23d4 <__umoddi3+0x1a0>
    23cc:	00b7f463          	bgeu	a5,a1,23d4 <__umoddi3+0x1a0>
    23d0:	011787b3          	add	a5,a5,a7
    23d4:	40b787b3          	sub	a5,a5,a1
    23d8:	f31ff06f          	j	2308 <__umoddi3+0xd4>
    23dc:	01000637          	lui	a2,0x1000
    23e0:	01000713          	li	a4,16
    23e4:	f6c8e2e3          	bltu	a7,a2,2348 <__umoddi3+0x114>
    23e8:	01800713          	li	a4,24
    23ec:	f5dff06f          	j	2348 <__umoddi3+0x114>
    23f0:	006898b3          	sll	a7,a7,t1
    23f4:	01c5d733          	srl	a4,a1,t3
    23f8:	006517b3          	sll	a5,a0,t1
    23fc:	01c55e33          	srl	t3,a0,t3
    2400:	0108d513          	srli	a0,a7,0x10
    2404:	02a776b3          	remu	a3,a4,a0
    2408:	006595b3          	sll	a1,a1,t1
    240c:	00be6e33          	or	t3,t3,a1
    2410:	01089593          	slli	a1,a7,0x10
    2414:	0105d593          	srli	a1,a1,0x10
    2418:	010e5613          	srli	a2,t3,0x10
    241c:	02a75733          	divu	a4,a4,a0
    2420:	01069693          	slli	a3,a3,0x10
    2424:	00c6e6b3          	or	a3,a3,a2
    2428:	02e58733          	mul	a4,a1,a4
    242c:	00e6fa63          	bgeu	a3,a4,2440 <__umoddi3+0x20c>
    2430:	011686b3          	add	a3,a3,a7
    2434:	0116e663          	bltu	a3,a7,2440 <__umoddi3+0x20c>
    2438:	00e6f463          	bgeu	a3,a4,2440 <__umoddi3+0x20c>
    243c:	011686b3          	add	a3,a3,a7
    2440:	40e68633          	sub	a2,a3,a4
    2444:	02a676b3          	remu	a3,a2,a0
    2448:	010e1e13          	slli	t3,t3,0x10
    244c:	010e5e13          	srli	t3,t3,0x10
    2450:	02a65633          	divu	a2,a2,a0
    2454:	01069693          	slli	a3,a3,0x10
    2458:	02c58633          	mul	a2,a1,a2
    245c:	01c6e5b3          	or	a1,a3,t3
    2460:	00c5fa63          	bgeu	a1,a2,2474 <__umoddi3+0x240>
    2464:	011585b3          	add	a1,a1,a7
    2468:	0115e663          	bltu	a1,a7,2474 <__umoddi3+0x240>
    246c:	00c5f463          	bgeu	a1,a2,2474 <__umoddi3+0x240>
    2470:	011585b3          	add	a1,a1,a7
    2474:	40c585b3          	sub	a1,a1,a2
    2478:	ef1ff06f          	j	2368 <__umoddi3+0x134>
    247c:	e8d5eae3          	bltu	a1,a3,2310 <__umoddi3+0xdc>
    2480:	00010737          	lui	a4,0x10
    2484:	04e6fc63          	bgeu	a3,a4,24dc <__umoddi3+0x2a8>
    2488:	0ff00e93          	li	t4,255
    248c:	00deb733          	sltu	a4,t4,a3
    2490:	00371713          	slli	a4,a4,0x3
    2494:	00003337          	lui	t1,0x3
    2498:	00e6d8b3          	srl	a7,a3,a4
    249c:	8bc30313          	addi	t1,t1,-1860 # 28bc <__clz_tab>
    24a0:	006888b3          	add	a7,a7,t1
    24a4:	0008ce83          	lbu	t4,0(a7) # 1000000 <__C_STACK_TOP__+0xff0000>
    24a8:	02000e13          	li	t3,32
    24ac:	00ee8eb3          	add	t4,t4,a4
    24b0:	41de0e33          	sub	t3,t3,t4
    24b4:	020e1e63          	bnez	t3,24f0 <__umoddi3+0x2bc>
    24b8:	00b6e463          	bltu	a3,a1,24c0 <__umoddi3+0x28c>
    24bc:	00c56a63          	bltu	a0,a2,24d0 <__umoddi3+0x29c>
    24c0:	40c507b3          	sub	a5,a0,a2
    24c4:	40d585b3          	sub	a1,a1,a3
    24c8:	00f53533          	sltu	a0,a0,a5
    24cc:	40a58833          	sub	a6,a1,a0
    24d0:	00078513          	mv	a0,a5
    24d4:	00080593          	mv	a1,a6
    24d8:	e39ff06f          	j	2310 <__umoddi3+0xdc>
    24dc:	010008b7          	lui	a7,0x1000
    24e0:	01000713          	li	a4,16
    24e4:	fb16e8e3          	bltu	a3,a7,2494 <__umoddi3+0x260>
    24e8:	01800713          	li	a4,24
    24ec:	fa9ff06f          	j	2494 <__umoddi3+0x260>
    24f0:	01d65733          	srl	a4,a2,t4
    24f4:	01c696b3          	sll	a3,a3,t3
    24f8:	00d766b3          	or	a3,a4,a3
    24fc:	0106d813          	srli	a6,a3,0x10
    2500:	01d5d733          	srl	a4,a1,t4
    2504:	03077333          	remu	t1,a4,a6
    2508:	01c595b3          	sll	a1,a1,t3
    250c:	01d557b3          	srl	a5,a0,t4
    2510:	00b7e7b3          	or	a5,a5,a1
    2514:	01069593          	slli	a1,a3,0x10
    2518:	0105d593          	srli	a1,a1,0x10
    251c:	0107d893          	srli	a7,a5,0x10
    2520:	01c61633          	sll	a2,a2,t3
    2524:	01c51533          	sll	a0,a0,t3
    2528:	03075733          	divu	a4,a4,a6
    252c:	01031313          	slli	t1,t1,0x10
    2530:	011368b3          	or	a7,t1,a7
    2534:	02e58f33          	mul	t5,a1,a4
    2538:	00070313          	mv	t1,a4
    253c:	01e8fe63          	bgeu	a7,t5,2558 <__umoddi3+0x324>
    2540:	00d888b3          	add	a7,a7,a3
    2544:	fff70313          	addi	t1,a4,-1 # ffff <__BSS_END__+0xa1ff>
    2548:	00d8e863          	bltu	a7,a3,2558 <__umoddi3+0x324>
    254c:	01e8f663          	bgeu	a7,t5,2558 <__umoddi3+0x324>
    2550:	ffe70313          	addi	t1,a4,-2
    2554:	00d888b3          	add	a7,a7,a3
    2558:	41e888b3          	sub	a7,a7,t5
    255c:	0308ff33          	remu	t5,a7,a6
    2560:	0308d8b3          	divu	a7,a7,a6
    2564:	010f1f13          	slli	t5,t5,0x10
    2568:	03158833          	mul	a6,a1,a7
    256c:	01079593          	slli	a1,a5,0x10
    2570:	0105d593          	srli	a1,a1,0x10
    2574:	00bf65b3          	or	a1,t5,a1
    2578:	00088793          	mv	a5,a7
    257c:	0105fe63          	bgeu	a1,a6,2598 <__umoddi3+0x364>
    2580:	00d585b3          	add	a1,a1,a3
    2584:	fff88793          	addi	a5,a7,-1 # ffffff <__C_STACK_TOP__+0xfeffff>
    2588:	00d5e863          	bltu	a1,a3,2598 <__umoddi3+0x364>
    258c:	0105f663          	bgeu	a1,a6,2598 <__umoddi3+0x364>
    2590:	ffe88793          	addi	a5,a7,-2
    2594:	00d585b3          	add	a1,a1,a3
    2598:	01031313          	slli	t1,t1,0x10
    259c:	00010f37          	lui	t5,0x10
    25a0:	00f36333          	or	t1,t1,a5
    25a4:	ffff0793          	addi	a5,t5,-1 # ffff <__BSS_END__+0xa1ff>
    25a8:	00f378b3          	and	a7,t1,a5
    25ac:	410585b3          	sub	a1,a1,a6
    25b0:	01035313          	srli	t1,t1,0x10
    25b4:	01065813          	srli	a6,a2,0x10
    25b8:	00f677b3          	and	a5,a2,a5
    25bc:	02f88733          	mul	a4,a7,a5
    25c0:	02f307b3          	mul	a5,t1,a5
    25c4:	030888b3          	mul	a7,a7,a6
    25c8:	03030333          	mul	t1,t1,a6
    25cc:	00f888b3          	add	a7,a7,a5
    25d0:	01075813          	srli	a6,a4,0x10
    25d4:	01180833          	add	a6,a6,a7
    25d8:	00f87463          	bgeu	a6,a5,25e0 <__umoddi3+0x3ac>
    25dc:	01e30333          	add	t1,t1,t5
    25e0:	01085793          	srli	a5,a6,0x10
    25e4:	00678333          	add	t1,a5,t1
    25e8:	000107b7          	lui	a5,0x10
    25ec:	fff78793          	addi	a5,a5,-1 # ffff <__BSS_END__+0xa1ff>
    25f0:	00f87833          	and	a6,a6,a5
    25f4:	01081813          	slli	a6,a6,0x10
    25f8:	00f77733          	and	a4,a4,a5
    25fc:	00e80733          	add	a4,a6,a4
    2600:	0065e663          	bltu	a1,t1,260c <__umoddi3+0x3d8>
    2604:	00659e63          	bne	a1,t1,2620 <__umoddi3+0x3ec>
    2608:	00e57c63          	bgeu	a0,a4,2620 <__umoddi3+0x3ec>
    260c:	40c70633          	sub	a2,a4,a2
    2610:	00c73733          	sltu	a4,a4,a2
    2614:	00d70733          	add	a4,a4,a3
    2618:	40e30333          	sub	t1,t1,a4
    261c:	00060713          	mv	a4,a2
    2620:	40e50733          	sub	a4,a0,a4
    2624:	00e53533          	sltu	a0,a0,a4
    2628:	406585b3          	sub	a1,a1,t1
    262c:	40a585b3          	sub	a1,a1,a0
    2630:	01d597b3          	sll	a5,a1,t4
    2634:	01c75733          	srl	a4,a4,t3
    2638:	00e7e533          	or	a0,a5,a4
    263c:	01c5d5b3          	srl	a1,a1,t3
    2640:	cd1ff06f          	j	2310 <__umoddi3+0xdc>
	...

Disassembly of section .rodata:

00002660 <_ctype_-0x158>:
    2660:	050c                	addi	a1,sp,640
    2662:	0000                	unimp
    2664:	09f4                	addi	a3,sp,220
    2666:	0000                	unimp
    2668:	09dc                	addi	a5,sp,212
    266a:	0000                	unimp
    266c:	09f4                	addi	a3,sp,220
    266e:	0000                	unimp
    2670:	09f4                	addi	a3,sp,220
    2672:	0000                	unimp
    2674:	09f4                	addi	a3,sp,220
    2676:	0000                	unimp
    2678:	09f4                	addi	a3,sp,220
    267a:	0000                	unimp
    267c:	09e6                	slli	s3,s3,0x19
    267e:	0000                	unimp
    2680:	09f4                	addi	a3,sp,220
    2682:	0000                	unimp
    2684:	09f4                	addi	a3,sp,220
    2686:	0000                	unimp
    2688:	050a                	slli	a0,a0,0x2
    268a:	0000                	unimp
    268c:	07ee                	slli	a5,a5,0x1b
    268e:	0000                	unimp
    2690:	09f4                	addi	a3,sp,220
    2692:	0000                	unimp
    2694:	050a                	slli	a0,a0,0x2
    2696:	0000                	unimp
    2698:	0802                	c.slli64	a6
    269a:	0000                	unimp
    269c:	0802                	c.slli64	a6
    269e:	0000                	unimp
    26a0:	0802                	c.slli64	a6
    26a2:	0000                	unimp
    26a4:	0802                	c.slli64	a6
    26a6:	0000                	unimp
    26a8:	0802                	c.slli64	a6
    26aa:	0000                	unimp
    26ac:	0802                	c.slli64	a6
    26ae:	0000                	unimp
    26b0:	0802                	c.slli64	a6
    26b2:	0000                	unimp
    26b4:	0802                	c.slli64	a6
    26b6:	0000                	unimp
    26b8:	0802                	c.slli64	a6
    26ba:	0000                	unimp
    26bc:	09f4                	addi	a3,sp,220
    26be:	0000                	unimp
    26c0:	09f4                	addi	a3,sp,220
    26c2:	0000                	unimp
    26c4:	09f4                	addi	a3,sp,220
    26c6:	0000                	unimp
    26c8:	09f4                	addi	a3,sp,220
    26ca:	0000                	unimp
    26cc:	09f4                	addi	a3,sp,220
    26ce:	0000                	unimp
    26d0:	09f4                	addi	a3,sp,220
    26d2:	0000                	unimp
    26d4:	09f4                	addi	a3,sp,220
    26d6:	0000                	unimp
    26d8:	09f4                	addi	a3,sp,220
    26da:	0000                	unimp
    26dc:	09f4                	addi	a3,sp,220
    26de:	0000                	unimp
    26e0:	09f4                	addi	a3,sp,220
    26e2:	0000                	unimp
    26e4:	09f4                	addi	a3,sp,220
    26e6:	0000                	unimp
    26e8:	09f4                	addi	a3,sp,220
    26ea:	0000                	unimp
    26ec:	09f4                	addi	a3,sp,220
    26ee:	0000                	unimp
    26f0:	09f4                	addi	a3,sp,220
    26f2:	0000                	unimp
    26f4:	09f4                	addi	a3,sp,220
    26f6:	0000                	unimp
    26f8:	09f4                	addi	a3,sp,220
    26fa:	0000                	unimp
    26fc:	09f4                	addi	a3,sp,220
    26fe:	0000                	unimp
    2700:	09f4                	addi	a3,sp,220
    2702:	0000                	unimp
    2704:	09f4                	addi	a3,sp,220
    2706:	0000                	unimp
    2708:	09f4                	addi	a3,sp,220
    270a:	0000                	unimp
    270c:	09f4                	addi	a3,sp,220
    270e:	0000                	unimp
    2710:	09f4                	addi	a3,sp,220
    2712:	0000                	unimp
    2714:	09f4                	addi	a3,sp,220
    2716:	0000                	unimp
    2718:	09f4                	addi	a3,sp,220
    271a:	0000                	unimp
    271c:	09f4                	addi	a3,sp,220
    271e:	0000                	unimp
    2720:	09f4                	addi	a3,sp,220
    2722:	0000                	unimp
    2724:	09f4                	addi	a3,sp,220
    2726:	0000                	unimp
    2728:	09f4                	addi	a3,sp,220
    272a:	0000                	unimp
    272c:	09f4                	addi	a3,sp,220
    272e:	0000                	unimp
    2730:	09f4                	addi	a3,sp,220
    2732:	0000                	unimp
    2734:	0844                	addi	s1,sp,20
    2736:	0000                	unimp
    2738:	09f4                	addi	a3,sp,220
    273a:	0000                	unimp
    273c:	09f4                	addi	a3,sp,220
    273e:	0000                	unimp
    2740:	09f4                	addi	a3,sp,220
    2742:	0000                	unimp
    2744:	09f4                	addi	a3,sp,220
    2746:	0000                	unimp
    2748:	09f4                	addi	a3,sp,220
    274a:	0000                	unimp
    274c:	09f4                	addi	a3,sp,220
    274e:	0000                	unimp
    2750:	09f4                	addi	a3,sp,220
    2752:	0000                	unimp
    2754:	09f4                	addi	a3,sp,220
    2756:	0000                	unimp
    2758:	09f4                	addi	a3,sp,220
    275a:	0000                	unimp
    275c:	09f4                	addi	a3,sp,220
    275e:	0000                	unimp
    2760:	0866                	slli	a6,a6,0x19
    2762:	0000                	unimp
    2764:	0872                	slli	a6,a6,0x1c
    2766:	0000                	unimp
    2768:	09f4                	addi	a3,sp,220
    276a:	0000                	unimp
    276c:	0478                	addi	a4,sp,524
    276e:	0000                	unimp
    2770:	09f4                	addi	a3,sp,220
    2772:	0000                	unimp
    2774:	09f4                	addi	a3,sp,220
    2776:	0000                	unimp
    2778:	09f4                	addi	a3,sp,220
    277a:	0000                	unimp
    277c:	09f4                	addi	a3,sp,220
    277e:	0000                	unimp
    2780:	09f4                	addi	a3,sp,220
    2782:	0000                	unimp
    2784:	08a8                	addi	a0,sp,88
    2786:	0000                	unimp
    2788:	09f4                	addi	a3,sp,220
    278a:	0000                	unimp
    278c:	09f4                	addi	a3,sp,220
    278e:	0000                	unimp
    2790:	08b2                	slli	a7,a7,0xc
    2792:	0000                	unimp
    2794:	08b8                	addi	a4,sp,88
    2796:	0000                	unimp
    2798:	09f4                	addi	a3,sp,220
    279a:	0000                	unimp
    279c:	09f4                	addi	a3,sp,220
    279e:	0000                	unimp
    27a0:	08e0                	addi	s0,sp,92
    27a2:	0000                	unimp
    27a4:	09f4                	addi	a3,sp,220
    27a6:	0000                	unimp
    27a8:	0514                	addi	a3,sp,640
    27aa:	0000                	unimp
    27ac:	09f4                	addi	a3,sp,220
    27ae:	0000                	unimp
    27b0:	09f4                	addi	a3,sp,220
    27b2:	0000                	unimp
    27b4:	085a                	slli	a6,a6,0x16
	...

000027b8 <_ctype_>:
    27b8:	2000                	fld	fs0,0(s0)
    27ba:	2020                	fld	fs0,64(s0)
    27bc:	2020                	fld	fs0,64(s0)
    27be:	2020                	fld	fs0,64(s0)
    27c0:	2020                	fld	fs0,64(s0)
    27c2:	2828                	fld	fa0,80(s0)
    27c4:	2828                	fld	fa0,80(s0)
    27c6:	2028                	fld	fa0,64(s0)
    27c8:	2020                	fld	fs0,64(s0)
    27ca:	2020                	fld	fs0,64(s0)
    27cc:	2020                	fld	fs0,64(s0)
    27ce:	2020                	fld	fs0,64(s0)
    27d0:	2020                	fld	fs0,64(s0)
    27d2:	2020                	fld	fs0,64(s0)
    27d4:	2020                	fld	fs0,64(s0)
    27d6:	2020                	fld	fs0,64(s0)
    27d8:	8820                	0x8820
    27da:	1010                	addi	a2,sp,32
    27dc:	1010                	addi	a2,sp,32
    27de:	1010                	addi	a2,sp,32
    27e0:	1010                	addi	a2,sp,32
    27e2:	1010                	addi	a2,sp,32
    27e4:	1010                	addi	a2,sp,32
    27e6:	1010                	addi	a2,sp,32
    27e8:	0410                	addi	a2,sp,512
    27ea:	0404                	addi	s1,sp,512
    27ec:	0404                	addi	s1,sp,512
    27ee:	0404                	addi	s1,sp,512
    27f0:	0404                	addi	s1,sp,512
    27f2:	1004                	addi	s1,sp,32
    27f4:	1010                	addi	a2,sp,32
    27f6:	1010                	addi	a2,sp,32
    27f8:	1010                	addi	a2,sp,32
    27fa:	4141                	li	sp,16
    27fc:	4141                	li	sp,16
    27fe:	4141                	li	sp,16
    2800:	0101                	addi	sp,sp,0
    2802:	0101                	addi	sp,sp,0
    2804:	0101                	addi	sp,sp,0
    2806:	0101                	addi	sp,sp,0
    2808:	0101                	addi	sp,sp,0
    280a:	0101                	addi	sp,sp,0
    280c:	0101                	addi	sp,sp,0
    280e:	0101                	addi	sp,sp,0
    2810:	0101                	addi	sp,sp,0
    2812:	0101                	addi	sp,sp,0
    2814:	1010                	addi	a2,sp,32
    2816:	1010                	addi	a2,sp,32
    2818:	1010                	addi	a2,sp,32
    281a:	4242                	lw	tp,16(sp)
    281c:	4242                	lw	tp,16(sp)
    281e:	4242                	lw	tp,16(sp)
    2820:	0202                	c.slli64	tp
    2822:	0202                	c.slli64	tp
    2824:	0202                	c.slli64	tp
    2826:	0202                	c.slli64	tp
    2828:	0202                	c.slli64	tp
    282a:	0202                	c.slli64	tp
    282c:	0202                	c.slli64	tp
    282e:	0202                	c.slli64	tp
    2830:	0202                	c.slli64	tp
    2832:	0202                	c.slli64	tp
    2834:	1010                	addi	a2,sp,32
    2836:	1010                	addi	a2,sp,32
    2838:	0020                	addi	s0,sp,8
	...

000028bc <__clz_tab>:
    28bc:	0100                	addi	s0,sp,128
    28be:	0202                	c.slli64	tp
    28c0:	03030303          	lb	t1,48(t1)
    28c4:	0404                	addi	s1,sp,512
    28c6:	0404                	addi	s1,sp,512
    28c8:	0404                	addi	s1,sp,512
    28ca:	0404                	addi	s1,sp,512
    28cc:	0505                	addi	a0,a0,1
    28ce:	0505                	addi	a0,a0,1
    28d0:	0505                	addi	a0,a0,1
    28d2:	0505                	addi	a0,a0,1
    28d4:	0505                	addi	a0,a0,1
    28d6:	0505                	addi	a0,a0,1
    28d8:	0505                	addi	a0,a0,1
    28da:	0505                	addi	a0,a0,1
    28dc:	0606                	slli	a2,a2,0x1
    28de:	0606                	slli	a2,a2,0x1
    28e0:	0606                	slli	a2,a2,0x1
    28e2:	0606                	slli	a2,a2,0x1
    28e4:	0606                	slli	a2,a2,0x1
    28e6:	0606                	slli	a2,a2,0x1
    28e8:	0606                	slli	a2,a2,0x1
    28ea:	0606                	slli	a2,a2,0x1
    28ec:	0606                	slli	a2,a2,0x1
    28ee:	0606                	slli	a2,a2,0x1
    28f0:	0606                	slli	a2,a2,0x1
    28f2:	0606                	slli	a2,a2,0x1
    28f4:	0606                	slli	a2,a2,0x1
    28f6:	0606                	slli	a2,a2,0x1
    28f8:	0606                	slli	a2,a2,0x1
    28fa:	0606                	slli	a2,a2,0x1
    28fc:	07070707          	0x7070707
    2900:	07070707          	0x7070707
    2904:	07070707          	0x7070707
    2908:	07070707          	0x7070707
    290c:	07070707          	0x7070707
    2910:	07070707          	0x7070707
    2914:	07070707          	0x7070707
    2918:	07070707          	0x7070707
    291c:	07070707          	0x7070707
    2920:	07070707          	0x7070707
    2924:	07070707          	0x7070707
    2928:	07070707          	0x7070707
    292c:	07070707          	0x7070707
    2930:	07070707          	0x7070707
    2934:	07070707          	0x7070707
    2938:	07070707          	0x7070707
    293c:	0808                	addi	a0,sp,16
    293e:	0808                	addi	a0,sp,16
    2940:	0808                	addi	a0,sp,16
    2942:	0808                	addi	a0,sp,16
    2944:	0808                	addi	a0,sp,16
    2946:	0808                	addi	a0,sp,16
    2948:	0808                	addi	a0,sp,16
    294a:	0808                	addi	a0,sp,16
    294c:	0808                	addi	a0,sp,16
    294e:	0808                	addi	a0,sp,16
    2950:	0808                	addi	a0,sp,16
    2952:	0808                	addi	a0,sp,16
    2954:	0808                	addi	a0,sp,16
    2956:	0808                	addi	a0,sp,16
    2958:	0808                	addi	a0,sp,16
    295a:	0808                	addi	a0,sp,16
    295c:	0808                	addi	a0,sp,16
    295e:	0808                	addi	a0,sp,16
    2960:	0808                	addi	a0,sp,16
    2962:	0808                	addi	a0,sp,16
    2964:	0808                	addi	a0,sp,16
    2966:	0808                	addi	a0,sp,16
    2968:	0808                	addi	a0,sp,16
    296a:	0808                	addi	a0,sp,16
    296c:	0808                	addi	a0,sp,16
    296e:	0808                	addi	a0,sp,16
    2970:	0808                	addi	a0,sp,16
    2972:	0808                	addi	a0,sp,16
    2974:	0808                	addi	a0,sp,16
    2976:	0808                	addi	a0,sp,16
    2978:	0808                	addi	a0,sp,16
    297a:	0808                	addi	a0,sp,16
    297c:	0808                	addi	a0,sp,16
    297e:	0808                	addi	a0,sp,16
    2980:	0808                	addi	a0,sp,16
    2982:	0808                	addi	a0,sp,16
    2984:	0808                	addi	a0,sp,16
    2986:	0808                	addi	a0,sp,16
    2988:	0808                	addi	a0,sp,16
    298a:	0808                	addi	a0,sp,16
    298c:	0808                	addi	a0,sp,16
    298e:	0808                	addi	a0,sp,16
    2990:	0808                	addi	a0,sp,16
    2992:	0808                	addi	a0,sp,16
    2994:	0808                	addi	a0,sp,16
    2996:	0808                	addi	a0,sp,16
    2998:	0808                	addi	a0,sp,16
    299a:	0808                	addi	a0,sp,16
    299c:	0808                	addi	a0,sp,16
    299e:	0808                	addi	a0,sp,16
    29a0:	0808                	addi	a0,sp,16
    29a2:	0808                	addi	a0,sp,16
    29a4:	0808                	addi	a0,sp,16
    29a6:	0808                	addi	a0,sp,16
    29a8:	0808                	addi	a0,sp,16
    29aa:	0808                	addi	a0,sp,16
    29ac:	0808                	addi	a0,sp,16
    29ae:	0808                	addi	a0,sp,16
    29b0:	0808                	addi	a0,sp,16
    29b2:	0808                	addi	a0,sp,16
    29b4:	0808                	addi	a0,sp,16
    29b6:	0808                	addi	a0,sp,16
    29b8:	0808                	addi	a0,sp,16
    29ba:	0808                	addi	a0,sp,16

Disassembly of section .rodata.str1.4:

000029bc <.rodata.str1.4>:
    29bc:	6e28                	flw	fa0,88(a2)
    29be:	6c75                	lui	s8,0x1d
    29c0:	296c                	fld	fa1,208(a0)
    29c2:	0000                	unimp
    29c4:	4844                	lw	s1,20(s0)
    29c6:	5952                	lw	s2,52(sp)
    29c8:	4e4f5453          	0x4e4f5453
    29cc:	2045                	jal	2a6c <__clz_tab+0x1b0>
    29ce:	5250                	lw	a2,36(a2)
    29d0:	4152474f          	fnmadd.s	fa4,ft4,fs5,fs0,rmm
    29d4:	2c4d                	jal	2c86 <__clz_tab+0x3ca>
    29d6:	5320                	lw	s0,96(a4)
    29d8:	20454d4f          	fnmadd.s	fs10,fa0,ft4,ft4,rmm
    29dc:	49525453          	0x49525453
    29e0:	474e                	lw	a4,208(sp)
    29e2:	0000                	unimp
    29e4:	6844                	flw	fs1,20(s0)
    29e6:	7972                	flw	fs2,60(sp)
    29e8:	6e6f7473          	csrrci	s0,0x6e6,30
    29ec:	2065                	jal	2a94 <__clz_tab+0x1d8>
    29ee:	6542                	flw	fa0,16(sp)
    29f0:	636e                	flw	ft6,216(sp)
    29f2:	6d68                	flw	fa0,92(a0)
    29f4:	7261                	lui	tp,0xffff8
    29f6:	56202c6b          	0x56202c6b
    29fa:	7265                	lui	tp,0xffff9
    29fc:	6e6f6973          	csrrsi	s2,0x6e6,30
    2a00:	3220                	fld	fs0,96(a2)
    2a02:	312e                	fld	ft2,232(sp)
    2a04:	2820                	fld	fs0,80(s0)
    2a06:	614c                	flw	fa1,4(a0)
    2a08:	676e                	flw	fa4,216(sp)
    2a0a:	6175                	addi	sp,sp,368
    2a0c:	203a6567          	0x203a6567
    2a10:	000a2943          	fmadd.s	fs2,fs4,ft0,ft0,rdn
    2a14:	7250                	flw	fa2,36(a2)
    2a16:	6172676f          	jal	a4,2982c <__C_STACK_TOP__+0x1982c>
    2a1a:	206d                	jal	2ac4 <__clz_tab+0x208>
    2a1c:	706d6f63          	bltu	s10,t1,313a <impure_data+0x18a>
    2a20:	6c69                	lui	s8,0x1a
    2a22:	6465                	lui	s0,0x19
    2a24:	7720                	flw	fs0,104(a4)
    2a26:	7469                	lui	s0,0xffffa
    2a28:	6f68                	flw	fa0,92(a4)
    2a2a:	7475                	lui	s0,0xffffd
    2a2c:	2720                	fld	fs0,72(a4)
    2a2e:	6572                	flw	fa0,28(sp)
    2a30:	74736967          	0x74736967
    2a34:	7265                	lui	tp,0xffff9
    2a36:	74612027          	fsw	ft6,1856(sp)
    2a3a:	7274                	flw	fa3,100(a2)
    2a3c:	6269                	lui	tp,0x1a
    2a3e:	7475                	lui	s0,0xffffd
    2a40:	0a65                	addi	s4,s4,25
    2a42:	0000                	unimp
    2a44:	7845                	lui	a6,0xffff1
    2a46:	6365                	lui	t1,0x19
    2a48:	7475                	lui	s0,0xffffd
    2a4a:	6f69                	lui	t5,0x1a
    2a4c:	206e                	fld	ft0,216(sp)
    2a4e:	72617473          	csrrci	s0,0x726,2
    2a52:	7374                	flw	fa3,100(a4)
    2a54:	202c                	fld	fa1,64(s0)
    2a56:	6425                	lui	s0,0x9
    2a58:	7220                	flw	fs0,96(a2)
    2a5a:	6e75                	lui	t3,0x1d
    2a5c:	68742073          	csrs	0x687,s0
    2a60:	6f72                	flw	ft10,28(sp)
    2a62:	6775                	lui	a4,0x1d
    2a64:	2068                	fld	fa0,192(s0)
    2a66:	6844                	flw	fs1,20(s0)
    2a68:	7972                	flw	fs2,60(sp)
    2a6a:	6e6f7473          	csrrci	s0,0x6e6,30
    2a6e:	0a65                	addi	s4,s4,25
    2a70:	0000                	unimp
    2a72:	0000                	unimp
    2a74:	7845                	lui	a6,0xffff1
    2a76:	6365                	lui	t1,0x19
    2a78:	7475                	lui	s0,0xffffd
    2a7a:	6f69                	lui	t5,0x1a
    2a7c:	206e                	fld	ft0,216(sp)
    2a7e:	6e65                	lui	t3,0x19
    2a80:	7364                	flw	fs1,100(a4)
    2a82:	000a                	c.slli	zero,0x2
    2a84:	6946                	flw	fs2,80(sp)
    2a86:	616e                	flw	ft2,216(sp)
    2a88:	206c                	fld	fa1,192(s0)
    2a8a:	6176                	flw	ft2,92(sp)
    2a8c:	756c                	flw	fa1,108(a0)
    2a8e:	7365                	lui	t1,0xffff9
    2a90:	6f20                	flw	fs0,88(a4)
    2a92:	2066                	fld	ft0,88(sp)
    2a94:	6874                	flw	fa3,84(s0)
    2a96:	2065                	jal	2b3e <__clz_tab+0x282>
    2a98:	6176                	flw	ft2,92(sp)
    2a9a:	6972                	flw	fs2,28(sp)
    2a9c:	6261                	lui	tp,0x18
    2a9e:	656c                	flw	fa1,76(a0)
    2aa0:	73752073          	csrs	0x737,a0
    2aa4:	6465                	lui	s0,0x19
    2aa6:	6920                	flw	fs0,80(a0)
    2aa8:	206e                	fld	ft0,216(sp)
    2aaa:	6874                	flw	fa3,84(s0)
    2aac:	2065                	jal	2b54 <__clz_tab+0x298>
    2aae:	6562                	flw	fa0,24(sp)
    2ab0:	636e                	flw	ft6,216(sp)
    2ab2:	6d68                	flw	fa0,92(a0)
    2ab4:	7261                	lui	tp,0xffff8
    2ab6:	000a3a6b          	0xa3a6b
    2aba:	0000                	unimp
    2abc:	6e49                	lui	t3,0x12
    2abe:	5f74                	lw	a3,124(a4)
    2ac0:	626f6c47          	fmsub.d	fs8,ft10,ft6,fa2,unknown
    2ac4:	203a                	fld	ft0,392(sp)
    2ac6:	2020                	fld	fs0,64(s0)
    2ac8:	2020                	fld	fs0,64(s0)
    2aca:	2020                	fld	fs0,64(s0)
    2acc:	2020                	fld	fs0,64(s0)
    2ace:	2020                	fld	fs0,64(s0)
    2ad0:	2520                	fld	fs0,72(a0)
    2ad2:	0a64                	addi	s1,sp,284
    2ad4:	0000                	unimp
    2ad6:	0000                	unimp
    2ad8:	2020                	fld	fs0,64(s0)
    2ada:	2020                	fld	fs0,64(s0)
    2adc:	2020                	fld	fs0,64(s0)
    2ade:	2020                	fld	fs0,64(s0)
    2ae0:	756f6873          	csrrsi	a6,0x756,30
    2ae4:	646c                	flw	fa1,76(s0)
    2ae6:	6220                	flw	fs0,64(a2)
    2ae8:	3a65                	jal	24a0 <__umoddi3+0x26c>
    2aea:	2020                	fld	fs0,64(s0)
    2aec:	2520                	fld	fs0,72(a0)
    2aee:	0a64                	addi	s1,sp,284
    2af0:	0000                	unimp
    2af2:	0000                	unimp
    2af4:	6f42                	flw	ft10,16(sp)
    2af6:	475f6c6f          	jal	s8,f976a <__C_STACK_TOP__+0xe976a>
    2afa:	6f6c                	flw	fa1,92(a4)
    2afc:	3a62                	fld	fs4,56(sp)
    2afe:	2020                	fld	fs0,64(s0)
    2b00:	2020                	fld	fs0,64(s0)
    2b02:	2020                	fld	fs0,64(s0)
    2b04:	2020                	fld	fs0,64(s0)
    2b06:	2020                	fld	fs0,64(s0)
    2b08:	2520                	fld	fs0,72(a0)
    2b0a:	0a64                	addi	s1,sp,284
    2b0c:	0000                	unimp
    2b0e:	0000                	unimp
    2b10:	315f6843          	fmadd.s	fa6,ft10,fs5,ft6,unknown
    2b14:	475f 6f6c 3a62      	0x3a626f6c475f
    2b1a:	2020                	fld	fs0,64(s0)
    2b1c:	2020                	fld	fs0,64(s0)
    2b1e:	2020                	fld	fs0,64(s0)
    2b20:	2020                	fld	fs0,64(s0)
    2b22:	2020                	fld	fs0,64(s0)
    2b24:	2520                	fld	fs0,72(a0)
    2b26:	00000a63          	beqz	zero,2b3a <__clz_tab+0x27e>
    2b2a:	0000                	unimp
    2b2c:	2020                	fld	fs0,64(s0)
    2b2e:	2020                	fld	fs0,64(s0)
    2b30:	2020                	fld	fs0,64(s0)
    2b32:	2020                	fld	fs0,64(s0)
    2b34:	756f6873          	csrrsi	a6,0x756,30
    2b38:	646c                	flw	fa1,76(s0)
    2b3a:	6220                	flw	fs0,64(a2)
    2b3c:	3a65                	jal	24f4 <__umoddi3+0x2c0>
    2b3e:	2020                	fld	fs0,64(s0)
    2b40:	2520                	fld	fs0,72(a0)
    2b42:	00000a63          	beqz	zero,2b56 <__clz_tab+0x29a>
    2b46:	0000                	unimp
    2b48:	325f6843          	fmadd.d	fa6,ft10,ft5,ft6,unknown
    2b4c:	475f 6f6c 3a62      	0x3a626f6c475f
    2b52:	2020                	fld	fs0,64(s0)
    2b54:	2020                	fld	fs0,64(s0)
    2b56:	2020                	fld	fs0,64(s0)
    2b58:	2020                	fld	fs0,64(s0)
    2b5a:	2020                	fld	fs0,64(s0)
    2b5c:	2520                	fld	fs0,72(a0)
    2b5e:	00000a63          	beqz	zero,2b72 <__clz_tab+0x2b6>
    2b62:	0000                	unimp
    2b64:	7241                	lui	tp,0xffff0
    2b66:	5f72                	lw	t5,60(sp)
    2b68:	5f31                	li	t5,-20
    2b6a:	626f6c47          	fmsub.d	fs8,ft10,ft6,fa2,unknown
    2b6e:	3a5d385b          	0x3a5d385b
    2b72:	2020                	fld	fs0,64(s0)
    2b74:	2020                	fld	fs0,64(s0)
    2b76:	2020                	fld	fs0,64(s0)
    2b78:	2520                	fld	fs0,72(a0)
    2b7a:	0a64                	addi	s1,sp,284
    2b7c:	0000                	unimp
    2b7e:	0000                	unimp
    2b80:	7241                	lui	tp,0xffff0
    2b82:	5f72                	lw	t5,60(sp)
    2b84:	5f32                	lw	t5,44(sp)
    2b86:	626f6c47          	fmsub.d	fs8,ft10,ft6,fa2,unknown
    2b8a:	5b5d385b          	0x5b5d385b
    2b8e:	203a5d37          	lui	s10,0x203a5
    2b92:	2020                	fld	fs0,64(s0)
    2b94:	2520                	fld	fs0,72(a0)
    2b96:	0a64                	addi	s1,sp,284
    2b98:	0000                	unimp
    2b9a:	0000                	unimp
    2b9c:	2020                	fld	fs0,64(s0)
    2b9e:	2020                	fld	fs0,64(s0)
    2ba0:	2020                	fld	fs0,64(s0)
    2ba2:	2020                	fld	fs0,64(s0)
    2ba4:	756f6873          	csrrsi	a6,0x756,30
    2ba8:	646c                	flw	fa1,76(s0)
    2baa:	6220                	flw	fs0,64(a2)
    2bac:	3a65                	jal	2564 <__umoddi3+0x330>
    2bae:	2020                	fld	fs0,64(s0)
    2bb0:	4e20                	lw	s0,88(a2)
    2bb2:	6d75                	lui	s10,0x1d
    2bb4:	6562                	flw	fa0,24(sp)
    2bb6:	5f72                	lw	t5,60(sp)
    2bb8:	525f664f          	fnmadd.d	fa2,ft10,ft5,fa0,unknown
    2bbc:	6e75                	lui	t3,0x1d
    2bbe:	202b2073          	csrs	hedeleg,s6
    2bc2:	3031                	jal	23ce <__umoddi3+0x19a>
    2bc4:	000a                	c.slli	zero,0x2
    2bc6:	0000                	unimp
    2bc8:	7450                	flw	fa2,44(s0)
    2bca:	5f72                	lw	t5,60(sp)
    2bcc:	626f6c47          	fmsub.d	fs8,ft10,ft6,fa2,unknown
    2bd0:	3e2d                	jal	270a <__umoddi3+0x4d6>
    2bd2:	000a                	c.slli	zero,0x2
    2bd4:	2020                	fld	fs0,64(s0)
    2bd6:	7450                	flw	fa2,44(s0)
    2bd8:	5f72                	lw	t5,60(sp)
    2bda:	706d6f43          	fmadd.s	ft10,fs10,ft6,fa4,unknown
    2bde:	203a                	fld	ft0,392(sp)
    2be0:	2020                	fld	fs0,64(s0)
    2be2:	2020                	fld	fs0,64(s0)
    2be4:	2020                	fld	fs0,64(s0)
    2be6:	2020                	fld	fs0,64(s0)
    2be8:	2520                	fld	fs0,72(a0)
    2bea:	0a64                	addi	s1,sp,284
    2bec:	0000                	unimp
    2bee:	0000                	unimp
    2bf0:	2020                	fld	fs0,64(s0)
    2bf2:	2020                	fld	fs0,64(s0)
    2bf4:	2020                	fld	fs0,64(s0)
    2bf6:	2020                	fld	fs0,64(s0)
    2bf8:	756f6873          	csrrsi	a6,0x756,30
    2bfc:	646c                	flw	fa1,76(s0)
    2bfe:	6220                	flw	fs0,64(a2)
    2c00:	3a65                	jal	25b8 <__umoddi3+0x384>
    2c02:	2020                	fld	fs0,64(s0)
    2c04:	2820                	fld	fs0,80(s0)
    2c06:	6d69                	lui	s10,0x1a
    2c08:	6c70                	flw	fa2,92(s0)
    2c0a:	6d65                	lui	s10,0x19
    2c0c:	6e65                	lui	t3,0x19
    2c0e:	6174                	flw	fa3,68(a0)
    2c10:	6974                	flw	fa3,84(a0)
    2c12:	642d6e6f          	jal	t3,d9254 <__C_STACK_TOP__+0xc9254>
    2c16:	7065                	c.lui	zero,0xffff9
    2c18:	6e65                	lui	t3,0x19
    2c1a:	6564                	flw	fs1,76(a0)
    2c1c:	746e                	flw	fs0,248(sp)
    2c1e:	0a29                	addi	s4,s4,10
    2c20:	0000                	unimp
    2c22:	0000                	unimp
    2c24:	2020                	fld	fs0,64(s0)
    2c26:	6944                	flw	fs1,20(a0)
    2c28:	3a726373          	csrrsi	t1,0x3a7,4
    2c2c:	2020                	fld	fs0,64(s0)
    2c2e:	2020                	fld	fs0,64(s0)
    2c30:	2020                	fld	fs0,64(s0)
    2c32:	2020                	fld	fs0,64(s0)
    2c34:	2020                	fld	fs0,64(s0)
    2c36:	2020                	fld	fs0,64(s0)
    2c38:	2520                	fld	fs0,72(a0)
    2c3a:	0a64                	addi	s1,sp,284
    2c3c:	0000                	unimp
    2c3e:	0000                	unimp
    2c40:	2020                	fld	fs0,64(s0)
    2c42:	6e45                	lui	t3,0x11
    2c44:	6d75                	lui	s10,0x1d
    2c46:	435f 6d6f 3a70      	0x3a706d6f435f
    2c4c:	2020                	fld	fs0,64(s0)
    2c4e:	2020                	fld	fs0,64(s0)
    2c50:	2020                	fld	fs0,64(s0)
    2c52:	2020                	fld	fs0,64(s0)
    2c54:	2520                	fld	fs0,72(a0)
    2c56:	0a64                	addi	s1,sp,284
    2c58:	0000                	unimp
    2c5a:	0000                	unimp
    2c5c:	2020                	fld	fs0,64(s0)
    2c5e:	6e49                	lui	t3,0x12
    2c60:	5f74                	lw	a3,124(a4)
    2c62:	706d6f43          	fmadd.s	ft10,fs10,ft6,fa4,unknown
    2c66:	203a                	fld	ft0,392(sp)
    2c68:	2020                	fld	fs0,64(s0)
    2c6a:	2020                	fld	fs0,64(s0)
    2c6c:	2020                	fld	fs0,64(s0)
    2c6e:	2020                	fld	fs0,64(s0)
    2c70:	2520                	fld	fs0,72(a0)
    2c72:	0a64                	addi	s1,sp,284
    2c74:	0000                	unimp
    2c76:	0000                	unimp
    2c78:	2020                	fld	fs0,64(s0)
    2c7a:	5f727453          	0x5f727453
    2c7e:	706d6f43          	fmadd.s	ft10,fs10,ft6,fa4,unknown
    2c82:	203a                	fld	ft0,392(sp)
    2c84:	2020                	fld	fs0,64(s0)
    2c86:	2020                	fld	fs0,64(s0)
    2c88:	2020                	fld	fs0,64(s0)
    2c8a:	2020                	fld	fs0,64(s0)
    2c8c:	2520                	fld	fs0,72(a0)
    2c8e:	00000a73          	0xa73
    2c92:	0000                	unimp
    2c94:	2020                	fld	fs0,64(s0)
    2c96:	2020                	fld	fs0,64(s0)
    2c98:	2020                	fld	fs0,64(s0)
    2c9a:	2020                	fld	fs0,64(s0)
    2c9c:	756f6873          	csrrsi	a6,0x756,30
    2ca0:	646c                	flw	fa1,76(s0)
    2ca2:	6220                	flw	fs0,64(a2)
    2ca4:	3a65                	jal	265c <__umoddi3+0x428>
    2ca6:	2020                	fld	fs0,64(s0)
    2ca8:	4420                	lw	s0,72(s0)
    2caa:	5248                	lw	a0,36(a2)
    2cac:	5359                	li	t1,-10
    2cae:	4f54                	lw	a3,28(a4)
    2cb0:	454e                	lw	a0,208(sp)
    2cb2:	5020                	lw	s0,96(s0)
    2cb4:	4f52                	lw	t5,20(sp)
    2cb6:	4d415247          	0x4d415247
    2cba:	202c                	fld	fa1,64(s0)
    2cbc:	454d4f53          	0x454d4f53
    2cc0:	5320                	lw	s0,96(a4)
    2cc2:	5254                	lw	a3,36(a2)
    2cc4:	4e49                	li	t3,18
    2cc6:	00000a47          	fmsub.s	fs4,ft0,ft0,ft0,rne
    2cca:	0000                	unimp
    2ccc:	654e                	flw	fa0,208(sp)
    2cce:	7478                	flw	fa4,108(s0)
    2cd0:	505f 7274 475f      	0x475f7274505f
    2cd6:	6f6c                	flw	fa1,92(a4)
    2cd8:	2d62                	fld	fs10,24(sp)
    2cda:	0a3e                	slli	s4,s4,0xf
    2cdc:	0000                	unimp
    2cde:	0000                	unimp
    2ce0:	2020                	fld	fs0,64(s0)
    2ce2:	2020                	fld	fs0,64(s0)
    2ce4:	2020                	fld	fs0,64(s0)
    2ce6:	2020                	fld	fs0,64(s0)
    2ce8:	756f6873          	csrrsi	a6,0x756,30
    2cec:	646c                	flw	fa1,76(s0)
    2cee:	6220                	flw	fs0,64(a2)
    2cf0:	3a65                	jal	26a8 <__umoddi3+0x474>
    2cf2:	2020                	fld	fs0,64(s0)
    2cf4:	2820                	fld	fs0,80(s0)
    2cf6:	6d69                	lui	s10,0x1a
    2cf8:	6c70                	flw	fa2,92(s0)
    2cfa:	6d65                	lui	s10,0x19
    2cfc:	6e65                	lui	t3,0x19
    2cfe:	6174                	flw	fa3,68(a0)
    2d00:	6974                	flw	fa3,84(a0)
    2d02:	642d6e6f          	jal	t3,d9344 <__C_STACK_TOP__+0xc9344>
    2d06:	7065                	c.lui	zero,0xffff9
    2d08:	6e65                	lui	t3,0x19
    2d0a:	6564                	flw	fs1,76(a0)
    2d0c:	746e                	flw	fs0,248(sp)
    2d0e:	2c29                	jal	2f28 <__clz_tab+0x66c>
    2d10:	7320                	flw	fs0,96(a4)
    2d12:	6d61                	lui	s10,0x18
    2d14:	2065                	jal	2dbc <__clz_tab+0x500>
    2d16:	7361                	lui	t1,0xffff8
    2d18:	6120                	flw	fs0,64(a0)
    2d1a:	6f62                	flw	ft10,24(sp)
    2d1c:	6576                	flw	fa0,92(sp)
    2d1e:	000a                	c.slli	zero,0x2
    2d20:	6e49                	lui	t3,0x12
    2d22:	5f74                	lw	a3,124(a4)
    2d24:	5f31                	li	t5,-20
    2d26:	6f4c                	flw	fa1,28(a4)
    2d28:	20203a63          	0x20203a63
    2d2c:	2020                	fld	fs0,64(s0)
    2d2e:	2020                	fld	fs0,64(s0)
    2d30:	2020                	fld	fs0,64(s0)
    2d32:	2020                	fld	fs0,64(s0)
    2d34:	2520                	fld	fs0,72(a0)
    2d36:	0a64                	addi	s1,sp,284
    2d38:	0000                	unimp
    2d3a:	0000                	unimp
    2d3c:	6e49                	lui	t3,0x12
    2d3e:	5f74                	lw	a3,124(a4)
    2d40:	5f32                	lw	t5,44(sp)
    2d42:	6f4c                	flw	fa1,28(a4)
    2d44:	20203a63          	0x20203a63
    2d48:	2020                	fld	fs0,64(s0)
    2d4a:	2020                	fld	fs0,64(s0)
    2d4c:	2020                	fld	fs0,64(s0)
    2d4e:	2020                	fld	fs0,64(s0)
    2d50:	2520                	fld	fs0,72(a0)
    2d52:	0a64                	addi	s1,sp,284
    2d54:	0000                	unimp
    2d56:	0000                	unimp
    2d58:	6e49                	lui	t3,0x12
    2d5a:	5f74                	lw	a3,124(a4)
    2d5c:	6f4c5f33          	0x6f4c5f33
    2d60:	20203a63          	0x20203a63
    2d64:	2020                	fld	fs0,64(s0)
    2d66:	2020                	fld	fs0,64(s0)
    2d68:	2020                	fld	fs0,64(s0)
    2d6a:	2020                	fld	fs0,64(s0)
    2d6c:	2520                	fld	fs0,72(a0)
    2d6e:	0a64                	addi	s1,sp,284
    2d70:	0000                	unimp
    2d72:	0000                	unimp
    2d74:	6e45                	lui	t3,0x11
    2d76:	6d75                	lui	s10,0x1d
    2d78:	4c5f 636f 203a      	0x203a636f4c5f
    2d7e:	2020                	fld	fs0,64(s0)
    2d80:	2020                	fld	fs0,64(s0)
    2d82:	2020                	fld	fs0,64(s0)
    2d84:	2020                	fld	fs0,64(s0)
    2d86:	2020                	fld	fs0,64(s0)
    2d88:	2520                	fld	fs0,72(a0)
    2d8a:	0a64                	addi	s1,sp,284
    2d8c:	0000                	unimp
    2d8e:	0000                	unimp
    2d90:	5f727453          	0x5f727453
    2d94:	5f31                	li	t5,-20
    2d96:	6f4c                	flw	fa1,28(a4)
    2d98:	20203a63          	0x20203a63
    2d9c:	2020                	fld	fs0,64(s0)
    2d9e:	2020                	fld	fs0,64(s0)
    2da0:	2020                	fld	fs0,64(s0)
    2da2:	2020                	fld	fs0,64(s0)
    2da4:	2520                	fld	fs0,72(a0)
    2da6:	00000a73          	0xa73
    2daa:	0000                	unimp
    2dac:	2020                	fld	fs0,64(s0)
    2dae:	2020                	fld	fs0,64(s0)
    2db0:	2020                	fld	fs0,64(s0)
    2db2:	2020                	fld	fs0,64(s0)
    2db4:	756f6873          	csrrsi	a6,0x756,30
    2db8:	646c                	flw	fa1,76(s0)
    2dba:	6220                	flw	fs0,64(a2)
    2dbc:	3a65                	jal	2774 <__umoddi3+0x540>
    2dbe:	2020                	fld	fs0,64(s0)
    2dc0:	4420                	lw	s0,72(s0)
    2dc2:	5248                	lw	a0,36(a2)
    2dc4:	5359                	li	t1,-10
    2dc6:	4f54                	lw	a3,28(a4)
    2dc8:	454e                	lw	a0,208(sp)
    2dca:	5020                	lw	s0,96(s0)
    2dcc:	4f52                	lw	t5,20(sp)
    2dce:	4d415247          	0x4d415247
    2dd2:	202c                	fld	fa1,64(s0)
    2dd4:	2731                	jal	34e0 <__global_locale+0x108>
    2dd6:	53205453          	0x53205453
    2dda:	5254                	lw	a3,36(a2)
    2ddc:	4e49                	li	t3,18
    2dde:	00000a47          	fmsub.s	fs4,ft0,ft0,ft0,rne
    2de2:	0000                	unimp
    2de4:	5f727453          	0x5f727453
    2de8:	5f32                	lw	t5,44(sp)
    2dea:	6f4c                	flw	fa1,28(a4)
    2dec:	20203a63          	0x20203a63
    2df0:	2020                	fld	fs0,64(s0)
    2df2:	2020                	fld	fs0,64(s0)
    2df4:	2020                	fld	fs0,64(s0)
    2df6:	2020                	fld	fs0,64(s0)
    2df8:	2520                	fld	fs0,72(a0)
    2dfa:	00000a73          	0xa73
    2dfe:	0000                	unimp
    2e00:	2020                	fld	fs0,64(s0)
    2e02:	2020                	fld	fs0,64(s0)
    2e04:	2020                	fld	fs0,64(s0)
    2e06:	2020                	fld	fs0,64(s0)
    2e08:	756f6873          	csrrsi	a6,0x756,30
    2e0c:	646c                	flw	fa1,76(s0)
    2e0e:	6220                	flw	fs0,64(a2)
    2e10:	3a65                	jal	27c8 <_ctype_+0x10>
    2e12:	2020                	fld	fs0,64(s0)
    2e14:	4420                	lw	s0,72(s0)
    2e16:	5248                	lw	a0,36(a2)
    2e18:	5359                	li	t1,-10
    2e1a:	4f54                	lw	a3,28(a4)
    2e1c:	454e                	lw	a0,208(sp)
    2e1e:	5020                	lw	s0,96(s0)
    2e20:	4f52                	lw	t5,20(sp)
    2e22:	4d415247          	0x4d415247
    2e26:	202c                	fld	fa1,64(s0)
    2e28:	2732                	fld	fa4,264(sp)
    2e2a:	444e                	lw	s0,208(sp)
    2e2c:	5320                	lw	s0,96(a4)
    2e2e:	5254                	lw	a3,36(a2)
    2e30:	4e49                	li	t3,18
    2e32:	00000a47          	fmsub.s	fs4,ft0,ft0,ft0,rne
    2e36:	0000                	unimp
    2e38:	654d                	lui	a0,0x13
    2e3a:	7361                	lui	t1,0xffff8
    2e3c:	7275                	lui	tp,0xffffd
    2e3e:	6465                	lui	s0,0x19
    2e40:	7420                	flw	fs0,104(s0)
    2e42:	6d69                	lui	s10,0x1a
    2e44:	2065                	jal	2eec <__clz_tab+0x630>
    2e46:	6f74                	flw	fa3,92(a4)
    2e48:	6d73206f          	j	35d1e <__C_STACK_TOP__+0x25d1e>
    2e4c:	6c61                	lui	s8,0x18
    2e4e:	206c                	fld	fa1,192(s0)
    2e50:	6f74                	flw	fa3,92(a4)
    2e52:	6f20                	flw	fs0,88(a4)
    2e54:	7462                	flw	fs0,56(sp)
    2e56:	6961                	lui	s2,0x18
    2e58:	206e                	fld	ft0,216(sp)
    2e5a:	656d                	lui	a0,0x1b
    2e5c:	6e61                	lui	t3,0x18
    2e5e:	6e69                	lui	t3,0x1a
    2e60:	6c756667          	0x6c756667
    2e64:	7220                	flw	fs0,96(a2)
    2e66:	7365                	lui	t1,0xffff9
    2e68:	6c75                	lui	s8,0x1d
    2e6a:	7374                	flw	fa3,100(a4)
    2e6c:	000a                	c.slli	zero,0x2
    2e6e:	0000                	unimp
    2e70:	6c50                	flw	fa2,28(s0)
    2e72:	6165                	addi	sp,sp,112
    2e74:	69206573          	csrrsi	a0,0x692,0
    2e78:	636e                	flw	ft6,216(sp)
    2e7a:	6572                	flw	fa0,28(sp)
    2e7c:	7361                	lui	t1,0xffff8
    2e7e:	2065                	jal	2f26 <__clz_tab+0x66a>
    2e80:	756e                	flw	fa0,248(sp)
    2e82:	626d                	lui	tp,0x1b
    2e84:	7265                	lui	tp,0xffff9
    2e86:	6f20                	flw	fs0,88(a4)
    2e88:	2066                	fld	ft0,88(sp)
    2e8a:	7572                	flw	fa0,60(sp)
    2e8c:	736e                	flw	ft6,248(sp)
    2e8e:	000a                	c.slli	zero,0x2
    2e90:	754e                	flw	fa0,240(sp)
    2e92:	626d                	lui	tp,0x1b
    2e94:	7265                	lui	tp,0xffff9
    2e96:	4f5f 5f66 7552      	0x75525f664f5f
    2e9c:	736e                	flw	ft6,248(sp)
    2e9e:	203d                	jal	2ecc <__clz_tab+0x610>
    2ea0:	6c25                	lui	s8,0x9
    2ea2:	2c64                	fld	fs1,216(s0)
    2ea4:	4820                	lw	s0,80(s0)
    2ea6:	3d5a                	fld	fs10,432(sp)
    2ea8:	2520                	fld	fs0,72(a0)
    2eaa:	646c                	flw	fa1,76(s0)
    2eac:	000a                	c.slli	zero,0x2
    2eae:	0000                	unimp
    2eb0:	6954                	flw	fa3,20(a0)
    2eb2:	656d                	lui	a0,0x1b
    2eb4:	203a                	fld	ft0,392(sp)
    2eb6:	6562                	flw	fa0,24(sp)
    2eb8:	3d6e6967          	0x3d6e6967
    2ebc:	2520                	fld	fs0,72(a0)
    2ebe:	646c                	flw	fa1,76(s0)
    2ec0:	202c                	fld	fa1,64(s0)
    2ec2:	6e65                	lui	t3,0x19
    2ec4:	3d64                	fld	fs1,248(a0)
    2ec6:	2520                	fld	fs0,72(a0)
    2ec8:	646c                	flw	fa1,76(s0)
    2eca:	202c                	fld	fa1,64(s0)
    2ecc:	6964                	flw	fs1,84(a0)
    2ece:	6666                	flw	fa2,88(sp)
    2ed0:	203d                	jal	2efe <__clz_tab+0x642>
    2ed2:	6c25                	lui	s8,0x9
    2ed4:	0a64                	addi	s1,sp,284
    2ed6:	0000                	unimp
    2ed8:	694d                	lui	s2,0x13
    2eda:	736f7263          	bgeu	t5,s6,35fe <glob2.3273+0x1a>
    2ede:	6365                	lui	t1,0x19
    2ee0:	73646e6f          	jal	t3,49616 <__C_STACK_TOP__+0x39616>
    2ee4:	6620                	flw	fs0,72(a2)
    2ee6:	6f20726f          	jal	tp,a5d8 <__BSS_END__+0x47d8>
    2eea:	656e                	flw	fa0,216(sp)
    2eec:	7220                	flw	fs0,96(a2)
    2eee:	6e75                	lui	t3,0x1d
    2ef0:	7420                	flw	fs0,104(s0)
    2ef2:	7268                	flw	fa0,100(a2)
    2ef4:	6867756f          	jal	a0,7a57a <__C_STACK_TOP__+0x6a57a>
    2ef8:	4420                	lw	s0,72(s0)
    2efa:	7268                	flw	fa0,100(a2)
    2efc:	7379                	lui	t1,0xffffe
    2efe:	6f74                	flw	fa3,92(a4)
    2f00:	656e                	flw	fa0,216(sp)
    2f02:	203a                	fld	ft0,392(sp)
    2f04:	6c25                	lui	s8,0x9
    2f06:	0a64                	addi	s1,sp,284
    2f08:	0000                	unimp
    2f0a:	0000                	unimp
    2f0c:	6844                	flw	fs1,20(s0)
    2f0e:	7972                	flw	fs2,60(sp)
    2f10:	6e6f7473          	csrrci	s0,0x6e6,30
    2f14:	7365                	lui	t1,0xffff9
    2f16:	7020                	flw	fs0,96(s0)
    2f18:	7265                	lui	tp,0xffff9
    2f1a:	5320                	lw	s0,96(a4)
    2f1c:	6365                	lui	t1,0x19
    2f1e:	3a646e6f          	jal	t3,492c4 <__C_STACK_TOP__+0x392c4>
    2f22:	2020                	fld	fs0,64(s0)
    2f24:	2020                	fld	fs0,64(s0)
    2f26:	2020                	fld	fs0,64(s0)
    2f28:	2020                	fld	fs0,64(s0)
    2f2a:	2020                	fld	fs0,64(s0)
    2f2c:	2020                	fld	fs0,64(s0)
    2f2e:	2020                	fld	fs0,64(s0)
    2f30:	2020                	fld	fs0,64(s0)
    2f32:	2020                	fld	fs0,64(s0)
    2f34:	2020                	fld	fs0,64(s0)
    2f36:	2020                	fld	fs0,64(s0)
    2f38:	6c25                	lui	s8,0x9
    2f3a:	0a64                	addi	s1,sp,284
    2f3c:	0000                	unimp
    2f3e:	0000                	unimp
    2f40:	4844                	lw	s1,20(s0)
    2f42:	5952                	lw	s2,52(sp)
    2f44:	4e4f5453          	0x4e4f5453
    2f48:	2045                	jal	2fe8 <impure_data+0x38>
    2f4a:	5250                	lw	a2,36(a2)
    2f4c:	4152474f          	fnmadd.s	fa4,ft4,fs5,fs0,rmm
    2f50:	2c4d                	jal	3202 <impure_data+0x252>
    2f52:	3120                	fld	fs0,96(a0)
    2f54:	20545327          	0x20545327
    2f58:	49525453          	0x49525453
    2f5c:	474e                	lw	a4,208(sp)
    2f5e:	0000                	unimp
    2f60:	4844                	lw	s1,20(s0)
    2f62:	5952                	lw	s2,52(sp)
    2f64:	4e4f5453          	0x4e4f5453
    2f68:	2045                	jal	3008 <impure_data+0x58>
    2f6a:	5250                	lw	a2,36(a2)
    2f6c:	4152474f          	fnmadd.s	fa4,ft4,fs5,fs0,rmm
    2f70:	2c4d                	jal	3222 <impure_data+0x272>
    2f72:	3220                	fld	fs0,96(a2)
    2f74:	20444e27          	fsq	ft4,540(s0) # 1921c <__C_STACK_TOP__+0x921c>
    2f78:	49525453          	0x49525453
    2f7c:	474e                	lw	a4,208(sp)
    2f7e:	0000                	unimp
    2f80:	4844                	lw	s1,20(s0)
    2f82:	5952                	lw	s2,52(sp)
    2f84:	4e4f5453          	0x4e4f5453
    2f88:	2045                	jal	3028 <impure_data+0x78>
    2f8a:	5250                	lw	a2,36(a2)
    2f8c:	4152474f          	fnmadd.s	fa4,ft4,fs5,fs0,rmm
    2f90:	2c4d                	jal	3242 <impure_data+0x292>
    2f92:	3320                	fld	fs0,96(a4)
    2f94:	20445227          	0x20445227
    2f98:	49525453          	0x49525453
    2f9c:	474e                	lw	a4,208(sp)
    2f9e:	0000                	unimp
    2fa0:	00000043          	fmadd.s	ft0,ft0,ft0,ft0,rne
    2fa4:	4f50                	lw	a2,28(a4)
    2fa6:	00584953          	fadd.s	fs2,fa6,ft5,rmm
    2faa:	0000                	unimp
    2fac:	002e                	c.slli	zero,0xb

Disassembly of section .data:

00002fb0 <impure_data>:
    2fb0:	0000                	unimp
    2fb2:	0000                	unimp
    2fb4:	329c                	fld	fa5,32(a3)
    2fb6:	0000                	unimp
    2fb8:	3304                	fld	fs1,32(a4)
    2fba:	0000                	unimp
    2fbc:	336c                	fld	fa1,224(a4)
	...
    3056:	0000                	unimp
    3058:	0001                	nop
    305a:	0000                	unimp
    305c:	0000                	unimp
    305e:	0000                	unimp
    3060:	330e                	fld	ft6,224(sp)
    3062:	abcd                	j	3654 <Arr_1_Glob+0x40>
    3064:	1234                	addi	a3,sp,296
    3066:	e66d                	bnez	a2,3150 <impure_data+0x1a0>
    3068:	deec                	sw	a1,124(a3)
    306a:	0005                	c.nop	1
    306c:	0000000b          	0xb
	...

000033d8 <__global_locale>:
    33d8:	00000043          	fmadd.s	ft0,ft0,ft0,ft0,rne
	...
    33f8:	00000043          	fmadd.s	ft0,ft0,ft0,ft0,rne
	...
    3418:	00000043          	fmadd.s	ft0,ft0,ft0,ft0,rne
	...
    3438:	00000043          	fmadd.s	ft0,ft0,ft0,ft0,rne
	...
    3458:	00000043          	fmadd.s	ft0,ft0,ft0,ft0,rne
	...
    3478:	00000043          	fmadd.s	ft0,ft0,ft0,ft0,rne
	...
    3498:	00000043          	fmadd.s	ft0,ft0,ft0,ft0,rne
	...
    34b8:	1978                	addi	a4,sp,188
    34ba:	0000                	unimp
    34bc:	1780                	addi	s0,sp,992
    34be:	0000                	unimp
    34c0:	0000                	unimp
    34c2:	0000                	unimp
    34c4:	27b8                	fld	fa4,72(a5)
    34c6:	0000                	unimp
    34c8:	2fac                	fld	fa1,88(a5)
    34ca:	0000                	unimp
    34cc:	2c20                	fld	fs0,88(s0)
    34ce:	0000                	unimp
    34d0:	2c20                	fld	fs0,88(s0)
    34d2:	0000                	unimp
    34d4:	2c20                	fld	fs0,88(s0)
    34d6:	0000                	unimp
    34d8:	2c20                	fld	fs0,88(s0)
    34da:	0000                	unimp
    34dc:	2c20                	fld	fs0,88(s0)
    34de:	0000                	unimp
    34e0:	2c20                	fld	fs0,88(s0)
    34e2:	0000                	unimp
    34e4:	2c20                	fld	fs0,88(s0)
    34e6:	0000                	unimp
    34e8:	2c20                	fld	fs0,88(s0)
    34ea:	0000                	unimp
    34ec:	2c20                	fld	fs0,88(s0)
    34ee:	0000                	unimp
    34f0:	ffff                	0xffff
    34f2:	ffff                	0xffff
    34f4:	ffff                	0xffff
    34f6:	ffff                	0xffff
    34f8:	ffff                	0xffff
    34fa:	ffff                	0xffff
    34fc:	ffff                	0xffff
    34fe:	0000                	unimp
    3500:	0001                	nop
    3502:	5341                	li	t1,-16
    3504:	00494943          	fmadd.s	fs2,fs2,ft4,ft0,rmm
	...
    3520:	0000                	unimp
    3522:	5341                	li	t1,-16
    3524:	00494943          	fmadd.s	fs2,fs2,ft4,ft0,rmm
	...

Disassembly of section .sdata:

00003560 <_global_impure_ptr>:
    3560:	2fb0                	fld	fa2,88(a5)
	...

00003564 <_impure_ptr>:
    3564:	2fb0                	fld	fa2,88(a5)
	...

Disassembly of section .tbss:

00003580 <__BSS_START__>:
	...

Disassembly of section .sbss:

00003580 <Dhrystones_Per_Second>:
    3580:	0000                	unimp
	...

00003584 <Microseconds>:
    3584:	0000                	unimp
	...

00003588 <User_Time>:
    3588:	0000                	unimp
	...

0000358c <End_Time>:
    358c:	0000                	unimp
	...

00003590 <Int_Glob>:
    3590:	0000                	unimp
	...

00003594 <Ch_2_Glob>:
    3594:	0000                	unimp
	...

00003598 <Bool_Glob>:
    3598:	0000                	unimp
	...

0000359c <Run_Index>:
    359c:	0000                	unimp
	...

000035a0 <Begin_Time>:
    35a0:	0000                	unimp
	...

000035a4 <Ptr_Glob>:
    35a4:	0000                	unimp
	...

000035a8 <Next_Ptr_Glob>:
    35a8:	0000                	unimp
	...

000035ac <Ch_1_Glob>:
    35ac:	0000                	unimp
	...

000035b0 <_PathLocale>:
    35b0:	0000                	unimp
	...

Disassembly of section .bss:

000035b4 <glob1.3272>:
	...

000035e4 <glob2.3273>:
	...

00003614 <Arr_1_Glob>:
	...

000036dc <Arr_2_Glob>:
	...

Disassembly of section .stack:

0000fc00 <__C_STACK_TOP__-0x400>:
	...

Disassembly of section .comment:

00000000 <.comment>:
   0:	3a434347          	fmsub.d	ft6,ft6,ft4,ft7,rmm
   4:	2820                	fld	fs0,80(s0)
   6:	29554e47          	fmsub.s	ft8,fa0,fs5,ft5,rmm
   a:	3820                	fld	fs0,112(s0)
   c:	332e                	fld	ft6,232(sp)
   e:	302e                	fld	ft0,232(sp)
	...

Disassembly of section .riscv.attributes:

00000000 <.riscv.attributes>:
   0:	2341                	jal	580 <vprintfmt.constprop.0+0x15a>
   2:	0000                	unimp
   4:	7200                	flw	fs0,32(a2)
   6:	7369                	lui	t1,0xffffa
   8:	01007663          	bgeu	zero,a6,14 <buf.1936+0x14>
   c:	0019                	c.nop	6
   e:	0000                	unimp
  10:	7205                	lui	tp,0xfffe1
  12:	3376                	fld	ft6,376(sp)
  14:	6932                	flw	fs2,12(sp)
  16:	7032                	flw	ft0,44(sp)
  18:	5f30                	lw	a2,120(a4)
  1a:	326d                	jal	fffff9c4 <__C_STACK_TOP__+0xfffef9c4>
  1c:	3070                	fld	fa2,224(s0)
  1e:	635f 7032 0030      	0x307032635f

Disassembly of section .debug_info:

00000000 <.debug_info>:
       0:	129d                	addi	t0,t0,-25
       2:	0000                	unimp
       4:	0004                	0x4
       6:	0000                	unimp
       8:	0000                	unimp
       a:	0104                	addi	s1,sp,128
       c:	0188                	addi	a0,sp,192
       e:	0000                	unimp
      10:	6c0c                	flw	fa1,24(s0)
      12:	0006                	c.slli	zero,0x1
      14:	a900                	fsd	fs0,16(a0)
      16:	0000                	unimp
      18:	a800                	fsd	fs0,16(s0)
      1a:	0019                	c.nop	6
      1c:	5800                	lw	s0,48(s0)
      1e:	0004                	0x4
      20:	0000                	unimp
      22:	0000                	unimp
      24:	0200                	addi	s0,sp,256
      26:	0704                	addi	s1,sp,896
      28:	0368                	addi	a0,sp,396
      2a:	0000                	unimp
      2c:	0802                	c.slli64	a6
      2e:	00035e07          	0x35e07
      32:	0300                	addi	s0,sp,384
      34:	0504                	addi	s1,sp,640
      36:	6e69                	lui	t3,0x1a
      38:	0074                	addi	a3,sp,12
      3a:	0802                	c.slli64	a6
      3c:	7805                	lui	a6,0xfffe1
      3e:	0002                	c.slli64	zero
      40:	0200                	addi	s0,sp,256
      42:	0410                	addi	a2,sp,512
      44:	009d                	addi	ra,ra,7
      46:	0000                	unimp
      48:	0102                	c.slli64	sp
      4a:	4306                	lw	t1,64(sp)
      4c:	0006                	c.slli	zero,0x1
      4e:	0200                	addi	s0,sp,256
      50:	0801                	addi	a6,a6,0
      52:	0641                	addi	a2,a2,16
      54:	0000                	unimp
      56:	0202                	c.slli64	tp
      58:	0005                	c.nop	1
      5a:	0000                	unimp
      5c:	0200                	addi	s0,sp,256
      5e:	0702                	c.slli64	a4
      60:	037e                	slli	t1,t1,0x1f
      62:	0000                	unimp
      64:	0402                	c.slli64	s0
      66:	7d05                	lui	s10,0xfffe1
      68:	0002                	c.slli64	zero
      6a:	0200                	addi	s0,sp,256
      6c:	0704                	addi	s1,sp,896
      6e:	00000363          	beqz	zero,74 <buflen.1937+0x34>
      72:	ee04                	fsw	fs1,24(a2)
      74:	0004                	0x4
      76:	0200                	addi	s0,sp,256
      78:	0d0c                	addi	a1,sp,656
      7a:	00000033          	add	zero,zero,zero
      7e:	be04                	fsd	fs1,56(a2)
      80:	0004                	0x4
      82:	0300                	addi	s0,sp,384
      84:	0e2c                	addi	a1,sp,792
      86:	0064                	addi	s1,sp,12
      88:	0000                	unimp
      8a:	d404                	sw	s1,40(s0)
      8c:	0005                	c.nop	1
      8e:	0300                	addi	s0,sp,384
      90:	0e72                	slli	t3,t3,0x1c
      92:	0064                	addi	s1,sp,12
      94:	0000                	unimp
      96:	d704                	sw	s1,40(a4)
      98:	0006                	c.slli	zero,0x1
      9a:	0300                	addi	s0,sp,384
      9c:	1791                	addi	a5,a5,-28
      9e:	00000033          	add	zero,zero,zero
      a2:	da05                	beqz	a2,ffffffd2 <__C_STACK_TOP__+0xfffeffd2>
      a4:	04000003          	lb	zero,64(zero) # 40 <buflen.1937>
      a8:	0165                	addi	sp,sp,25
      aa:	00002517          	auipc	a0,0x2
      ae:	0600                	addi	s0,sp,768
      b0:	0304                	addi	s1,sp,384
      b2:	03a6                	slli	t2,t2,0x9
      b4:	00d1                	addi	ra,ra,20
      b6:	0000                	unimp
      b8:	0003c507          	flq	fa0,0(t2)
      bc:	0300                	addi	s0,sp,384
      be:	0ca8                	addi	a0,sp,600
      c0:	00a2                	slli	ra,ra,0x8
      c2:	0000                	unimp
      c4:	00033007          	fld	ft0,0(t1) # ffffa000 <__C_STACK_TOP__+0xfffea000>
      c8:	0300                	addi	s0,sp,384
      ca:	13a9                	addi	t2,t2,-22
      cc:	00d1                	addi	ra,ra,20
      ce:	0000                	unimp
      d0:	0800                	addi	s0,sp,16
      d2:	0000004f          	fnmadd.s	ft0,ft0,ft0,ft0,rne
      d6:	00e1                	addi	ra,ra,24
      d8:	0000                	unimp
      da:	2509                	jal	6dc <vprintfmt.constprop.0+0x2b6>
      dc:	0000                	unimp
      de:	0300                	addi	s0,sp,384
      e0:	0a00                	addi	s0,sp,272
      e2:	0308                	addi	a0,sp,384
      e4:	010509a3          	sb	a6,19(a0) # 20bd <__udivdi3+0x2bd>
      e8:	0000                	unimp
      ea:	0004350b          	0x4350b
      ee:	0300                	addi	s0,sp,384
      f0:	07a5                	addi	a5,a5,9
      f2:	00000033          	add	zero,zero,zero
      f6:	0b00                	addi	s0,sp,400
      f8:	05c6                	slli	a1,a1,0x11
      fa:	0000                	unimp
      fc:	af05aa03          	lw	s4,-1296(a1) # fffaf0 <__C_STACK_TOP__+0xfefaf0>
     100:	0000                	unimp
     102:	0400                	addi	s0,sp,512
     104:	0400                	addi	s0,sp,512
     106:	000004e3          	beqz	zero,90e <vprintfmt.constprop.0+0x4e8>
     10a:	e103ab03          	lw	s6,-496(t2)
     10e:	0000                	unimp
     110:	0400                	addi	s0,sp,512
     112:	053d                	addi	a0,a0,15
     114:	0000                	unimp
     116:	721baf03          	lw	t5,1825(s7) # 3721 <Arr_2_Glob+0x45>
     11a:	0000                	unimp
     11c:	0c00                	addi	s0,sp,528
     11e:	0404                	addi	s1,sp,512
     120:	0654                	addi	a3,sp,772
     122:	0000                	unimp
     124:	1605                	addi	a2,a2,-31
     126:	6b19                	lui	s6,0x6
     128:	0000                	unimp
     12a:	0d00                	addi	s0,sp,656
     12c:	046e                	slli	s0,s0,0x1b
     12e:	0000                	unimp
     130:	0518                	addi	a4,sp,640
     132:	0185082f          	0x185082f
     136:	0000                	unimp
     138:	0007990b          	0x7990b
     13c:	0500                	addi	s0,sp,640
     13e:	1331                	addi	t1,t1,-20
     140:	0185                	addi	gp,gp,1
     142:	0000                	unimp
     144:	0e00                	addi	s0,sp,784
     146:	6b5f 0500 0732      	0x73205006b5f
     14c:	00000033          	add	zero,zero,zero
     150:	0b04                	addi	s1,sp,400
     152:	000005a3          	sb	zero,11(zero) # b <buf.1936+0xb>
     156:	3205                	jal	fffffa76 <__C_STACK_TOP__+0xfffefa76>
     158:	0000330b          	0x330b
     15c:	0800                	addi	s0,sp,16
     15e:	0002d40b          	0x2d40b
     162:	0500                	addi	s0,sp,640
     164:	1432                	slli	s0,s0,0x2c
     166:	00000033          	add	zero,zero,zero
     16a:	0b0c                	addi	a1,sp,400
     16c:	025a                	slli	tp,tp,0x16
     16e:	0000                	unimp
     170:	3205                	jal	fffffa90 <__C_STACK_TOP__+0xfffefa90>
     172:	0000331b          	0x331b
     176:	1000                	addi	s0,sp,32
     178:	5f0e                	lw	t5,224(sp)
     17a:	0078                	addi	a4,sp,12
     17c:	3305                	jal	fffffe9c <__C_STACK_TOP__+0xfffefe9c>
     17e:	00018b0b          	0x18b0b
     182:	1400                	addi	s0,sp,544
     184:	0f00                	addi	s0,sp,912
     186:	2b04                	fld	fs1,16(a4)
     188:	0001                	nop
     18a:	0800                	addi	s0,sp,16
     18c:	011f 0000 019b      	0x19b0000011f
     192:	0000                	unimp
     194:	2509                	jal	796 <vprintfmt.constprop.0+0x370>
     196:	0000                	unimp
     198:	0000                	unimp
     19a:	0d00                	addi	s0,sp,656
     19c:	00000313          	li	t1,0
     1a0:	0524                	addi	s1,sp,648
     1a2:	021e0837          	lui	a6,0x21e0
     1a6:	0000                	unimp
     1a8:	0001310b          	0x1310b
     1ac:	0500                	addi	s0,sp,640
     1ae:	0939                	addi	s2,s2,14
     1b0:	00000033          	add	zero,zero,zero
     1b4:	0b00                	addi	s0,sp,400
     1b6:	0735                	addi	a4,a4,13
     1b8:	0000                	unimp
     1ba:	3a05                	jal	fffffaea <__C_STACK_TOP__+0xfffefaea>
     1bc:	3309                	jal	fffffebe <__C_STACK_TOP__+0xfffefebe>
     1be:	0000                	unimp
     1c0:	0400                	addi	s0,sp,512
     1c2:	00014d0b          	0x14d0b
     1c6:	0500                	addi	s0,sp,640
     1c8:	0033093b          	0x33093b
     1cc:	0000                	unimp
     1ce:	0b08                	addi	a0,sp,400
     1d0:	078a                	slli	a5,a5,0x2
     1d2:	0000                	unimp
     1d4:	3c05                	jal	fffffc04 <__C_STACK_TOP__+0xfffefc04>
     1d6:	3309                	jal	fffffed8 <__C_STACK_TOP__+0xfffefed8>
     1d8:	0000                	unimp
     1da:	0c00                	addi	s0,sp,528
     1dc:	0004980b          	0x4980b
     1e0:	0500                	addi	s0,sp,640
     1e2:	093d                	addi	s2,s2,15
     1e4:	00000033          	add	zero,zero,zero
     1e8:	0b10                	addi	a2,sp,400
     1ea:	0000042b          	0x42b
     1ee:	3e05                	jal	fffffd1e <__C_STACK_TOP__+0xfffefd1e>
     1f0:	3309                	jal	fffffef2 <__C_STACK_TOP__+0xfffefef2>
     1f2:	0000                	unimp
     1f4:	1400                	addi	s0,sp,544
     1f6:	0006c00b          	0x6c00b
     1fa:	0500                	addi	s0,sp,640
     1fc:	0033093f 0b180000 	0xb1800000033093f
     204:	0771                	addi	a4,a4,28
     206:	0000                	unimp
     208:	4005                	c.li	zero,1
     20a:	3309                	jal	ffffff0c <__C_STACK_TOP__+0xfffeff0c>
     20c:	0000                	unimp
     20e:	1c00                	addi	s0,sp,560
     210:	00071b0b          	0x71b0b
     214:	0500                	addi	s0,sp,640
     216:	0941                	addi	s2,s2,16
     218:	00000033          	add	zero,zero,zero
     21c:	0020                	addi	s0,sp,8
     21e:	6a10                	flw	fa2,16(a2)
     220:	0001                	nop
     222:	0800                	addi	s0,sp,16
     224:	0501                	addi	a0,a0,0
     226:	084a                	slli	a6,a6,0x12
     228:	00000263          	beqz	zero,22c <_start+0x2c>
     22c:	0002c70b          	0x2c70b
     230:	0500                	addi	s0,sp,640
     232:	02630a4b          	fnmsub.d	fs4,ft6,ft6,ft0,rne
     236:	0000                	unimp
     238:	0b00                	addi	s0,sp,400
     23a:	0519                	addi	a0,a0,6
     23c:	0000                	unimp
     23e:	4c05                	li	s8,1
     240:	6309                	lui	t1,0x2
     242:	0002                	c.slli64	zero
     244:	8000                	0x8000
     246:	3811                	jal	fffffa5a <__C_STACK_TOP__+0xfffefa5a>
     248:	0006                	c.slli	zero,0x1
     24a:	0500                	addi	s0,sp,640
     24c:	0a4e                	slli	s4,s4,0x13
     24e:	011f 0000 0100      	0x1000000011f
     254:	5211                	li	tp,-28
     256:	0002                	c.slli64	zero
     258:	0500                	addi	s0,sp,640
     25a:	0a51                	addi	s4,s4,20
     25c:	011f 0000 0104      	0x1040000011f
     262:	0800                	addi	s0,sp,16
     264:	011d                	addi	sp,sp,7
     266:	0000                	unimp
     268:	00000273          	0x273
     26c:	2509                	jal	86e <vprintfmt.constprop.0+0x448>
     26e:	0000                	unimp
     270:	1f00                	addi	s0,sp,944
     272:	1000                	addi	s0,sp,32
     274:	04a1                	addi	s1,s1,8
     276:	0000                	unimp
     278:	0190                	addi	a2,sp,192
     27a:	5d05                	li	s10,-31
     27c:	b608                	fsd	fa0,40(a2)
     27e:	0002                	c.slli64	zero
     280:	0b00                	addi	s0,sp,400
     282:	0799                	addi	a5,a5,6
     284:	0000                	unimp
     286:	5e05                	li	t3,-31
     288:	b612                	fsd	ft4,296(sp)
     28a:	0002                	c.slli64	zero
     28c:	0000                	unimp
     28e:	00058c0b          	0x58c0b
     292:	0500                	addi	s0,sp,640
     294:	065f 0033 0000      	0x33065f
     29a:	0b04                	addi	s1,sp,400
     29c:	000002cf          	fnmadd.s	ft5,ft0,ft0,ft0,rne
     2a0:	6105                	addi	sp,sp,32
     2a2:	bc09                	j	fffffcb4 <__C_STACK_TOP__+0xfffefcb4>
     2a4:	0002                	c.slli64	zero
     2a6:	0800                	addi	s0,sp,16
     2a8:	00016a0b          	0x16a0b
     2ac:	0500                	addi	s0,sp,640
     2ae:	1e62                	slli	t3,t3,0x38
     2b0:	021e                	slli	tp,tp,0x7
     2b2:	0000                	unimp
     2b4:	0088                	addi	a0,sp,64
     2b6:	0273040f          	0x273040f
     2ba:	0000                	unimp
     2bc:	cc08                	sw	a0,24(s0)
     2be:	0002                	c.slli64	zero
     2c0:	cc00                	sw	s0,24(s0)
     2c2:	0002                	c.slli64	zero
     2c4:	0900                	addi	s0,sp,144
     2c6:	0025                	c.nop	9
     2c8:	0000                	unimp
     2ca:	001f 040f 02d2      	0x2d2040f001f
     2d0:	0000                	unimp
     2d2:	0d12                	slli	s10,s10,0x4
     2d4:	00000783          	lb	a5,0(zero) # 0 <buf.1936>
     2d8:	0508                	addi	a0,sp,640
     2da:	0875                	addi	a6,a6,29
     2dc:	000002fb          	0x2fb
     2e0:	0001470b          	0x1470b
     2e4:	0500                	addi	s0,sp,640
     2e6:	1176                	slli	sp,sp,0x3d
     2e8:	000002fb          	0x2fb
     2ec:	0b00                	addi	s0,sp,400
     2ee:	05e5                	addi	a1,a1,25
     2f0:	0000                	unimp
     2f2:	7705                	lui	a4,0xfffe1
     2f4:	3306                	fld	ft6,96(sp)
     2f6:	0000                	unimp
     2f8:	0400                	addi	s0,sp,512
     2fa:	0f00                	addi	s0,sp,912
     2fc:	4f04                	lw	s1,24(a4)
     2fe:	0000                	unimp
     300:	0d00                	addi	s0,sp,656
     302:	0568                	addi	a0,sp,652
     304:	0000                	unimp
     306:	0568                	addi	a0,sp,652
     308:	08b5                	addi	a7,a7,13
     30a:	0444                	addi	s1,sp,516
     30c:	0000                	unimp
     30e:	5f0e                	lw	t5,224(sp)
     310:	0070                	addi	a2,sp,12
     312:	b605                	j	fffffe32 <__C_STACK_TOP__+0xfffefe32>
     314:	fb12                	fsw	ft4,180(sp)
     316:	0002                	c.slli64	zero
     318:	0000                	unimp
     31a:	5f0e                	lw	t5,224(sp)
     31c:	0072                	c.slli	zero,0x1c
     31e:	b705                	j	23e <_start+0x3e>
     320:	00003307          	fld	ft6,0(zero) # 0 <buf.1936>
     324:	0400                	addi	s0,sp,512
     326:	5f0e                	lw	t5,224(sp)
     328:	b8050077          	0xb8050077
     32c:	00003307          	fld	ft6,0(zero) # 0 <buf.1936>
     330:	0800                	addi	s0,sp,16
     332:	00024b0b          	0x24b0b
     336:	0500                	addi	s0,sp,640
     338:	09b9                	addi	s3,s3,14
     33a:	0056                	c.slli	zero,0x15
     33c:	0000                	unimp
     33e:	0b0c                	addi	a1,sp,400
     340:	0000033f 5609ba05 	0x5609ba050000033f
     348:	0000                	unimp
     34a:	0e00                	addi	s0,sp,784
     34c:	5f0e                	lw	t5,224(sp)
     34e:	6662                	flw	fa2,24(sp)
     350:	0500                	addi	s0,sp,640
     352:	02d311bb          	0x2d311bb
     356:	0000                	unimp
     358:	0b10                	addi	a2,sp,400
     35a:	0085                	addi	ra,ra,1
     35c:	0000                	unimp
     35e:	bc05                	j	fffffd8e <__C_STACK_TOP__+0xfffefd8e>
     360:	00003307          	fld	ft6,0(zero) # 0 <buf.1936>
     364:	1800                	addi	s0,sp,48
     366:	0001780b          	0x1780b
     36a:	0500                	addi	s0,sp,640
     36c:	011d0ac3          	fmadd.s	fs5,fs10,fa7,ft0,rne
     370:	0000                	unimp
     372:	0b1c                	addi	a5,sp,400
     374:	0500                	addi	s0,sp,640
     376:	0000                	unimp
     378:	c505                	beqz	a0,3a0 <printf_putch+0xa2>
     37a:	c81d                	beqz	s0,3b0 <printf_putch+0xb2>
     37c:	0005                	c.nop	1
     37e:	2000                	fld	fs0,0(s0)
     380:	0004240b          	0x4240b
     384:	0500                	addi	s0,sp,640
     386:	05f71dc7          	0x5f71dc7
     38a:	0000                	unimp
     38c:	0b24                	addi	s1,sp,408
     38e:	05ce                	slli	a1,a1,0x13
     390:	0000                	unimp
     392:	ca05                	beqz	a2,3c2 <printf_putch+0xc4>
     394:	1b0d                	addi	s6,s6,-29
     396:	0006                	c.slli	zero,0x1
     398:	2800                	fld	fs0,16(s0)
     39a:	00013a0b          	0x13a0b
     39e:	0500                	addi	s0,sp,640
     3a0:	063509cb          	fnmsub.q	fs3,fa0,ft3,ft0,rne
     3a4:	0000                	unimp
     3a6:	0e2c                	addi	a1,sp,792
     3a8:	755f 0062 ce05      	0xce050062755f
     3ae:	d311                	beqz	a4,2b2 <trap_entry+0x50>
     3b0:	0002                	c.slli64	zero
     3b2:	3000                	fld	fs0,32(s0)
     3b4:	5f0e                	lw	t5,224(sp)
     3b6:	7075                	c.lui	zero,0xffffd
     3b8:	0500                	addi	s0,sp,640
     3ba:	02fb12cf          	fnmadd.d	ft5,fs6,fa5,ft0,rtz
     3be:	0000                	unimp
     3c0:	0e38                	addi	a4,sp,792
     3c2:	755f 0072 d005      	0xd0050072755f
     3c8:	00003307          	fld	ft6,0(zero) # 0 <buf.1936>
     3cc:	3c00                	fld	fs0,56(s0)
     3ce:	0001410b          	0x1410b
     3d2:	0500                	addi	s0,sp,640
     3d4:	063b11d3          	fadd.q	ft3,fs6,ft3,rtz
     3d8:	0000                	unimp
     3da:	0b40                	addi	s0,sp,404
     3dc:	00000703          	lb	a4,0(zero) # 0 <buf.1936>
     3e0:	d405                	beqz	s0,308 <printf_putch+0xa>
     3e2:	4b11                	li	s6,4
     3e4:	0006                	c.slli	zero,0x1
     3e6:	4300                	lw	s0,0(a4)
     3e8:	5f0e                	lw	t5,224(sp)
     3ea:	626c                	flw	fa1,68(a2)
     3ec:	0500                	addi	s0,sp,640
     3ee:	02d311d7          	0x2d311d7
     3f2:	0000                	unimp
     3f4:	0b44                	addi	s1,sp,404
     3f6:	05dc                	addi	a5,sp,708
     3f8:	0000                	unimp
     3fa:	da05                	beqz	a2,32a <printf_putch+0x2c>
     3fc:	00003307          	fld	ft6,0(zero) # 0 <buf.1936>
     400:	4c00                	lw	s0,24(s0)
     402:	0004660b          	0x4660b
     406:	0500                	addi	s0,sp,640
     408:	007e0adb          	0x7e0adb
     40c:	0000                	unimp
     40e:	0b50                	addi	a2,sp,404
     410:	0055                	c.nop	21
     412:	0000                	unimp
     414:	de05                	beqz	a2,34c <printf_putch+0x4e>
     416:	6212                	flw	ft4,4(sp)
     418:	0004                	0x4
     41a:	5400                	lw	s0,40(s0)
     41c:	0003e10b          	0x3e10b
     420:	0500                	addi	s0,sp,640
     422:	0ce2                	slli	s9,s9,0x18
     424:	0111                	addi	sp,sp,4
     426:	0000                	unimp
     428:	0b58                	addi	a4,sp,404
     42a:	00000327          	0x327
     42e:	e405                	bnez	s0,456 <vprintfmt.constprop.0+0x30>
     430:	050e                	slli	a0,a0,0x3
     432:	0001                	nop
     434:	5c00                	lw	s0,56(s0)
     436:	0005460b          	0x5460b
     43a:	0500                	addi	s0,sp,640
     43c:	09e5                	addi	s3,s3,25
     43e:	00000033          	add	zero,zero,zero
     442:	0064                	addi	s1,sp,12
     444:	00009613          	slli	a2,ra,0x0
     448:	6200                	flw	fs0,0(a2)
     44a:	0004                	0x4
     44c:	1400                	addi	s0,sp,544
     44e:	0462                	slli	s0,s0,0x18
     450:	0000                	unimp
     452:	1d14                	addi	a3,sp,688
     454:	0001                	nop
     456:	1400                	addi	s0,sp,544
     458:	05b6                	slli	a1,a1,0xd
     45a:	0000                	unimp
     45c:	3314                	fld	fa3,32(a4)
     45e:	0000                	unimp
     460:	0000                	unimp
     462:	046d040f          	0x46d040f
     466:	0000                	unimp
     468:	6215                	lui	tp,0x5
     46a:	0004                	0x4
     46c:	1600                	addi	s0,sp,800
     46e:	000005ab          	0x5ab
     472:	0428                	addi	a0,sp,520
     474:	3905                	jal	a4 <buflen.1937+0x64>
     476:	0802                	c.slli64	a6
     478:	05b6                	slli	a1,a1,0xd
     47a:	0000                	unimp
     47c:	00053617          	auipc	a2,0x53
     480:	0500                	addi	s0,sp,640
     482:	3307023b          	0x3307023b
     486:	0000                	unimp
     488:	0000                	unimp
     48a:	0006d017          	auipc	zero,0x6d
     48e:	0500                	addi	s0,sp,640
     490:	0240                	addi	s0,sp,260
     492:	0006a70b          	0x6a70b
     496:	0400                	addi	s0,sp,512
     498:	0006b817          	auipc	a6,0x6b
     49c:	0500                	addi	s0,sp,640
     49e:	0240                	addi	s0,sp,260
     4a0:	a714                	fsd	fa3,8(a4)
     4a2:	0006                	c.slli	zero,0x1
     4a4:	0800                	addi	s0,sp,16
     4a6:	0002da17          	auipc	s4,0x2d
     4aa:	0500                	addi	s0,sp,640
     4ac:	0240                	addi	s0,sp,260
     4ae:	a71e                	fsd	ft7,392(sp)
     4b0:	0006                	c.slli	zero,0x1
     4b2:	0c00                	addi	s0,sp,528
     4b4:	00058717          	auipc	a4,0x58
     4b8:	0500                	addi	s0,sp,640
     4ba:	0242                	slli	tp,tp,0x10
     4bc:	3308                	fld	fa0,32(a4)
     4be:	0000                	unimp
     4c0:	1000                	addi	s0,sp,32
     4c2:	00002417          	auipc	s0,0x2
     4c6:	0500                	addi	s0,sp,640
     4c8:	a7080243          	fmadd.q	ft4,fa6,fa6,fs4,rne
     4cc:	0008                	0x8
     4ce:	1400                	addi	s0,sp,544
     4d0:	0002fa17          	auipc	s4,0x2f
     4d4:	0500                	addi	s0,sp,640
     4d6:	0246                	slli	tp,tp,0x11
     4d8:	00003307          	fld	ft6,0(zero) # 0 <buf.1936>
     4dc:	3000                	fld	fs0,32(s0)
     4de:	00059117          	auipc	sp,0x59
     4e2:	0500                	addi	s0,sp,640
     4e4:	bc160247          	0xbc160247
     4e8:	0008                	0x8
     4ea:	3400                	fld	fs0,40(s0)
     4ec:	0004b317          	auipc	t1,0x4b
     4f0:	0500                	addi	s0,sp,640
     4f2:	0249                	addi	tp,tp,18
     4f4:	00003307          	fld	ft6,0(zero) # 0 <buf.1936>
     4f8:	3800                	fld	fs0,48(s0)
     4fa:	00059917          	auipc	s2,0x59
     4fe:	0500                	addi	s0,sp,640
     500:	cd0a024b          	0xcd0a024b
     504:	0008                	0x8
     506:	3c00                	fld	fs0,56(s0)
     508:	0003bd17          	auipc	s10,0x3b
     50c:	0500                	addi	s0,sp,640
     50e:	024e                	slli	tp,tp,0x13
     510:	00018513          	mv	a0,gp
     514:	4000                	lw	s0,0(s0)
     516:	00026617          	auipc	a2,0x26
     51a:	0500                	addi	s0,sp,640
     51c:	3307024f          	fnmadd.d	ft4,fa4,fa6,ft6,rne
     520:	0000                	unimp
     522:	4400                	lw	s0,8(s0)
     524:	00076c17          	auipc	s8,0x76
     528:	0500                	addi	s0,sp,640
     52a:	0250                	addi	a2,sp,260
     52c:	00018513          	mv	a0,gp
     530:	4800                	lw	s0,16(s0)
     532:	0004cf17          	auipc	t5,0x4c
     536:	0500                	addi	s0,sp,640
     538:	0251                	addi	tp,tp,20
     53a:	d314                	sw	a3,32(a4)
     53c:	0008                	0x8
     53e:	4c00                	lw	s0,24(s0)
     540:	00033717          	auipc	a4,0x33
     544:	0500                	addi	s0,sp,640
     546:	0254                	addi	a3,sp,260
     548:	00003307          	fld	ft6,0(zero) # 0 <buf.1936>
     54c:	5000                	lw	s0,32(s0)
     54e:	00029317          	auipc	t1,0x29
     552:	0500                	addi	s0,sp,640
     554:	0255                	addi	tp,tp,21
     556:	b609                	j	58 <buflen.1937+0x18>
     558:	0005                	c.nop	1
     55a:	5400                	lw	s0,40(s0)
     55c:	00052f17          	auipc	t5,0x52
     560:	0500                	addi	s0,sp,640
     562:	0278                	addi	a4,sp,268
     564:	00088207          	0x88207
     568:	5800                	lw	s0,48(s0)
     56a:	a118                	fsd	fa4,0(a0)
     56c:	0004                	0x4
     56e:	0500                	addi	s0,sp,640
     570:	027c                	addi	a5,sp,268
     572:	0002b613          	sltiu	a2,t0,0
     576:	4800                	lw	s0,16(s0)
     578:	1801                	addi	a6,a6,-32
     57a:	0000039b          	0x39b
     57e:	7d05                	lui	s10,0xfffe1
     580:	1202                	slli	tp,tp,0x20
     582:	00000273          	0x273
     586:	014c                	addi	a1,sp,132
     588:	ea18                	fsw	fa4,16(a2)
     58a:	0006                	c.slli	zero,0x1
     58c:	0500                	addi	s0,sp,640
     58e:	0281                	addi	t0,t0,0
     590:	e40c                	fsw	fa1,8(s0)
     592:	0008                	0x8
     594:	dc00                	sw	s0,56(s0)
     596:	1802                	slli	a6,a6,0x20
     598:	0180                	addi	s0,sp,192
     59a:	0000                	unimp
     59c:	8605                	srai	a2,a2,0x1
     59e:	1002                	c.slli	zero,0x20
     5a0:	0668                	addi	a0,sp,780
     5a2:	0000                	unimp
     5a4:	02e0                	addi	s0,sp,332
     5a6:	6518                	flw	fa4,8(a0)
     5a8:	0001                	nop
     5aa:	0500                	addi	s0,sp,640
     5ac:	0288                	addi	a0,sp,320
     5ae:	f00a                	fsw	ft2,32(sp)
     5b0:	0008                	0x8
     5b2:	ec00                	fsw	fs0,24(s0)
     5b4:	0002                	c.slli64	zero
     5b6:	05bc040f          	0x5bc040f
     5ba:	0000                	unimp
     5bc:	0102                	c.slli64	sp
     5be:	4a08                	lw	a0,16(a2)
     5c0:	0006                	c.slli	zero,0x1
     5c2:	1500                	addi	s0,sp,672
     5c4:	05bc                	addi	a5,sp,712
     5c6:	0000                	unimp
     5c8:	0444040f          	0x444040f
     5cc:	0000                	unimp
     5ce:	00009613          	slli	a2,ra,0x0
     5d2:	ec00                	fsw	fs0,24(s0)
     5d4:	0005                	c.nop	1
     5d6:	1400                	addi	s0,sp,544
     5d8:	0462                	slli	s0,s0,0x18
     5da:	0000                	unimp
     5dc:	1d14                	addi	a3,sp,688
     5de:	0001                	nop
     5e0:	1400                	addi	s0,sp,544
     5e2:	05ec                	addi	a1,sp,716
     5e4:	0000                	unimp
     5e6:	3314                	fld	fa3,32(a4)
     5e8:	0000                	unimp
     5ea:	0000                	unimp
     5ec:	05c3040f          	0x5c3040f
     5f0:	0000                	unimp
     5f2:	ec15                	bnez	s0,62e <vprintfmt.constprop.0+0x208>
     5f4:	0005                	c.nop	1
     5f6:	0f00                	addi	s0,sp,912
     5f8:	ce04                	sw	s1,24(a2)
     5fa:	0005                	c.nop	1
     5fc:	1300                	addi	s0,sp,416
     5fe:	008a                	slli	ra,ra,0x2
     600:	0000                	unimp
     602:	0000061b          	0x61b
     606:	6214                	flw	fa3,0(a2)
     608:	0004                	0x4
     60a:	1400                	addi	s0,sp,544
     60c:	011d                	addi	sp,sp,7
     60e:	0000                	unimp
     610:	8a14                	0x8a14
     612:	0000                	unimp
     614:	1400                	addi	s0,sp,544
     616:	00000033          	add	zero,zero,zero
     61a:	0f00                	addi	s0,sp,912
     61c:	fd04                	fsw	fs1,56(a0)
     61e:	0005                	c.nop	1
     620:	1300                	addi	s0,sp,416
     622:	00000033          	add	zero,zero,zero
     626:	0635                	addi	a2,a2,13
     628:	0000                	unimp
     62a:	6214                	flw	fa3,0(a2)
     62c:	0004                	0x4
     62e:	1400                	addi	s0,sp,544
     630:	011d                	addi	sp,sp,7
     632:	0000                	unimp
     634:	0f00                	addi	s0,sp,912
     636:	2104                	fld	fs1,0(a0)
     638:	0006                	c.slli	zero,0x1
     63a:	0800                	addi	s0,sp,16
     63c:	0000004f          	fnmadd.s	ft0,ft0,ft0,ft0,rne
     640:	0000064b          	fnmsub.s	fa2,ft0,ft0,ft0,rne
     644:	2509                	jal	c46 <sc_printf+0x12>
     646:	0000                	unimp
     648:	0200                	addi	s0,sp,256
     64a:	0800                	addi	s0,sp,16
     64c:	0000004f          	fnmadd.s	ft0,ft0,ft0,ft0,rne
     650:	0000065b          	0x65b
     654:	2509                	jal	c56 <sc_printf+0x22>
     656:	0000                	unimp
     658:	0000                	unimp
     65a:	0500                	addi	s0,sp,640
     65c:	025f 0000 1f05      	0x1f050000025f
     662:	1a01                	addi	s4,s4,-32
     664:	0301                	addi	t1,t1,0
     666:	0000                	unimp
     668:	ca19                	beqz	a2,67e <vprintfmt.constprop.0+0x258>
     66a:	0006                	c.slli	zero,0x1
     66c:	0c00                	addi	s0,sp,528
     66e:	2305                	jal	b8e <putchar+0x86>
     670:	0801                	addi	a6,a6,0
     672:	06a1                	addi	a3,a3,8
     674:	0000                	unimp
     676:	00079917          	auipc	s2,0x79
     67a:	0500                	addi	s0,sp,640
     67c:	0125                	addi	sp,sp,9
     67e:	a111                	j	a82 <vprintfmt.constprop.0+0x65c>
     680:	0006                	c.slli	zero,0x1
     682:	0000                	unimp
     684:	00035717          	auipc	a4,0x35
     688:	0500                	addi	s0,sp,640
     68a:	0126                	slli	sp,sp,0x9
     68c:	00003307          	fld	ft6,0(zero) # 0 <buf.1936>
     690:	0400                	addi	s0,sp,512
     692:	00054e17          	auipc	t3,0x54
     696:	0500                	addi	s0,sp,640
     698:	a70b0127          	0xa70b0127
     69c:	0006                	c.slli	zero,0x1
     69e:	0800                	addi	s0,sp,16
     6a0:	0f00                	addi	s0,sp,912
     6a2:	6804                	flw	fs1,16(s0)
     6a4:	0006                	c.slli	zero,0x1
     6a6:	0f00                	addi	s0,sp,912
     6a8:	5b04                	lw	s1,48(a4)
     6aa:	0006                	c.slli	zero,0x1
     6ac:	1900                	addi	s0,sp,176
     6ae:	001c                	0x1c
     6b0:	0000                	unimp
     6b2:	050e                	slli	a0,a0,0x3
     6b4:	e608013f 17000006 	0x17000006e608013f
     6bc:	0608                	addi	a0,sp,768
     6be:	0000                	unimp
     6c0:	4005                	c.li	zero,1
     6c2:	1201                	addi	tp,tp,-32
     6c4:	06e6                	slli	a3,a3,0x19
     6c6:	0000                	unimp
     6c8:	1700                	addi	s0,sp,928
     6ca:	0401                	addi	s0,s0,0
     6cc:	0000                	unimp
     6ce:	4105                	li	sp,1
     6d0:	1201                	addi	tp,tp,-32
     6d2:	06e6                	slli	a3,a3,0x19
     6d4:	0000                	unimp
     6d6:	1706                	slli	a4,a4,0x21
     6d8:	0000064f          	fnmadd.s	fa2,ft0,ft0,ft0,rne
     6dc:	4205                	li	tp,1
     6de:	1201                	addi	tp,tp,-32
     6e0:	005d                	c.nop	23
     6e2:	0000                	unimp
     6e4:	000c                	0xc
     6e6:	5d08                	lw	a0,56(a0)
     6e8:	0000                	unimp
     6ea:	f600                	fsw	fs0,40(a2)
     6ec:	0006                	c.slli	zero,0x1
     6ee:	0900                	addi	s0,sp,144
     6f0:	0025                	c.nop	9
     6f2:	0000                	unimp
     6f4:	0002                	c.slli64	zero
     6f6:	d01a                	sw	t1,32(sp)
     6f8:	5905                	li	s2,-31
     6fa:	0702                	c.slli64	a4
     6fc:	0000080b          	0x80b
     700:	00043d17          	auipc	s10,0x43
     704:	0500                	addi	s0,sp,640
     706:	2518025b          	0x2518025b
     70a:	0000                	unimp
     70c:	0000                	unimp
     70e:	00062417          	auipc	s0,0x62
     712:	0500                	addi	s0,sp,640
     714:	025c                	addi	a5,sp,260
     716:	b612                	fsd	ft4,296(sp)
     718:	0005                	c.nop	1
     71a:	0400                	addi	s0,sp,512
     71c:	0003b017          	auipc	zero,0x3b
     720:	0500                	addi	s0,sp,640
     722:	025d                	addi	tp,tp,23
     724:	0b10                	addi	a2,sp,400
     726:	0008                	0x8
     728:	0800                	addi	s0,sp,16
     72a:	00072617          	auipc	a2,0x72
     72e:	0500                	addi	s0,sp,640
     730:	025e                	slli	tp,tp,0x17
     732:	00019b17          	auipc	s6,0x19
     736:	2400                	fld	fs0,8(s0)
     738:	0002e217          	auipc	tp,0x2e
     73c:	0500                	addi	s0,sp,640
     73e:	025f 330f 0000      	0x330f025f
     744:	4800                	lw	s0,16(s0)
     746:	00079417          	auipc	s0,0x79
     74a:	0500                	addi	s0,sp,640
     74c:	0260                	addi	s0,sp,268
     74e:	2c2c                	fld	fa1,88(s0)
     750:	0000                	unimp
     752:	5000                	lw	s0,32(s0)
     754:	00073e17          	auipc	t3,0x73
     758:	0500                	addi	s0,sp,640
     75a:	0261                	addi	tp,tp,24
     75c:	ad1a                	fsd	ft6,152(sp)
     75e:	0006                	c.slli	zero,0x1
     760:	5800                	lw	s0,48(s0)
     762:	00057a17          	auipc	s4,0x57
     766:	0500                	addi	s0,sp,640
     768:	0262                	slli	tp,tp,0x18
     76a:	0516                	slli	a0,a0,0x5
     76c:	0001                	nop
     76e:	6800                	flw	fs0,16(s0)
     770:	00075e17          	auipc	t3,0x75
     774:	0500                	addi	s0,sp,640
     776:	05160263          	beq	a2,a7,7ba <vprintfmt.constprop.0+0x394>
     77a:	0001                	nop
     77c:	7000                	flw	fs0,32(s0)
     77e:	00015717          	auipc	a4,0x15
     782:	0500                	addi	s0,sp,640
     784:	0264                	addi	s1,sp,268
     786:	0516                	slli	a0,a0,0x5
     788:	0001                	nop
     78a:	7800                	flw	fs0,48(s0)
     78c:	0006e017          	auipc	zero,0x6e
     790:	0500                	addi	s0,sp,640
     792:	0265                	addi	tp,tp,25
     794:	1b10                	addi	a2,sp,432
     796:	0008                	0x8
     798:	8000                	0x8000
     79a:	0003a417          	auipc	s0,0x3a
     79e:	0500                	addi	s0,sp,640
     7a0:	0266                	slli	tp,tp,0x19
     7a2:	2b10                	fld	fa2,16(a4)
     7a4:	0008                	0x8
     7a6:	8800                	0x8800
     7a8:	00004817          	auipc	a6,0x4
     7ac:	0500                	addi	s0,sp,640
     7ae:	330f0267          	jalr	tp,816(t5) # 5288c <__C_STACK_TOP__+0x4288c>
     7b2:	0000                	unimp
     7b4:	a000                	fsd	fs0,0(s0)
     7b6:	0002ac17          	auipc	s8,0x2a
     7ba:	0500                	addi	s0,sp,640
     7bc:	0268                	addi	a0,sp,268
     7be:	0516                	slli	a0,a0,0x5
     7c0:	0001                	nop
     7c2:	a400                	fsd	fs0,8(s0)
     7c4:	00011a17          	auipc	s4,0x11
     7c8:	0500                	addi	s0,sp,640
     7ca:	0269                	addi	tp,tp,26
     7cc:	0516                	slli	a0,a0,0x5
     7ce:	0001                	nop
     7d0:	ac00                	fsd	fs0,24(s0)
     7d2:	00029b17          	auipc	s6,0x29
     7d6:	0500                	addi	s0,sp,640
     7d8:	026a                	slli	tp,tp,0x1a
     7da:	0516                	slli	a0,a0,0x5
     7dc:	0001                	nop
     7de:	b400                	fsd	fs0,40(s0)
     7e0:	00005b17          	auipc	s6,0x5
     7e4:	0500                	addi	s0,sp,640
     7e6:	0516026b          	0x516026b
     7ea:	0001                	nop
     7ec:	bc00                	fsd	fs0,56(s0)
     7ee:	00006a17          	auipc	s4,0x6
     7f2:	0500                	addi	s0,sp,640
     7f4:	026c                	addi	a1,sp,268
     7f6:	0516                	slli	a0,a0,0x5
     7f8:	0001                	nop
     7fa:	c400                	sw	s0,8(s0)
     7fc:	00053417          	auipc	s0,0x53
     800:	0500                	addi	s0,sp,640
     802:	026d                	addi	tp,tp,27
     804:	3308                	fld	fa0,32(a4)
     806:	0000                	unimp
     808:	cc00                	sw	s0,24(s0)
     80a:	0800                	addi	s0,sp,16
     80c:	05bc                	addi	a5,sp,712
     80e:	0000                	unimp
     810:	0000081b          	0x81b
     814:	2509                	jal	e16 <main+0x1a6>
     816:	0000                	unimp
     818:	1900                	addi	s0,sp,176
     81a:	0800                	addi	s0,sp,16
     81c:	05bc                	addi	a5,sp,712
     81e:	0000                	unimp
     820:	0000082b          	0x82b
     824:	2509                	jal	e26 <main+0x1b6>
     826:	0000                	unimp
     828:	0700                	addi	s0,sp,896
     82a:	0800                	addi	s0,sp,16
     82c:	05bc                	addi	a5,sp,712
     82e:	0000                	unimp
     830:	0000083b          	0x83b
     834:	2509                	jal	e36 <main+0x1c6>
     836:	0000                	unimp
     838:	1700                	addi	s0,sp,928
     83a:	1a00                	addi	s0,sp,304
     83c:	05f0                	addi	a2,sp,716
     83e:	0272                	slli	tp,tp,0x1c
     840:	00086207          	0x86207
     844:	1700                	addi	s0,sp,928
     846:	000003cb          	fnmsub.s	ft7,ft0,ft0,ft0,rne
     84a:	7505                	lui	a0,0xfffe1
     84c:	1b02                	slli	s6,s6,0x20
     84e:	0862                	slli	a6,a6,0x18
     850:	0000                	unimp
     852:	1700                	addi	s0,sp,928
     854:	02f1                	addi	t0,t0,28
     856:	0000                	unimp
     858:	7605                	lui	a2,0xfffe1
     85a:	1802                	slli	a6,a6,0x20
     85c:	0872                	slli	a6,a6,0x1c
     85e:	0000                	unimp
     860:	0078                	addi	a4,sp,12
     862:	fb08                	fsw	fa0,48(a4)
     864:	0002                	c.slli64	zero
     866:	7200                	flw	fs0,32(a2)
     868:	0008                	0x8
     86a:	0900                	addi	s0,sp,144
     86c:	0025                	c.nop	9
     86e:	0000                	unimp
     870:	001d                	c.nop	7
     872:	2508                	fld	fa0,8(a0)
     874:	0000                	unimp
     876:	8200                	0x8200
     878:	0008                	0x8
     87a:	0900                	addi	s0,sp,144
     87c:	0025                	c.nop	9
     87e:	0000                	unimp
     880:	001d                	c.nop	7
     882:	5705f01b          	0x5705f01b
     886:	0302                	c.slli64	t1
     888:	000008a7          	0x8a7
     88c:	ab1c                	fsd	fa5,16(a4)
     88e:	0005                	c.nop	1
     890:	0500                	addi	s0,sp,640
     892:	026e                	slli	tp,tp,0x1b
     894:	0006f60b          	0x6f60b
     898:	1c00                	addi	s0,sp,560
     89a:	0709                	addi	a4,a4,2
     89c:	0000                	unimp
     89e:	7705                	lui	a4,0xfffe1
     8a0:	0b02                	c.slli64	s6
     8a2:	0000083b          	0x83b
     8a6:	0800                	addi	s0,sp,16
     8a8:	05bc                	addi	a5,sp,712
     8aa:	0000                	unimp
     8ac:	000008b7          	lui	a7,0x0
     8b0:	2509                	jal	eb2 <main+0x242>
     8b2:	0000                	unimp
     8b4:	1800                	addi	s0,sp,48
     8b6:	1d00                	addi	s0,sp,688
     8b8:	0000010f          	0x10f
     8bc:	08b7040f          	0x8b7040f
     8c0:	0000                	unimp
     8c2:	cd1e                	sw	t2,152(sp)
     8c4:	0008                	0x8
     8c6:	1400                	addi	s0,sp,544
     8c8:	0462                	slli	s0,s0,0x18
     8ca:	0000                	unimp
     8cc:	0f00                	addi	s0,sp,912
     8ce:	c204                	sw	s1,0(a2)
     8d0:	0008                	0x8
     8d2:	0f00                	addi	s0,sp,912
     8d4:	8504                	0x8504
     8d6:	0001                	nop
     8d8:	1e00                	addi	s0,sp,816
     8da:	08e4                	addi	s1,sp,92
     8dc:	0000                	unimp
     8de:	3314                	fld	fa3,32(a4)
     8e0:	0000                	unimp
     8e2:	0000                	unimp
     8e4:	08ea040f          	0x8ea040f
     8e8:	0000                	unimp
     8ea:	08d9040f          	0x8d9040f
     8ee:	0000                	unimp
     8f0:	5b08                	lw	a0,48(a4)
     8f2:	0006                	c.slli	zero,0x1
     8f4:	0000                	unimp
     8f6:	0009                	c.nop	2
     8f8:	0900                	addi	s0,sp,144
     8fa:	0025                	c.nop	9
     8fc:	0000                	unimp
     8fe:	0002                	c.slli64	zero
     900:	a41f 0006 0500      	0x5000006a41f
     906:	62170307          	0x62170307
     90a:	0004                	0x4
     90c:	1f00                	addi	s0,sp,944
     90e:	069d                	addi	a3,a3,7
     910:	0000                	unimp
     912:	0805                	addi	a6,a6,1
     914:	04681d03          	lh	s10,70(a6) # 47ee <_gp+0xa8e>
     918:	0000                	unimp
     91a:	f208                	fsw	fa0,32(a2)
     91c:	0005                	c.nop	1
     91e:	2500                	fld	fs0,8(a0)
     920:	0009                	c.nop	2
     922:	2000                	fld	fs0,0(s0)
     924:	1500                	addi	s0,sp,672
     926:	091a                	slli	s2,s2,0x6
     928:	0000                	unimp
     92a:	8621                	srai	a2,a2,0x8
     92c:	0002                	c.slli64	zero
     92e:	0600                	addi	s0,sp,768
     930:	2414                	fld	fa3,8(s0)
     932:	0925                	addi	s2,s2,9
     934:	0000                	unimp
     936:	7021                	c.lui	zero,0xfffe8
     938:	0005                	c.nop	1
     93a:	0600                	addi	s0,sp,768
     93c:	1515                	addi	a0,a0,-27
     93e:	00000033          	add	zero,zero,zero
     942:	0948040f          	0x948040f
     946:	0000                	unimp
     948:	00003313          	sltiu	t1,zero,0
     94c:	5c00                	lw	s0,56(s0)
     94e:	0009                	c.nop	2
     950:	1400                	addi	s0,sp,544
     952:	095c                	addi	a5,sp,148
     954:	0000                	unimp
     956:	5c14                	lw	a3,56(s0)
     958:	0009                	c.nop	2
     95a:	0000                	unimp
     95c:	0962040f          	0x962040f
     960:	0000                	unimp
     962:	2122                	fld	ft2,8(sp)
     964:	04a9                	addi	s1,s1,10
     966:	0000                	unimp
     968:	b60e6307          	0xb60e6307
     96c:	0005                	c.nop	1
     96e:	2100                	fld	fs0,0(a0)
     970:	03d2                	slli	t2,t2,0x14
     972:	0000                	unimp
     974:	1008                	addi	a0,sp,32
     976:	00097b0f          	0x97b0f
     97a:	0f00                	addi	s0,sp,912
     97c:	b604                	fsd	fs1,40(a2)
     97e:	0005                	c.nop	1
     980:	2100                	fld	fs0,0(a0)
     982:	04ac                	addi	a1,sp,584
     984:	0000                	unimp
     986:	fc08                	fsw	fa0,56(s0)
     988:	b60e                	fsd	ft3,296(sp)
     98a:	0005                	c.nop	1
     98c:	2100                	fld	fs0,0(a0)
     98e:	008e                	slli	ra,ra,0x3
     990:	0000                	unimp
     992:	fd08                	fsw	fa0,56(a0)
     994:	330c                	fld	fa1,32(a4)
     996:	0000                	unimp
     998:	2100                	fld	fs0,0(a0)
     99a:	060e                	slli	a2,a2,0x3
     99c:	0000                	unimp
     99e:	fd08                	fsw	fa0,56(a0)
     9a0:	3314                	fld	fa3,32(a4)
     9a2:	0000                	unimp
     9a4:	2100                	fld	fs0,0(a0)
     9a6:	074d                	addi	a4,a4,19
     9a8:	0000                	unimp
     9aa:	fd08                	fsw	fa0,56(a0)
     9ac:	331c                	fld	fa5,32(a4)
     9ae:	0000                	unimp
     9b0:	2100                	fld	fs0,0(a0)
     9b2:	0000041b          	0x41b
     9b6:	ff08                	fsw	fa0,56(a4)
     9b8:	330c                	fld	fa1,32(a4)
     9ba:	0000                	unimp
     9bc:	2100                	fld	fs0,0(a0)
     9be:	04d9                	addi	s1,s1,22
     9c0:	0000                	unimp
     9c2:	9a09                	andi	a2,a2,-30
     9c4:	6416                	flw	fs0,68(sp)
     9c6:	0000                	unimp
     9c8:	2100                	fld	fs0,0(a0)
     9ca:	0000002f          	0x2f
     9ce:	9b09                	andi	a4,a4,-30
     9d0:	3315                	jal	6f4 <vprintfmt.constprop.0+0x2ce>
     9d2:	0000                	unimp
     9d4:	0800                	addi	s0,sp,16
     9d6:	05b6                	slli	a1,a1,0xd
     9d8:	0000                	unimp
     9da:	09e5                	addi	s3,s3,25
     9dc:	0000                	unimp
     9de:	2509                	jal	fe0 <main+0x370>
     9e0:	0000                	unimp
     9e2:	0100                	addi	s0,sp,128
     9e4:	2100                	fld	fs0,0(a0)
     9e6:	0129                	addi	sp,sp,10
     9e8:	0000                	unimp
     9ea:	9e09                	0x9e09
     9ec:	0009d517          	auipc	a0,0x9d
     9f0:	0400                	addi	s0,sp,512
     9f2:	0345                	addi	t1,t1,17
     9f4:	0000                	unimp
     9f6:	2a0a                	fld	fs4,128(sp)
     9f8:	2516                	fld	fa0,320(sp)
     9fa:	0000                	unimp
     9fc:	0400                	addi	s0,sp,512
     9fe:	055e                	slli	a0,a0,0x17
     a00:	0000                	unimp
     a02:	2f0a                	fld	ft10,128(sp)
     a04:	0915                	addi	s2,s2,5
     a06:	000a                	c.slli	zero,0x2
     a08:	0f00                	addi	s0,sp,912
     a0a:	0f04                	addi	s1,sp,912
     a0c:	000a                	c.slli	zero,0x2
     a0e:	1300                	addi	s0,sp,416
     a10:	09f1                	addi	s3,s3,28
     a12:	0000                	unimp
     a14:	0a1e                	slli	s4,s4,0x7
     a16:	0000                	unimp
     a18:	5c14                	lw	a3,56(s0)
     a1a:	0009                	c.nop	2
     a1c:	0000                	unimp
     a1e:	9f04                	0x9f04
     a20:	0a000007          	0xa000007
     a24:	0f36                	slli	t5,t5,0xd
     a26:	0942                	slli	s2,s2,0x10
     a28:	0000                	unimp
     a2a:	0a21                	addi	s4,s4,8
     a2c:	0000                	unimp
     a2e:	0a00                	addi	s0,sp,272
     a30:	09fd12bb          	0x9fd12bb
     a34:	0000                	unimp
     a36:	5c21                	li	s8,-24
     a38:	0006                	c.slli	zero,0x1
     a3a:	0a00                	addi	s0,sp,272
     a3c:	10be                	slli	ra,ra,0x2f
     a3e:	0a1e                	slli	s4,s4,0x7
     a40:	0000                	unimp
     a42:	00031823          	sh	zero,16(t1) # 2955e <__C_STACK_TOP__+0x1955e>
     a46:	0700                	addi	s0,sp,896
     a48:	2504                	fld	fs1,8(a0)
     a4a:	0000                	unimp
     a4c:	0b00                	addi	s0,sp,400
     a4e:	0618                	addi	a4,sp,768
     a50:	0a7f                	0xa7f
     a52:	0000                	unimp
     a54:	0f24                	addi	s1,sp,920
     a56:	0005                	c.nop	1
     a58:	0000                	unimp
     a5a:	f624                	fsw	fs1,104(a2)
     a5c:	01000003          	lb	zero,16(zero) # 10 <buf.1936+0x10>
     a60:	7f24                	flw	fs1,120(a4)
     a62:	0004                	0x4
     a64:	0200                	addi	s0,sp,256
     a66:	4a24                	lw	s1,80(a2)
     a68:	0004                	0x4
     a6a:	0300                	addi	s0,sp,384
     a6c:	0624                	addi	s1,sp,776
     a6e:	0005                	c.nop	1
     a70:	0400                	addi	s0,sp,512
     a72:	5424                	lw	s1,104(s0)
     a74:	05000007          	0x5000007
     a78:	4324                	lw	s1,64(a4)
     a7a:	06000007          	0x6000007
     a7e:	2100                	fld	fs0,0(a0)
     a80:	03ec                	addi	a1,sp,460
     a82:	0000                	unimp
     a84:	421c210b          	0x421c210b
     a88:	000a                	c.slli	zero,0x2
     a8a:	2300                	fld	fs0,0(a4)
     a8c:	0455                	addi	s0,s0,21
     a8e:	0000                	unimp
     a90:	00250407          	0x250407
     a94:	0000                	unimp
     a96:	b006230b          	0xb006230b
     a9a:	000a                	c.slli	zero,0x2
     a9c:	2400                	fld	fs0,8(s0)
     a9e:	0554                	addi	a3,sp,644
     aa0:	0000                	unimp
     aa2:	2400                	fld	fs0,8(s0)
     aa4:	0525                	addi	a0,a0,9
     aa6:	0000                	unimp
     aa8:	2401                	jal	ca8 <main+0x38>
     aaa:	0631                	addi	a2,a2,12
     aac:	0000                	unimp
     aae:	0002                	c.slli64	zero
     ab0:	ba21                	j	3c8 <printf_putch+0xca>
     ab2:	0002                	c.slli64	zero
     ab4:	0b00                	addi	s0,sp,400
     ab6:	1e28                	addi	a0,sp,824
     ab8:	00000a8b          	0xa8b
     abc:	0c21                	addi	s8,s8,8
     abe:	0004                	0x4
     ac0:	0c00                	addi	s0,sp,528
     ac2:	1a29                	addi	s4,s4,-22
     ac4:	0925                	addi	s2,s2,9
     ac6:	0000                	unimp
     ac8:	f821                	bnez	s0,a18 <vprintfmt.constprop.0+0x5f2>
     aca:	0005                	c.nop	1
     acc:	0c00                	addi	s0,sp,528
     ace:	1a38                	addi	a4,sp,312
     ad0:	0925                	addi	s2,s2,9
     ad2:	0000                	unimp
     ad4:	7b04                	flw	fs1,48(a4)
     ad6:	0d000007          	0xd000007
     ada:	004f167b          	0x4f167b
     ade:	0000                	unimp
     ae0:	d415                	beqz	s0,a0c <vprintfmt.constprop.0+0x5e6>
     ae2:	000a                	c.slli	zero,0x2
     ae4:	0400                	addi	s0,sp,512
     ae6:	0271                	addi	tp,tp,28
     ae8:	0000                	unimp
     aea:	800d                	srli	s0,s0,0x3
     aec:	0000330f          	0x330f
     af0:	0400                	addi	s0,sp,512
     af2:	0270                	addi	a2,sp,268
     af4:	0000                	unimp
     af6:	810d                	srli	a0,a0,0x3
     af8:	2516                	fld	fa0,320(sp)
     afa:	0000                	unimp
     afc:	0400                	addi	s0,sp,512
     afe:	06b1                	addi	a3,a3,12
     b00:	0000                	unimp
     b02:	840d                	srai	s0,s0,0x3
     b04:	00003a0f          	0x3a0f
     b08:	0400                	addi	s0,sp,512
     b0a:	06b0                	addi	a2,sp,840
     b0c:	0000                	unimp
     b0e:	850d                	srai	a0,a0,0x3
     b10:	2c16                	fld	fs8,320(sp)
     b12:	0000                	unimp
     b14:	0200                	addi	s0,sp,256
     b16:	0404                	addi	s1,sp,512
     b18:	0492                	slli	s1,s1,0x4
     b1a:	0000                	unimp
     b1c:	0802                	c.slli64	a6
     b1e:	00048a03          	lb	s4,0(s1)
     b22:	0200                	addi	s0,sp,256
     b24:	0408                	addi	a0,sp,512
     b26:	00a2                	slli	ra,ra,0x8
     b28:	0000                	unimp
     b2a:	1002                	c.slli	zero,0x20
     b2c:	00003903          	0x3903
     b30:	0200                	addi	s0,sp,256
     b32:	0320                	addi	s0,sp,392
     b34:	0095                	addi	ra,ra,5
     b36:	0000                	unimp
     b38:	7519                	lui	a0,0xfffe6
     b3a:	08000003          	lb	zero,128(zero) # 80 <buflen.1937+0x40>
     b3e:	ed0d                	bnez	a0,b78 <putchar+0x70>
     b40:	0a01                	addi	s4,s4,0
     b42:	00000b63          	beqz	zero,b58 <putchar+0x50>
     b46:	6c25                	lui	s8,0x9
     b48:	0d00776f          	jal	a4,7c18 <__BSS_END__+0x1e18>
     b4c:	01ed                	addi	gp,gp,27
     b4e:	e51a                	fsw	ft6,136(sp)
     b50:	000a                	c.slli	zero,0x2
     b52:	0000                	unimp
     b54:	00061517          	auipc	a0,0x61
     b58:	0d00                	addi	s0,sp,656
     b5a:	01ed                	addi	gp,gp,27
     b5c:	e51f 000a 0400      	0x400000ae51f
     b62:	1b00                	addi	s0,sp,432
     b64:	0d08                	addi	a0,sp,656
     b66:	01f4                	addi	a3,sp,204
     b68:	8509                	srai	a0,a0,0x2
     b6a:	2600000b          	0x2600000b
     b6e:	f60d0073          	0xf60d0073
     b72:	1301                	addi	t1,t1,-32
     b74:	0b38                	addi	a4,sp,408
     b76:	0000                	unimp
     b78:	6c26                	flw	fs8,72(sp)
     b7a:	006c                	addi	a1,sp,12
     b7c:	f70d                	bnez	a4,aa6 <vprintfmt.constprop.0+0x680>
     b7e:	0a01                	addi	s4,s4,0
     b80:	0afd                	addi	s5,s5,31
     b82:	0000                	unimp
     b84:	0500                	addi	s0,sp,640
     b86:	0000034f          	fnmadd.s	ft6,ft0,ft0,ft0,rne
     b8a:	f80d                	bnez	s0,abc <vprintfmt.constprop.0+0x696>
     b8c:	0301                	addi	t1,t1,0
     b8e:	00000b63          	beqz	zero,ba4 <putchar+0x9c>
     b92:	8515                	srai	a0,a0,0x5
     b94:	0800000b          	0x800000b
     b98:	0ae0                	addi	s0,sp,348
     b9a:	0000                	unimp
     b9c:	00000ba7          	0xba7
     ba0:	2509                	jal	11a2 <main+0x532>
     ba2:	0000                	unimp
     ba4:	ff00                	fsw	fs0,56(a4)
     ba6:	1500                	addi	s0,sp,672
     ba8:	00000b97          	auipc	s7,0x0
     bac:	f41f 0006 0d00      	0xd000006f41f
     bb2:	01fc                	addi	a5,sp,204
     bb4:	a716                	fsd	ft5,392(sp)
     bb6:	1f00000b          	0x1f00000b
     bba:	0391                	addi	t2,t2,4
     bbc:	0000                	unimp
     bbe:	020d                	addi	tp,tp,3
     bc0:	1602                	slli	a2,a2,0x20
     bc2:	00000ba7          	0xba7
     bc6:	00047627          	0x47627
     bca:	0100                	addi	s0,sp,128
     bcc:	fd0104e7          	jalr	s1,-48(sp) # 594ae <__C_STACK_TOP__+0x494ae>
     bd0:	000a                	c.slli	zero,0x2
     bd2:	a800                	fsd	fs0,16(s0)
     bd4:	0019                	c.nop	6
     bd6:	5800                	lw	s0,48(s0)
     bd8:	0004                	0x4
     bda:	0100                	addi	s0,sp,128
     bdc:	299c                	fld	fa5,16(a1)
     bde:	2800000f          	0x2800000f
     be2:	0075                	c.nop	29
     be4:	e701                	bnez	a4,bec <putchar+0xe4>
     be6:	1204                	addi	s1,sp,288
     be8:	0afd                	addi	s5,s5,31
     bea:	0000                	unimp
     bec:	0000                	unimp
     bee:	0000                	unimp
     bf0:	7628                	flw	fa0,104(a2)
     bf2:	0100                	addi	s0,sp,128
     bf4:	fd1c04e7          	jalr	s1,-47(s8) # 8fd1 <__BSS_END__+0x31d1>
     bf8:	000a                	c.slli	zero,0x2
     bfa:	2800                	fld	fs0,16(s0)
     bfc:	0000                	unimp
     bfe:	2900                	fld	fs0,16(a0)
     c00:	e9010063          	beq	sp,a6,280 <trap_entry+0x1e>
     c04:	0904                	addi	s1,sp,144
     c06:	0ae5                	addi	s5,s5,25
     c08:	0000                	unimp
     c0a:	0050                	addi	a2,sp,4
     c0c:	0000                	unimp
     c0e:	7529                	lui	a0,0xfffea
     c10:	0075                	c.nop	29
     c12:	ea01                	bnez	a2,c22 <putchar+0x11a>
     c14:	0b04                	addi	s1,sp,400
     c16:	0b85                	addi	s7,s7,1
     c18:	0000                	unimp
     c1a:	007c                	addi	a5,sp,12
     c1c:	0000                	unimp
     c1e:	7629                	lui	a2,0xfffea
     c20:	0076                	c.slli	zero,0x1d
     c22:	eb01                	bnez	a4,c32 <putchar+0x12a>
     c24:	0b04                	addi	s1,sp,400
     c26:	0b85                	addi	s7,s7,1
     c28:	0000                	unimp
     c2a:	00a4                	addi	s1,sp,72
     c2c:	0000                	unimp
     c2e:	7729                	lui	a4,0xfffea
     c30:	0100                	addi	s0,sp,128
     c32:	04ec                	addi	a1,sp,588
     c34:	fd0a                	fsw	ft2,184(sp)
     c36:	000a                	c.slli	zero,0x2
     c38:	5c00                	lw	s0,56(s0)
     c3a:	0001                	nop
     c3c:	2a00                	fld	fs0,16(a2)
     c3e:	0f29                	addi	t5,t5,10
     c40:	0000                	unimp
     c42:	19d8                	addi	a4,sp,244
     c44:	0000                	unimp
     c46:	0000                	unimp
     c48:	0000                	unimp
     c4a:	f401                	bnez	s0,b52 <putchar+0x4a>
     c4c:	0a04                	addi	s1,sp,272
     c4e:	000f512b          	0xf512b
     c52:	9400                	0x9400
     c54:	0001                	nop
     c56:	2b00                	fld	fs0,16(a4)
     c58:	0f46                	slli	t5,t5,0x11
     c5a:	0000                	unimp
     c5c:	01bc                	addi	a5,sp,200
     c5e:	0000                	unimp
     c60:	3b2c                	fld	fa1,112(a4)
     c62:	2d00000f          	0x2d00000f
     c66:	0000                	unimp
     c68:	0000                	unimp
     c6a:	5d2e                	lw	s10,232(sp)
     c6c:	2e00000f          	0x2e00000f
     c70:	0f69                	addi	t5,t5,26
     c72:	0000                	unimp
     c74:	752e                	flw	fa0,232(sp)
     c76:	2f00000f          	0x2f00000f
     c7a:	0f81                	addi	t6,t6,0
     c7c:	0000                	unimp
     c7e:	0264                	addi	s1,sp,268
     c80:	0000                	unimp
     c82:	000f8d2f          	0xf8d2f
     c86:	c400                	sw	s0,8(s0)
     c88:	0002                	c.slli64	zero
     c8a:	2f00                	fld	fs0,24(a4)
     c8c:	0f99                	addi	t6,t6,6
     c8e:	0000                	unimp
     c90:	0324                	addi	s1,sp,392
     c92:	0000                	unimp
     c94:	000fa52f          	amoadd.w	a0,zero,(t6)
     c98:	9a00                	0x9a00
     c9a:	2f000003          	lb	zero,752(zero) # 2f0 <trap_entry+0x8e>
     c9e:	0fb1                	addi	t6,t6,12
     ca0:	0000                	unimp
     ca2:	03fa                	slli	t2,t2,0x1e
     ca4:	0000                	unimp
     ca6:	000fbd2f          	0xfbd2f
     caa:	1800                	addi	s0,sp,48
     cac:	0004                	0x4
     cae:	2f00                	fld	fs0,24(a4)
     cb0:	0fc9                	addi	t6,t6,18
     cb2:	0000                	unimp
     cb4:	00000437          	lui	s0,0x0
     cb8:	000fd52f          	0xfd52f
     cbc:	5700                	lw	s0,40(a4)
     cbe:	0004                	0x4
     cc0:	2f00                	fld	fs0,24(a4)
     cc2:	0fe0                	addi	s0,sp,988
     cc4:	0000                	unimp
     cc6:	048a                	slli	s1,s1,0x2
     cc8:	0000                	unimp
     cca:	ec2e                	fsw	fa1,24(sp)
     ccc:	3000000f          	0x3000000f
     cd0:	0ff8                	addi	a4,sp,988
     cd2:	0000                	unimp
     cd4:	0018                	0x18
     cd6:	0000                	unimp
     cd8:	00000cef          	jal	s9,cd8 <main+0x68>
     cdc:	000ffd2f          	0xffd2f
     ce0:	c900                	sw	s0,16(a0)
     ce2:	0004                	0x4
     ce4:	2f00                	fld	fs0,24(a4)
     ce6:	100a                	c.slli	zero,0x22
     ce8:	0000                	unimp
     cea:	04f2                	slli	s1,s1,0x1c
     cec:	0000                	unimp
     cee:	3100                	fld	fs0,32(a0)
     cf0:	1018                	addi	a4,sp,32
     cf2:	0000                	unimp
     cf4:	1a3c                	addi	a5,sp,312
     cf6:	0000                	unimp
     cf8:	0070                	addi	a2,sp,12
     cfa:	0000                	unimp
     cfc:	0d3c                	addi	a5,sp,664
     cfe:	0000                	unimp
     d00:	00101d2f          	0x101d2f
     d04:	0500                	addi	s0,sp,640
     d06:	0005                	c.nop	1
     d08:	2f00                	fld	fs0,24(a4)
     d0a:	102a                	c.slli	zero,0x2a
     d0c:	0000                	unimp
     d0e:	0518                	addi	a4,sp,640
     d10:	0000                	unimp
     d12:	372e                	fld	fa4,232(sp)
     d14:	0010                	0x10
     d16:	2f00                	fld	fs0,24(a4)
     d18:	1044                	addi	s1,sp,36
     d1a:	0000                	unimp
     d1c:	053c                	addi	a5,sp,648
     d1e:	0000                	unimp
     d20:	0010512f          	0x10512f
     d24:	4f00                	lw	s0,24(a4)
     d26:	0005                	c.nop	1
     d28:	2f00                	fld	fs0,24(a4)
     d2a:	105e                	c.slli	zero,0x37
     d2c:	0000                	unimp
     d2e:	056d                	addi	a0,a0,27
     d30:	0000                	unimp
     d32:	00106b2f          	0x106b2f
     d36:	8b00                	0x8b00
     d38:	0005                	c.nop	1
     d3a:	0000                	unimp
     d3c:	7930                	flw	fa2,112(a0)
     d3e:	0010                	0x10
     d40:	3000                	fld	fs0,32(s0)
     d42:	0000                	unimp
     d44:	5c00                	lw	s0,56(s0)
     d46:	000d                	c.nop	3
     d48:	2f00                	fld	fs0,24(a4)
     d4a:	107e                	c.slli	zero,0x3f
     d4c:	0000                	unimp
     d4e:	05a9                	addi	a1,a1,10
     d50:	0000                	unimp
     d52:	00108b2f          	0x108b2f
     d56:	c700                	sw	s0,8(a4)
     d58:	0005                	c.nop	1
     d5a:	0000                	unimp
     d5c:	fa31                	bnez	a2,cb0 <main+0x40>
     d5e:	0010                	0x10
     d60:	2400                	fld	fs0,8(s0)
     d62:	7400001b          	0x7400001b
     d66:	0000                	unimp
     d68:	ad00                	fsd	fs0,24(a0)
     d6a:	000d                	c.nop	3
     d6c:	2f00                	fld	fs0,24(a4)
     d6e:	10ff                	0x10ff
     d70:	0000                	unimp
     d72:	05e5                	addi	a1,a1,25
     d74:	0000                	unimp
     d76:	00110c2f          	0x110c2f
     d7a:	f800                	fsw	fs0,48(s0)
     d7c:	0005                	c.nop	1
     d7e:	2f00                	fld	fs0,24(a4)
     d80:	1119                	addi	sp,sp,-26
     d82:	0000                	unimp
     d84:	061c                	addi	a5,sp,768
     d86:	0000                	unimp
     d88:	0011262f          	amoadd.w	a2,ra,(sp)
     d8c:	2f00                	fld	fs0,24(a4)
     d8e:	0006                	c.slli	zero,0x1
     d90:	2f00                	fld	fs0,24(a4)
     d92:	00001133          	sll	sp,zero,zero
     d96:	0642                	slli	a2,a2,0x10
     d98:	0000                	unimp
     d9a:	0011402f          	0x11402f
     d9e:	6b00                	flw	fs0,16(a4)
     da0:	0006                	c.slli	zero,0x1
     da2:	2f00                	fld	fs0,24(a4)
     da4:	114d                	addi	sp,sp,-13
     da6:	0000                	unimp
     da8:	0689                	addi	a3,a3,2
     daa:	0000                	unimp
     dac:	3000                	fld	fs0,32(s0)
     dae:	1099                	addi	ra,ra,-26
     db0:	0000                	unimp
     db2:	0048                	addi	a0,sp,4
     db4:	0000                	unimp
     db6:	0dfa                	slli	s11,s11,0x1e
     db8:	0000                	unimp
     dba:	00109e2f          	0x109e2f
     dbe:	a700                	fsd	fs0,8(a4)
     dc0:	0006                	c.slli	zero,0x1
     dc2:	2f00                	fld	fs0,24(a4)
     dc4:	000010ab          	0x10ab
     dc8:	06ba                	slli	a3,a3,0xe
     dca:	0000                	unimp
     dcc:	0010b82f          	0x10b82f
     dd0:	de00                	sw	s0,56(a2)
     dd2:	0006                	c.slli	zero,0x1
     dd4:	2f00                	fld	fs0,24(a4)
     dd6:	10c5                	addi	ra,ra,-15
     dd8:	0000                	unimp
     dda:	00000737          	lui	a4,0x0
     dde:	0010d22f          	0x10d22f
     de2:	4a00                	lw	s0,16(a2)
     de4:	2f000007          	0x2f000007
     de8:	10df 0000 0783      	0x783000010df
     dee:	0000                	unimp
     df0:	0010ec2f          	0x10ec2f
     df4:	a100                	fsd	fs0,0(a0)
     df6:	00000007          	0x7
     dfa:	5b30                	lw	a2,112(a4)
     dfc:	0011                	c.nop	4
     dfe:	6000                	flw	fs0,0(s0)
     e00:	0000                	unimp
     e02:	1a00                	addi	s0,sp,304
     e04:	000e                	c.slli	zero,0x3
     e06:	2f00                	fld	fs0,24(a4)
     e08:	1160                	addi	s0,sp,172
     e0a:	0000                	unimp
     e0c:	000007bf 00116d2f 	0x116d2f000007bf
     e14:	dd00                	sw	s0,56(a0)
     e16:	00000007          	0x7
     e1a:	7b31                	lui	s6,0xfffec
     e1c:	0011                	c.nop	4
     e1e:	7c00                	flw	fs0,56(s0)
     e20:	001c                	0x1c
     e22:	1000                	addi	s0,sp,32
     e24:	0000                	unimp
     e26:	3500                	fld	fs0,40(a0)
     e28:	000e                	c.slli	zero,0x3
     e2a:	2f00                	fld	fs0,24(a4)
     e2c:	1180                	addi	s0,sp,224
     e2e:	0000                	unimp
     e30:	000007fb          	0x7fb
     e34:	3200                	fld	fs0,32(a2)
     e36:	118e                	slli	gp,gp,0x23
     e38:	0000                	unimp
     e3a:	1cac                	addi	a1,sp,632
     e3c:	0000                	unimp
     e3e:	0154                	addi	a3,sp,132
     e40:	0000                	unimp
     e42:	00118f33          	add	t5,gp,ra
     e46:	0100                	addi	s0,sp,128
     e48:	2f6c                	fld	fa1,216(a4)
     e4a:	0000119b          	0x119b
     e4e:	080e                	slli	a6,a6,0x3
     e50:	0000                	unimp
     e52:	a730                	fsd	fa2,72(a4)
     e54:	0011                	c.nop	4
     e56:	7800                	flw	fs0,48(s0)
     e58:	0000                	unimp
     e5a:	9f00                	0x9f00
     e5c:	000e                	c.slli	zero,0x3
     e5e:	2f00                	fld	fs0,24(a4)
     e60:	11ac                	addi	a1,sp,232
     e62:	0000                	unimp
     e64:	00000837          	lui	a6,0x0
     e68:	0011b92f          	0x11b92f
     e6c:	5900                	lw	s0,48(a0)
     e6e:	0008                	0x8
     e70:	2f00                	fld	fs0,24(a4)
     e72:	11c6                	slli	gp,gp,0x31
     e74:	0000                	unimp
     e76:	087d                	addi	a6,a6,31
     e78:	0000                	unimp
     e7a:	0011d32f          	0x11d32f
     e7e:	9b00                	0x9b00
     e80:	0008                	0x8
     e82:	2f00                	fld	fs0,24(a4)
     e84:	11e0                	addi	s0,sp,236
     e86:	0000                	unimp
     e88:	08b9                	addi	a7,a7,14
     e8a:	0000                	unimp
     e8c:	0011ed2f          	0x11ed2f
     e90:	e200                	fsw	fs0,0(a2)
     e92:	0008                	0x8
     e94:	2f00                	fld	fs0,24(a4)
     e96:	11fa                	slli	gp,gp,0x3e
     e98:	0000                	unimp
     e9a:	0916                	slli	s2,s2,0x5
     e9c:	0000                	unimp
     e9e:	3000                	fld	fs0,32(s0)
     ea0:	1208                	addi	a0,sp,288
     ea2:	0000                	unimp
     ea4:	00a0                	addi	s0,sp,72
     ea6:	0000                	unimp
     ea8:	00000ef3          	0xef3
     eac:	00120d2f          	0x120d2f
     eb0:	5800                	lw	s0,48(s0)
     eb2:	0009                	c.nop	2
     eb4:	2f00                	fld	fs0,24(a4)
     eb6:	121a                	slli	tp,tp,0x26
     eb8:	0000                	unimp
     eba:	0000096b          	0x96b
     ebe:	0012272f          	amoadd.w	a4,ra,(tp)
     ec2:	9000                	0x9000
     ec4:	0009                	c.nop	2
     ec6:	2f00                	fld	fs0,24(a4)
     ec8:	1234                	addi	a3,sp,296
     eca:	0000                	unimp
     ecc:	000009a3          	sb	zero,19(zero) # 13 <buf.1936+0x13>
     ed0:	0012412f          	0x12412f
     ed4:	b600                	fsd	fs0,40(a2)
     ed6:	0009                	c.nop	2
     ed8:	2f00                	fld	fs0,24(a4)
     eda:	124e                	slli	tp,tp,0x33
     edc:	0000                	unimp
     ede:	09c9                	addi	s3,s3,18
     ee0:	0000                	unimp
     ee2:	00125b2f          	0x125b2f
     ee6:	fc00                	fsw	fs0,56(s0)
     ee8:	0009                	c.nop	2
     eea:	3300                	fld	fs0,32(a4)
     eec:	1268                	addi	a0,sp,300
     eee:	0000                	unimp
     ef0:	6001                	0x6001
     ef2:	3100                	fld	fs0,32(a0)
     ef4:	1276                	slli	tp,tp,0x3d
     ef6:	0000                	unimp
     ef8:	1dc8                	addi	a0,sp,756
     efa:	0000                	unimp
     efc:	0014                	0x14
     efe:	0000                	unimp
     f00:	0f0e                	slli	t5,t5,0x3
     f02:	0000                	unimp
     f04:	00127b2f          	0x127b2f
     f08:	0f00                	addi	s0,sp,912
     f0a:	000a                	c.slli	zero,0x2
     f0c:	0000                	unimp
     f0e:	8932                	mv	s2,a2
     f10:	0012                	c.slli	zero,0x4
     f12:	dc00                	sw	s0,56(s0)
     f14:	001d                	c.nop	7
     f16:	1000                	addi	s0,sp,32
     f18:	0000                	unimp
     f1a:	2f00                	fld	fs0,24(a4)
     f1c:	128a                	slli	t0,t0,0x22
     f1e:	0000                	unimp
     f20:	0a22                	slli	s4,s4,0x8
     f22:	0000                	unimp
     f24:	0000                	unimp
     f26:	0000                	unimp
     f28:	3400                	fld	fs0,40(s0)
     f2a:	000005eb          	0x5eb
     f2e:	f701                	bnez	a4,e36 <main+0x1c6>
     f30:	0b090103          	lb	sp,176(s2) # 79726 <__C_STACK_TOP__+0x69726>
     f34:	0000                	unimp
     f36:	00129a03          	lh	s4,1(t0)
     f3a:	3500                	fld	fs0,40(a0)
     f3c:	006e                	c.slli	zero,0x1b
     f3e:	f701                	bnez	a4,e46 <main+0x1d6>
     f40:	0b091703          	lh	a4,176(s2)
     f44:	0000                	unimp
     f46:	6435                	lui	s0,0xd
     f48:	0100                	addi	s0,sp,128
     f4a:	092203f7          	0x92203f7
     f4e:	3500000b          	0x3500000b
     f52:	7072                	flw	ft0,60(sp)
     f54:	0100                	addi	s0,sp,128
     f56:	9a2e03f7          	0x9a2e03f7
     f5a:	0012                	c.slli	zero,0x4
     f5c:	3600                	fld	fs0,40(a2)
     f5e:	6e6e                	flw	ft8,216(sp)
     f60:	0100                	addi	s0,sp,128
     f62:	03f9                	addi	t2,t2,30
     f64:	9211                	srli	a2,a2,0x24
     f66:	3600000b          	0x3600000b
     f6a:	6464                	flw	fs1,76(s0)
     f6c:	0100                	addi	s0,sp,128
     f6e:	03fa                	slli	t2,t2,0x1e
     f70:	9211                	srli	a2,a2,0x24
     f72:	3600000b          	0x3600000b
     f76:	7272                	flw	ft4,60(sp)
     f78:	0100                	addi	s0,sp,128
     f7a:	850b03fb          	0x850b03fb
     f7e:	3600000b          	0x3600000b
     f82:	3064                	fld	fs1,224(s0)
     f84:	0100                	addi	s0,sp,128
     f86:	03fc                	addi	a5,sp,460
     f88:	f10a                	fsw	ft2,160(sp)
     f8a:	000a                	c.slli	zero,0x2
     f8c:	3600                	fld	fs0,40(a2)
     f8e:	3164                	fld	fs1,224(a0)
     f90:	0100                	addi	s0,sp,128
     f92:	03fc                	addi	a5,sp,460
     f94:	f10e                	fsw	ft3,160(sp)
     f96:	000a                	c.slli	zero,0x2
     f98:	3600                	fld	fs0,40(a2)
     f9a:	306e                	fld	ft0,248(sp)
     f9c:	0100                	addi	s0,sp,128
     f9e:	03fc                	addi	a5,sp,460
     fa0:	f112                	fsw	ft4,160(sp)
     fa2:	000a                	c.slli	zero,0x2
     fa4:	3600                	fld	fs0,40(a2)
     fa6:	316e                	fld	ft2,248(sp)
     fa8:	0100                	addi	s0,sp,128
     faa:	03fc                	addi	a5,sp,460
     fac:	f116                	fsw	ft5,160(sp)
     fae:	000a                	c.slli	zero,0x2
     fb0:	3600                	fld	fs0,40(a2)
     fb2:	326e                	fld	ft4,248(sp)
     fb4:	0100                	addi	s0,sp,128
     fb6:	03fc                	addi	a5,sp,460
     fb8:	f11a                	fsw	ft6,160(sp)
     fba:	000a                	c.slli	zero,0x2
     fbc:	3600                	fld	fs0,40(a2)
     fbe:	3071                	jal	84a <vprintfmt.constprop.0+0x424>
     fc0:	0100                	addi	s0,sp,128
     fc2:	03fd                	addi	t2,t2,31
     fc4:	f10a                	fsw	ft2,160(sp)
     fc6:	000a                	c.slli	zero,0x2
     fc8:	3600                	fld	fs0,40(a2)
     fca:	3171                	jal	c56 <sc_printf+0x22>
     fcc:	0100                	addi	s0,sp,128
     fce:	03fd                	addi	t2,t2,31
     fd0:	f10e                	fsw	ft3,160(sp)
     fd2:	000a                	c.slli	zero,0x2
     fd4:	3600                	fld	fs0,40(a2)
     fd6:	0062                	c.slli	zero,0x18
     fd8:	fe01                	bnez	a2,ef0 <main+0x280>
     fda:	0af10a03          	lb	s4,175(sp)
     fde:	0000                	unimp
     fe0:	6236                	flw	ft4,76(sp)
     fe2:	006d                	c.nop	27
     fe4:	fe01                	bnez	a2,efc <main+0x28c>
     fe6:	0af10d03          	lb	s10,175(sp)
     fea:	0000                	unimp
     fec:	7736                	flw	fa4,108(sp)
     fee:	c7010077          	0xc7010077
     ff2:	1104                	addi	s1,sp,160
     ff4:	0b92                	slli	s7,s7,0x4
     ff6:	0000                	unimp
     ff8:	00101837          	lui	a6,0x101
     ffc:	3800                	fld	fs0,48(s0)
     ffe:	0698                	addi	a4,sp,832
    1000:	0000                	unimp
    1002:	2e01                	jal	1312 <main+0x6a2>
    1004:	0404                	addi	s1,sp,512
    1006:	0af1                	addi	s5,s5,28
    1008:	0000                	unimp
    100a:	5f36                	lw	t5,108(sp)
    100c:	615f 0100 042e      	0x42e0100615f
    1012:	f104                	fsw	fs1,32(a0)
    1014:	000a                	c.slli	zero,0x2
    1016:	0000                	unimp
    1018:	00107937          	lui	s2,0x107
    101c:	3800                	fld	fs0,48(s0)
    101e:	0080                	addi	s0,sp,64
    1020:	0000                	unimp
    1022:	3a01                	jal	932 <vprintfmt.constprop.0+0x50c>
    1024:	0404                	addi	s1,sp,512
    1026:	0af1                	addi	s5,s5,28
    1028:	0000                	unimp
    102a:	7b38                	flw	fa4,112(a4)
    102c:	0000                	unimp
    102e:	0100                	addi	s0,sp,128
    1030:	043a                	slli	s0,s0,0xe
    1032:	f104                	fsw	fs1,32(a0)
    1034:	000a                	c.slli	zero,0x2
    1036:	3800                	fld	fs0,48(s0)
    1038:	061f 0000 3a01      	0x3a010000061f
    103e:	0404                	addi	s1,sp,512
    1040:	0af1                	addi	s5,s5,28
    1042:	0000                	unimp
    1044:	1a38                	addi	a4,sp,312
    1046:	0006                	c.slli	zero,0x1
    1048:	0100                	addi	s0,sp,128
    104a:	043a                	slli	s0,s0,0xe
    104c:	f104                	fsw	fs1,32(a0)
    104e:	000a                	c.slli	zero,0x2
    1050:	3800                	fld	fs0,48(s0)
    1052:	0716                	slli	a4,a4,0x5
    1054:	0000                	unimp
    1056:	3a01                	jal	966 <vprintfmt.constprop.0+0x540>
    1058:	0404                	addi	s1,sp,512
    105a:	0af1                	addi	s5,s5,28
    105c:	0000                	unimp
    105e:	1138                	addi	a4,sp,168
    1060:	01000007          	0x1000007
    1064:	043a                	slli	s0,s0,0xe
    1066:	f104                	fsw	fs1,32(a0)
    1068:	000a                	c.slli	zero,0x2
    106a:	3600                	fld	fs0,40(a2)
    106c:	5f5f 006d 3a01      	0x3a01006d5f5f
    1072:	0404                	addi	s1,sp,512
    1074:	0af1                	addi	s5,s5,28
    1076:	0000                	unimp
    1078:	3700                	fld	fs0,40(a4)
    107a:	1099                	addi	ra,ra,-26
    107c:	0000                	unimp
    107e:	9838                	0x9838
    1080:	0006                	c.slli	zero,0x1
    1082:	0100                	addi	s0,sp,128
    1084:	0446                	slli	s0,s0,0x11
    1086:	f104                	fsw	fs1,32(a0)
    1088:	000a                	c.slli	zero,0x2
    108a:	3600                	fld	fs0,40(a2)
    108c:	5f5f 0061 4601      	0x460100615f5f
    1092:	0404                	addi	s1,sp,512
    1094:	0af1                	addi	s5,s5,28
    1096:	0000                	unimp
    1098:	3700                	fld	fs0,40(a4)
    109a:	10fa                	slli	ra,ra,0x3e
    109c:	0000                	unimp
    109e:	8038                	0x8038
    10a0:	0000                	unimp
    10a2:	0100                	addi	s0,sp,128
    10a4:	045f f108 000a      	0xaf108045f
    10aa:	3800                	fld	fs0,48(s0)
    10ac:	0000007b          	0x7b
    10b0:	5f01                	li	t5,-32
    10b2:	0804                	addi	s1,sp,16
    10b4:	0af1                	addi	s5,s5,28
    10b6:	0000                	unimp
    10b8:	1f38                	addi	a4,sp,952
    10ba:	0006                	c.slli	zero,0x1
    10bc:	0100                	addi	s0,sp,128
    10be:	045f f108 000a      	0xaf108045f
    10c4:	3800                	fld	fs0,48(s0)
    10c6:	061a                	slli	a2,a2,0x6
    10c8:	0000                	unimp
    10ca:	5f01                	li	t5,-32
    10cc:	0804                	addi	s1,sp,16
    10ce:	0af1                	addi	s5,s5,28
    10d0:	0000                	unimp
    10d2:	1638                	addi	a4,sp,808
    10d4:	01000007          	0x1000007
    10d8:	045f f108 000a      	0xaf108045f
    10de:	3800                	fld	fs0,48(s0)
    10e0:	0711                	addi	a4,a4,4
    10e2:	0000                	unimp
    10e4:	5f01                	li	t5,-32
    10e6:	0804                	addi	s1,sp,16
    10e8:	0af1                	addi	s5,s5,28
    10ea:	0000                	unimp
    10ec:	5f36                	lw	t5,108(sp)
    10ee:	6d5f 0100 045f      	0x45f01006d5f
    10f4:	f108                	fsw	fa0,32(a0)
    10f6:	000a                	c.slli	zero,0x2
    10f8:	0000                	unimp
    10fa:	00115b37          	lui	s6,0x115
    10fe:	3800                	fld	fs0,48(s0)
    1100:	0080                	addi	s0,sp,64
    1102:	0000                	unimp
    1104:	6401                	0x6401
    1106:	0404                	addi	s1,sp,512
    1108:	0af1                	addi	s5,s5,28
    110a:	0000                	unimp
    110c:	7b38                	flw	fa4,112(a4)
    110e:	0000                	unimp
    1110:	0100                	addi	s0,sp,128
    1112:	0464                	addi	s1,sp,524
    1114:	f104                	fsw	fs1,32(a0)
    1116:	000a                	c.slli	zero,0x2
    1118:	3800                	fld	fs0,48(s0)
    111a:	061f 0000 6401      	0x64010000061f
    1120:	0404                	addi	s1,sp,512
    1122:	0af1                	addi	s5,s5,28
    1124:	0000                	unimp
    1126:	1a38                	addi	a4,sp,312
    1128:	0006                	c.slli	zero,0x1
    112a:	0100                	addi	s0,sp,128
    112c:	0464                	addi	s1,sp,524
    112e:	f104                	fsw	fs1,32(a0)
    1130:	000a                	c.slli	zero,0x2
    1132:	3800                	fld	fs0,48(s0)
    1134:	0716                	slli	a4,a4,0x5
    1136:	0000                	unimp
    1138:	6401                	0x6401
    113a:	0404                	addi	s1,sp,512
    113c:	0af1                	addi	s5,s5,28
    113e:	0000                	unimp
    1140:	1138                	addi	a4,sp,168
    1142:	01000007          	0x1000007
    1146:	0464                	addi	s1,sp,524
    1148:	f104                	fsw	fs1,32(a0)
    114a:	000a                	c.slli	zero,0x2
    114c:	3600                	fld	fs0,40(a2)
    114e:	5f5f 006d 6401      	0x6401006d5f5f
    1154:	0404                	addi	s1,sp,512
    1156:	0af1                	addi	s5,s5,28
    1158:	0000                	unimp
    115a:	3700                	fld	fs0,40(a4)
    115c:	0000117b          	0x117b
    1160:	9838                	0x9838
    1162:	0006                	c.slli	zero,0x1
    1164:	0100                	addi	s0,sp,128
    1166:	f1040487          	0xf1040487
    116a:	000a                	c.slli	zero,0x2
    116c:	3600                	fld	fs0,40(a2)
    116e:	5f5f 0061 8701      	0x870100615f5f
    1174:	0404                	addi	s1,sp,512
    1176:	0af1                	addi	s5,s5,28
    1178:	0000                	unimp
    117a:	3700                	fld	fs0,40(a4)
    117c:	118e                	slli	gp,gp,0x23
    117e:	0000                	unimp
    1180:	5f36                	lw	t5,108(sp)
    1182:	785f 0100 0495      	0x4950100785f
    1188:	f105                	bnez	a0,10a8 <main+0x438>
    118a:	000a                	c.slli	zero,0x2
    118c:	0000                	unimp
    118e:	3639                	jal	c9c <main+0x2c>
    1190:	316d                	jal	e3a <main+0x1ca>
    1192:	0100                	addi	s0,sp,128
    1194:	04a5                	addi	s1,s1,9
    1196:	000af10f          	0xaf10f
    119a:	3600                	fld	fs0,40(a2)
    119c:	306d                	jal	a46 <vprintfmt.constprop.0+0x620>
    119e:	0100                	addi	s0,sp,128
    11a0:	04a5                	addi	s1,s1,9
    11a2:	000af113          	andi	sp,s5,0
    11a6:	3700                	fld	fs0,40(a4)
    11a8:	1208                	addi	a0,sp,288
    11aa:	0000                	unimp
    11ac:	8038                	0x8038
    11ae:	0000                	unimp
    11b0:	0100                	addi	s0,sp,128
    11b2:	04b0                	addi	a2,sp,584
    11b4:	f108                	fsw	fa0,32(a0)
    11b6:	000a                	c.slli	zero,0x2
    11b8:	3800                	fld	fs0,48(s0)
    11ba:	0000007b          	0x7b
    11be:	b001                	j	9be <vprintfmt.constprop.0+0x598>
    11c0:	0804                	addi	s1,sp,16
    11c2:	0af1                	addi	s5,s5,28
    11c4:	0000                	unimp
    11c6:	1f38                	addi	a4,sp,952
    11c8:	0006                	c.slli	zero,0x1
    11ca:	0100                	addi	s0,sp,128
    11cc:	04b0                	addi	a2,sp,584
    11ce:	f108                	fsw	fa0,32(a0)
    11d0:	000a                	c.slli	zero,0x2
    11d2:	3800                	fld	fs0,48(s0)
    11d4:	061a                	slli	a2,a2,0x6
    11d6:	0000                	unimp
    11d8:	b001                	j	9d8 <vprintfmt.constprop.0+0x5b2>
    11da:	0804                	addi	s1,sp,16
    11dc:	0af1                	addi	s5,s5,28
    11de:	0000                	unimp
    11e0:	1638                	addi	a4,sp,808
    11e2:	01000007          	0x1000007
    11e6:	04b0                	addi	a2,sp,584
    11e8:	f108                	fsw	fa0,32(a0)
    11ea:	000a                	c.slli	zero,0x2
    11ec:	3800                	fld	fs0,48(s0)
    11ee:	0711                	addi	a4,a4,4
    11f0:	0000                	unimp
    11f2:	b001                	j	9f2 <vprintfmt.constprop.0+0x5cc>
    11f4:	0804                	addi	s1,sp,16
    11f6:	0af1                	addi	s5,s5,28
    11f8:	0000                	unimp
    11fa:	5f36                	lw	t5,108(sp)
    11fc:	6d5f 0100 04b0      	0x4b001006d5f
    1202:	f108                	fsw	fa0,32(a0)
    1204:	000a                	c.slli	zero,0x2
    1206:	0000                	unimp
    1208:	00127637          	lui	a2,0x127
    120c:	3800                	fld	fs0,48(s0)
    120e:	05b2                	slli	a1,a1,0xc
    1210:	0000                	unimp
    1212:	b101                	j	e12 <main+0x1a2>
    1214:	0804                	addi	s1,sp,16
    1216:	0af1                	addi	s5,s5,28
    1218:	0000                	unimp
    121a:	b738                	fsd	fa4,104(a4)
    121c:	0005                	c.nop	1
    121e:	0100                	addi	s0,sp,128
    1220:	04b1                	addi	s1,s1,12
    1222:	f108                	fsw	fa0,32(a0)
    1224:	000a                	c.slli	zero,0x2
    1226:	3800                	fld	fs0,48(s0)
    1228:	05bc                	addi	a5,sp,712
    122a:	0000                	unimp
    122c:	b101                	j	e2c <main+0x1bc>
    122e:	0804                	addi	s1,sp,16
    1230:	0af1                	addi	s5,s5,28
    1232:	0000                	unimp
    1234:	c138                	sw	a4,64(a0)
    1236:	0005                	c.nop	1
    1238:	0100                	addi	s0,sp,128
    123a:	04b1                	addi	s1,s1,12
    123c:	f108                	fsw	fa0,32(a0)
    123e:	000a                	c.slli	zero,0x2
    1240:	3800                	fld	fs0,48(s0)
    1242:	00000407          	0x407
    1246:	b101                	j	e46 <main+0x1d6>
    1248:	0804                	addi	s1,sp,16
    124a:	0af1                	addi	s5,s5,28
    124c:	0000                	unimp
    124e:	ca38                	sw	a4,80(a2)
    1250:	0004                	0x4
    1252:	0100                	addi	s0,sp,128
    1254:	04b1                	addi	s1,s1,12
    1256:	f108                	fsw	fa0,32(a0)
    1258:	000a                	c.slli	zero,0x2
    125a:	3800                	fld	fs0,48(s0)
    125c:	000003e7          	jalr	t2,zero # 0 <buf.1936>
    1260:	b101                	j	e60 <main+0x1f0>
    1262:	0804                	addi	s1,sp,16
    1264:	0af1                	addi	s5,s5,28
    1266:	0000                	unimp
    1268:	c538                	sw	a4,72(a0)
    126a:	0004                	0x4
    126c:	0100                	addi	s0,sp,128
    126e:	04b1                	addi	s1,s1,12
    1270:	f108                	fsw	fa0,32(a0)
    1272:	000a                	c.slli	zero,0x2
    1274:	0000                	unimp
    1276:	00128937          	lui	s2,0x128
    127a:	3600                	fld	fs0,40(a2)
    127c:	5f5f 0078 b601      	0xb60100785f5f
    1282:	0504                	addi	s1,sp,640
    1284:	0af1                	addi	s5,s5,28
    1286:	0000                	unimp
    1288:	3900                	fld	fs0,48(a0)
    128a:	5f36                	lw	t5,108(sp)
    128c:	785f 0100 04be      	0x4be0100785f
    1292:	f105                	bnez	a0,11b2 <main+0x542>
    1294:	000a                	c.slli	zero,0x2
    1296:	0000                	unimp
    1298:	0000                	unimp
    129a:	0b09040f          	0xb09040f
    129e:	0000                	unimp
    12a0:	1600                	addi	s0,sp,800
    12a2:	0012                	c.slli	zero,0x4
    12a4:	0400                	addi	s0,sp,512
    12a6:	ef00                	fsw	fs0,24(a4)
    12a8:	0002                	c.slli64	zero
    12aa:	0400                	addi	s0,sp,512
    12ac:	8801                	andi	s0,s0,0
    12ae:	0001                	nop
    12b0:	0c00                	addi	s0,sp,528
    12b2:	066c                	addi	a1,sp,780
    12b4:	0000                	unimp
    12b6:	00a9                	addi	ra,ra,10
    12b8:	0000                	unimp
    12ba:	1e00                	addi	s0,sp,816
    12bc:	0000                	unimp
    12be:	0434                	addi	a3,sp,520
    12c0:	0000                	unimp
    12c2:	09f4                	addi	a3,sp,220
    12c4:	0000                	unimp
    12c6:	0802                	c.slli64	a6
    12c8:	00035e07          	0x35e07
    12cc:	0200                	addi	s0,sp,256
    12ce:	0704                	addi	s1,sp,896
    12d0:	0368                	addi	a0,sp,396
    12d2:	0000                	unimp
    12d4:	69050403          	lb	s0,1680(a0) # fffea690 <__C_STACK_TOP__+0xfffda690>
    12d8:	746e                	flw	fs0,248(sp)
    12da:	0200                	addi	s0,sp,256
    12dc:	0508                	addi	a0,sp,640
    12de:	0278                	addi	a4,sp,268
    12e0:	0000                	unimp
    12e2:	1002                	c.slli	zero,0x20
    12e4:	9d04                	0x9d04
    12e6:	0000                	unimp
    12e8:	0200                	addi	s0,sp,256
    12ea:	0601                	addi	a2,a2,0
    12ec:	00000643          	fmadd.s	fa2,ft0,ft0,ft0,rne
    12f0:	0102                	c.slli64	sp
    12f2:	4108                	lw	a0,0(a0)
    12f4:	0006                	c.slli	zero,0x1
    12f6:	0200                	addi	s0,sp,256
    12f8:	0502                	c.slli64	a0
    12fa:	0000                	unimp
    12fc:	0000                	unimp
    12fe:	0202                	c.slli64	tp
    1300:	00037e07          	0x37e07
    1304:	0200                	addi	s0,sp,256
    1306:	0504                	addi	s1,sp,640
    1308:	027d                	addi	tp,tp,31
    130a:	0000                	unimp
    130c:	0402                	c.slli64	s0
    130e:	00036307          	0x36307
    1312:	0400                	addi	s0,sp,512
    1314:	04ee                	slli	s1,s1,0x1b
    1316:	0000                	unimp
    1318:	0c02                	c.slli64	s8
    131a:	330d                	jal	103c <main+0x3cc>
    131c:	0000                	unimp
    131e:	0400                	addi	s0,sp,512
    1320:	04be                	slli	s1,s1,0xf
    1322:	0000                	unimp
    1324:	640e2c03          	lw	s8,1600(t3) # 75db0 <__C_STACK_TOP__+0x65db0>
    1328:	0000                	unimp
    132a:	0400                	addi	s0,sp,512
    132c:	05d4                	addi	a3,sp,708
    132e:	0000                	unimp
    1330:	640e7203          	0x640e7203
    1334:	0000                	unimp
    1336:	0400                	addi	s0,sp,512
    1338:	000006d7          	0x6d7
    133c:	33179103          	lh	sp,817(a5)
    1340:	0000                	unimp
    1342:	0500                	addi	s0,sp,640
    1344:	03da                	slli	t2,t2,0x16
    1346:	0000                	unimp
    1348:	6504                	flw	fs1,8(a0)
    134a:	1701                	addi	a4,a4,-32
    134c:	002c                	addi	a1,sp,8
    134e:	0000                	unimp
    1350:	0406                	slli	s0,s0,0x1
    1352:	d103a603          	lw	a2,-752(t2)
    1356:	0000                	unimp
    1358:	0700                	addi	s0,sp,896
    135a:	03c5                	addi	t2,t2,17
    135c:	0000                	unimp
    135e:	a20ca803          	lw	a6,-1504(s9) # 2a20 <__clz_tab+0x164>
    1362:	0000                	unimp
    1364:	0700                	addi	s0,sp,896
    1366:	0330                	addi	a2,sp,392
    1368:	0000                	unimp
    136a:	d113a903          	lw	s2,-751(t2)
    136e:	0000                	unimp
    1370:	0000                	unimp
    1372:	4f08                	lw	a0,24(a4)
    1374:	0000                	unimp
    1376:	e100                	fsw	fs0,0(a0)
    1378:	0000                	unimp
    137a:	0900                	addi	s0,sp,144
    137c:	002c                	addi	a1,sp,8
    137e:	0000                	unimp
    1380:	080a0003          	lb	zero,128(s4) # 686e <__BSS_END__+0xa6e>
    1384:	0509a303          	lw	t1,80(s3)
    1388:	0001                	nop
    138a:	0b00                	addi	s0,sp,400
    138c:	0435                	addi	s0,s0,13
    138e:	0000                	unimp
    1390:	3307a503          	lw	a0,816(a5)
    1394:	0000                	unimp
    1396:	0000                	unimp
    1398:	0005c60b          	0x5c60b
    139c:	0300                	addi	s0,sp,384
    139e:	05aa                	slli	a1,a1,0xa
    13a0:	000000af          	0xaf
    13a4:	0004                	0x4
    13a6:	e304                	fsw	fs1,0(a4)
    13a8:	0004                	0x4
    13aa:	0300                	addi	s0,sp,384
    13ac:	00e103ab          	0xe103ab
    13b0:	0000                	unimp
    13b2:	3d04                	fld	fs1,56(a0)
    13b4:	0005                	c.nop	1
    13b6:	0300                	addi	s0,sp,384
    13b8:	00721baf          	0x721baf
    13bc:	0000                	unimp
    13be:	040c                	addi	a1,sp,512
    13c0:	5404                	lw	s1,40(s0)
    13c2:	0006                	c.slli	zero,0x1
    13c4:	0500                	addi	s0,sp,640
    13c6:	1916                	slli	s2,s2,0x25
    13c8:	0000006b          	0x6b
    13cc:	6e0d                	lui	t3,0x3
    13ce:	0004                	0x4
    13d0:	1800                	addi	s0,sp,48
    13d2:	2f05                	jal	1b02 <__moddi3+0x15a>
    13d4:	8508                	0x8508
    13d6:	0001                	nop
    13d8:	0b00                	addi	s0,sp,400
    13da:	0799                	addi	a5,a5,6
    13dc:	0000                	unimp
    13de:	3105                	jal	ffe <main+0x38e>
    13e0:	00018513          	mv	a0,gp
    13e4:	0000                	unimp
    13e6:	5f0e                	lw	t5,224(sp)
    13e8:	3205006b          	0x3205006b
    13ec:	00003307          	fld	ft6,0(zero) # 0 <buf.1936>
    13f0:	0400                	addi	s0,sp,512
    13f2:	0005a30b          	0x5a30b
    13f6:	0500                	addi	s0,sp,640
    13f8:	0b32                	slli	s6,s6,0xc
    13fa:	00000033          	add	zero,zero,zero
    13fe:	0b08                	addi	a0,sp,400
    1400:	02d4                	addi	a3,sp,324
    1402:	0000                	unimp
    1404:	3205                	jal	d24 <main+0xb4>
    1406:	3314                	fld	fa3,32(a4)
    1408:	0000                	unimp
    140a:	0c00                	addi	s0,sp,528
    140c:	00025a0b          	0x25a0b
    1410:	0500                	addi	s0,sp,640
    1412:	1b32                	slli	s6,s6,0x2c
    1414:	00000033          	add	zero,zero,zero
    1418:	0e10                	addi	a2,sp,784
    141a:	785f 0500 0b33      	0xb330500785f
    1420:	0000018b          	0x18b
    1424:	0014                	0x14
    1426:	012b040f          	0x12b040f
    142a:	0000                	unimp
    142c:	1f08                	addi	a0,sp,944
    142e:	0001                	nop
    1430:	9b00                	0x9b00
    1432:	0001                	nop
    1434:	0900                	addi	s0,sp,144
    1436:	002c                	addi	a1,sp,8
    1438:	0000                	unimp
    143a:	0000                	unimp
    143c:	130d                	addi	t1,t1,-29
    143e:	24000003          	lb	zero,576(zero) # 240 <_start+0x40>
    1442:	3705                	jal	1362 <main+0x6f2>
    1444:	1e08                	addi	a0,sp,816
    1446:	0002                	c.slli64	zero
    1448:	0b00                	addi	s0,sp,400
    144a:	0131                	addi	sp,sp,12
    144c:	0000                	unimp
    144e:	3905                	jal	107e <main+0x40e>
    1450:	3309                	jal	1152 <main+0x4e2>
    1452:	0000                	unimp
    1454:	0000                	unimp
    1456:	0007350b          	0x7350b
    145a:	0500                	addi	s0,sp,640
    145c:	093a                	slli	s2,s2,0xe
    145e:	00000033          	add	zero,zero,zero
    1462:	0b04                	addi	s1,sp,400
    1464:	014d                	addi	sp,sp,19
    1466:	0000                	unimp
    1468:	3b05                	jal	1198 <main+0x528>
    146a:	3309                	jal	116c <main+0x4fc>
    146c:	0000                	unimp
    146e:	0800                	addi	s0,sp,16
    1470:	00078a0b          	0x78a0b
    1474:	0500                	addi	s0,sp,640
    1476:	093c                	addi	a5,sp,152
    1478:	00000033          	add	zero,zero,zero
    147c:	0b0c                	addi	a1,sp,400
    147e:	0498                	addi	a4,sp,576
    1480:	0000                	unimp
    1482:	3d05                	jal	12b2 <main+0x642>
    1484:	3309                	jal	1186 <main+0x516>
    1486:	0000                	unimp
    1488:	1000                	addi	s0,sp,32
    148a:	00042b0b          	0x42b0b
    148e:	0500                	addi	s0,sp,640
    1490:	093e                	slli	s2,s2,0xf
    1492:	00000033          	add	zero,zero,zero
    1496:	0b14                	addi	a3,sp,400
    1498:	06c0                	addi	s0,sp,836
    149a:	0000                	unimp
    149c:	3f05                	jal	13cc <main+0x75c>
    149e:	3309                	jal	11a0 <main+0x530>
    14a0:	0000                	unimp
    14a2:	1800                	addi	s0,sp,48
    14a4:	0007710b          	0x7710b
    14a8:	0500                	addi	s0,sp,640
    14aa:	0940                	addi	s0,sp,148
    14ac:	00000033          	add	zero,zero,zero
    14b0:	0b1c                	addi	a5,sp,400
    14b2:	0000071b          	0x71b
    14b6:	4105                	li	sp,1
    14b8:	3309                	jal	11ba <main+0x54a>
    14ba:	0000                	unimp
    14bc:	2000                	fld	fs0,0(s0)
    14be:	1000                	addi	s0,sp,32
    14c0:	016a                	slli	sp,sp,0x1a
    14c2:	0000                	unimp
    14c4:	0108                	addi	a0,sp,128
    14c6:	4a05                	li	s4,1
    14c8:	6308                	flw	fa0,0(a4)
    14ca:	0002                	c.slli64	zero
    14cc:	0b00                	addi	s0,sp,400
    14ce:	000002c7          	fmsub.s	ft5,ft0,ft0,ft0,rne
    14d2:	4b05                	li	s6,1
    14d4:	630a                	flw	ft6,128(sp)
    14d6:	0002                	c.slli64	zero
    14d8:	0000                	unimp
    14da:	0005190b          	0x5190b
    14de:	0500                	addi	s0,sp,640
    14e0:	094c                	addi	a1,sp,148
    14e2:	00000263          	beqz	zero,14e6 <_strtol_l.isra.0+0x7a>
    14e6:	1180                	addi	s0,sp,224
    14e8:	0638                	addi	a4,sp,776
    14ea:	0000                	unimp
    14ec:	4e05                	li	t3,1
    14ee:	1f0a                	slli	t5,t5,0x22
    14f0:	0001                	nop
    14f2:	0000                	unimp
    14f4:	1101                	addi	sp,sp,-32
    14f6:	0252                	slli	tp,tp,0x14
    14f8:	0000                	unimp
    14fa:	5105                	li	sp,-31
    14fc:	1f0a                	slli	t5,t5,0x22
    14fe:	0001                	nop
    1500:	0400                	addi	s0,sp,512
    1502:	0001                	nop
    1504:	1d08                	addi	a0,sp,688
    1506:	0001                	nop
    1508:	7300                	flw	fs0,32(a4)
    150a:	0002                	c.slli64	zero
    150c:	0900                	addi	s0,sp,144
    150e:	002c                	addi	a1,sp,8
    1510:	0000                	unimp
    1512:	001f a110 0004      	0x4a110001f
    1518:	9000                	0x9000
    151a:	0501                	addi	a0,a0,0
    151c:	085d                	addi	a6,a6,23
    151e:	02b6                	slli	t0,t0,0xd
    1520:	0000                	unimp
    1522:	0007990b          	0x7990b
    1526:	0500                	addi	s0,sp,640
    1528:	125e                	slli	tp,tp,0x37
    152a:	02b6                	slli	t0,t0,0xd
    152c:	0000                	unimp
    152e:	0b00                	addi	s0,sp,400
    1530:	058c                	addi	a1,sp,704
    1532:	0000                	unimp
    1534:	5f05                	li	t5,-31
    1536:	3306                	fld	ft6,96(sp)
    1538:	0000                	unimp
    153a:	0400                	addi	s0,sp,512
    153c:	0002cf0b          	0x2cf0b
    1540:	0500                	addi	s0,sp,640
    1542:	0961                	addi	s2,s2,24
    1544:	02bc                	addi	a5,sp,328
    1546:	0000                	unimp
    1548:	0b08                	addi	a0,sp,400
    154a:	016a                	slli	sp,sp,0x1a
    154c:	0000                	unimp
    154e:	6205                	lui	tp,0x1
    1550:	1e1e                	slli	t3,t3,0x27
    1552:	0002                	c.slli64	zero
    1554:	8800                	0x8800
    1556:	0f00                	addi	s0,sp,912
    1558:	7304                	flw	fs1,32(a4)
    155a:	0002                	c.slli64	zero
    155c:	0800                	addi	s0,sp,16
    155e:	02cc                	addi	a1,sp,324
    1560:	0000                	unimp
    1562:	02cc                	addi	a1,sp,324
    1564:	0000                	unimp
    1566:	2c09                	jal	1778 <_mbtowc_r+0x18>
    1568:	0000                	unimp
    156a:	1f00                	addi	s0,sp,944
    156c:	0f00                	addi	s0,sp,912
    156e:	d204                	sw	s1,32(a2)
    1570:	0002                	c.slli64	zero
    1572:	1200                	addi	s0,sp,288
    1574:	830d                	srli	a4,a4,0x3
    1576:	08000007          	0x8000007
    157a:	7505                	lui	a0,0xfffe1
    157c:	fb08                	fsw	fa0,48(a4)
    157e:	0002                	c.slli64	zero
    1580:	0b00                	addi	s0,sp,400
    1582:	00000147          	fmsub.s	ft2,ft0,ft0,ft0,rne
    1586:	7605                	lui	a2,0xfffe1
    1588:	fb11                	bnez	a4,149c <_strtol_l.isra.0+0x30>
    158a:	0002                	c.slli64	zero
    158c:	0000                	unimp
    158e:	0005e50b          	0x5e50b
    1592:	0500                	addi	s0,sp,640
    1594:	00330677          	0x330677
    1598:	0000                	unimp
    159a:	0004                	0x4
    159c:	004f040f          	0x4f040f
    15a0:	0000                	unimp
    15a2:	680d                	lui	a6,0x3
    15a4:	0005                	c.nop	1
    15a6:	6800                	flw	fs0,16(s0)
    15a8:	b505                	j	13c8 <main+0x758>
    15aa:	4408                	lw	a0,8(s0)
    15ac:	0004                	0x4
    15ae:	0e00                	addi	s0,sp,784
    15b0:	705f 0500 12b6      	0x12b60500705f
    15b6:	000002fb          	0x2fb
    15ba:	0e00                	addi	s0,sp,784
    15bc:	725f 0500 07b7      	0x7b70500725f
    15c2:	00000033          	add	zero,zero,zero
    15c6:	0e04                	addi	s1,sp,784
    15c8:	775f 0500 07b8      	0x7b80500775f
    15ce:	00000033          	add	zero,zero,zero
    15d2:	0b08                	addi	a0,sp,400
    15d4:	0000024b          	fnmsub.s	ft4,ft0,ft0,ft0,rne
    15d8:	b905                	j	1208 <main+0x598>
    15da:	5609                	li	a2,-30
    15dc:	0000                	unimp
    15de:	0c00                	addi	s0,sp,528
    15e0:	00033f0b          	0x33f0b
    15e4:	0500                	addi	s0,sp,640
    15e6:	09ba                	slli	s3,s3,0xe
    15e8:	0056                	c.slli	zero,0x15
    15ea:	0000                	unimp
    15ec:	0e0e                	slli	t3,t3,0x3
    15ee:	625f 0066 bb05      	0xbb050066625f
    15f4:	d311                	beqz	a4,14f8 <_strtol_l.isra.0+0x8c>
    15f6:	0002                	c.slli64	zero
    15f8:	1000                	addi	s0,sp,32
    15fa:	0000850b          	0x850b
    15fe:	0500                	addi	s0,sp,640
    1600:	07bc                	addi	a5,sp,968
    1602:	00000033          	add	zero,zero,zero
    1606:	0b18                	addi	a4,sp,400
    1608:	0178                	addi	a4,sp,140
    160a:	0000                	unimp
    160c:	c305                	beqz	a4,162c <_strtol_r>
    160e:	1d0a                	slli	s10,s10,0x22
    1610:	0001                	nop
    1612:	1c00                	addi	s0,sp,560
    1614:	0005000b          	0x5000b
    1618:	0500                	addi	s0,sp,640
    161a:	1dc5                	addi	s11,s11,-15
    161c:	05c8                	addi	a0,sp,708
    161e:	0000                	unimp
    1620:	0b20                	addi	s0,sp,408
    1622:	0424                	addi	s1,sp,520
    1624:	0000                	unimp
    1626:	c705                	beqz	a4,164e <strtol_l+0x6>
    1628:	f71d                	bnez	a4,1556 <_strtol_l.isra.0+0xea>
    162a:	0005                	c.nop	1
    162c:	2400                	fld	fs0,8(s0)
    162e:	0005ce0b          	0x5ce0b
    1632:	0500                	addi	s0,sp,640
    1634:	0dca                	slli	s11,s11,0x12
    1636:	0000061b          	0x61b
    163a:	0b28                	addi	a0,sp,408
    163c:	013a                	slli	sp,sp,0xe
    163e:	0000                	unimp
    1640:	cb05                	beqz	a4,1670 <strtol+0xc>
    1642:	3509                	jal	1444 <_atoi_r+0x8>
    1644:	0006                	c.slli	zero,0x1
    1646:	2c00                	fld	fs0,24(s0)
    1648:	5f0e                	lw	t5,224(sp)
    164a:	6275                	lui	tp,0x1d
    164c:	0500                	addi	s0,sp,640
    164e:	11ce                	slli	gp,gp,0x33
    1650:	000002d3          	fadd.s	ft5,ft0,ft0,rne
    1654:	0e30                	addi	a2,sp,792
    1656:	755f 0070 cf05      	0xcf050070755f
    165c:	fb12                	fsw	ft4,180(sp)
    165e:	0002                	c.slli64	zero
    1660:	3800                	fld	fs0,48(s0)
    1662:	5f0e                	lw	t5,224(sp)
    1664:	7275                	lui	tp,0xffffd
    1666:	0500                	addi	s0,sp,640
    1668:	07d0                	addi	a2,sp,964
    166a:	00000033          	add	zero,zero,zero
    166e:	0b3c                	addi	a5,sp,408
    1670:	0141                	addi	sp,sp,16
    1672:	0000                	unimp
    1674:	d305                	beqz	a4,1594 <_strtol_l.isra.0+0x128>
    1676:	3b11                	jal	138a <main+0x71a>
    1678:	0006                	c.slli	zero,0x1
    167a:	4000                	lw	s0,0(s0)
    167c:	0007030b          	0x7030b
    1680:	0500                	addi	s0,sp,640
    1682:	11d4                	addi	a3,sp,228
    1684:	0000064b          	fnmsub.s	fa2,ft0,ft0,ft0,rne
    1688:	6c5f0e43          	0x6c5f0e43
    168c:	0062                	c.slli	zero,0x18
    168e:	d705                	beqz	a4,15b6 <_strtol_l.isra.0+0x14a>
    1690:	d311                	beqz	a4,1594 <_strtol_l.isra.0+0x128>
    1692:	0002                	c.slli64	zero
    1694:	4400                	lw	s0,8(s0)
    1696:	0005dc0b          	0x5dc0b
    169a:	0500                	addi	s0,sp,640
    169c:	07da                	slli	a5,a5,0x16
    169e:	00000033          	add	zero,zero,zero
    16a2:	0b4c                	addi	a1,sp,404
    16a4:	0466                	slli	s0,s0,0x19
    16a6:	0000                	unimp
    16a8:	db05                	beqz	a4,15d8 <_strtol_l.isra.0+0x16c>
    16aa:	7e0a                	flw	ft8,160(sp)
    16ac:	0000                	unimp
    16ae:	5000                	lw	s0,32(s0)
    16b0:	0000550b          	0x550b
    16b4:	0500                	addi	s0,sp,640
    16b6:	12de                	slli	t0,t0,0x37
    16b8:	0462                	slli	s0,s0,0x18
    16ba:	0000                	unimp
    16bc:	0b54                	addi	a3,sp,404
    16be:	03e1                	addi	t2,t2,24
    16c0:	0000                	unimp
    16c2:	e205                	bnez	a2,16e2 <_setlocale_r+0x52>
    16c4:	110c                	addi	a1,sp,160
    16c6:	0001                	nop
    16c8:	5800                	lw	s0,48(s0)
    16ca:	0003270b          	0x3270b
    16ce:	0500                	addi	s0,sp,640
    16d0:	0ee4                	addi	s1,sp,860
    16d2:	0105                	addi	sp,sp,1
    16d4:	0000                	unimp
    16d6:	0b5c                	addi	a5,sp,404
    16d8:	0546                	slli	a0,a0,0x11
    16da:	0000                	unimp
    16dc:	e505                	bnez	a0,1704 <__locale_mb_cur_max>
    16de:	3309                	jal	13e0 <main+0x770>
    16e0:	0000                	unimp
    16e2:	6400                	flw	fs0,8(s0)
    16e4:	1300                	addi	s0,sp,416
    16e6:	0096                	slli	ra,ra,0x5
    16e8:	0000                	unimp
    16ea:	0462                	slli	s0,s0,0x18
    16ec:	0000                	unimp
    16ee:	6214                	flw	fa3,0(a2)
    16f0:	0004                	0x4
    16f2:	1400                	addi	s0,sp,544
    16f4:	011d                	addi	sp,sp,7
    16f6:	0000                	unimp
    16f8:	b614                	fsd	fa3,40(a2)
    16fa:	0005                	c.nop	1
    16fc:	1400                	addi	s0,sp,544
    16fe:	00000033          	add	zero,zero,zero
    1702:	0f00                	addi	s0,sp,912
    1704:	6d04                	flw	fs1,24(a0)
    1706:	0004                	0x4
    1708:	1500                	addi	s0,sp,672
    170a:	0462                	slli	s0,s0,0x18
    170c:	0000                	unimp
    170e:	ab16                	fsd	ft5,400(sp)
    1710:	0005                	c.nop	1
    1712:	2800                	fld	fs0,16(s0)
    1714:	0504                	addi	s1,sp,640
    1716:	0239                	addi	tp,tp,14
    1718:	b608                	fsd	fa0,40(a2)
    171a:	0005                	c.nop	1
    171c:	1700                	addi	s0,sp,928
    171e:	0536                	slli	a0,a0,0xd
    1720:	0000                	unimp
    1722:	3b05                	jal	1452 <strnlen+0xa>
    1724:	0702                	c.slli64	a4
    1726:	00000033          	add	zero,zero,zero
    172a:	1700                	addi	s0,sp,928
    172c:	06d0                	addi	a2,sp,836
    172e:	0000                	unimp
    1730:	4005                	c.li	zero,1
    1732:	0b02                	c.slli64	s6
    1734:	000006a7          	0x6a7
    1738:	1704                	addi	s1,sp,928
    173a:	06b8                	addi	a4,sp,840
    173c:	0000                	unimp
    173e:	4005                	c.li	zero,1
    1740:	1402                	slli	s0,s0,0x20
    1742:	000006a7          	0x6a7
    1746:	1708                	addi	a0,sp,928
    1748:	02da                	slli	t0,t0,0x16
    174a:	0000                	unimp
    174c:	4005                	c.li	zero,1
    174e:	1e02                	slli	t3,t3,0x20
    1750:	000006a7          	0x6a7
    1754:	170c                	addi	a1,sp,928
    1756:	00000587          	0x587
    175a:	4205                	li	tp,1
    175c:	0802                	c.slli64	a6
    175e:	00000033          	add	zero,zero,zero
    1762:	1710                	addi	a2,sp,928
    1764:	0024                	addi	s1,sp,8
    1766:	0000                	unimp
    1768:	4305                	li	t1,1
    176a:	0802                	c.slli64	a6
    176c:	000008a7          	0x8a7
    1770:	1714                	addi	a3,sp,928
    1772:	02fa                	slli	t0,t0,0x1e
    1774:	0000                	unimp
    1776:	4605                	li	a2,1
    1778:	0702                	c.slli64	a4
    177a:	00000033          	add	zero,zero,zero
    177e:	1730                	addi	a2,sp,936
    1780:	0591                	addi	a1,a1,4
    1782:	0000                	unimp
    1784:	4705                	li	a4,1
    1786:	1602                	slli	a2,a2,0x20
    1788:	08bc                	addi	a5,sp,88
    178a:	0000                	unimp
    178c:	1734                	addi	a3,sp,936
    178e:	000004b3          	add	s1,zero,zero
    1792:	4905                	li	s2,1
    1794:	0702                	c.slli64	a4
    1796:	00000033          	add	zero,zero,zero
    179a:	1738                	addi	a4,sp,936
    179c:	0599                	addi	a1,a1,6
    179e:	0000                	unimp
    17a0:	4b05                	li	s6,1
    17a2:	0a02                	c.slli64	s4
    17a4:	08cd                	addi	a7,a7,19
    17a6:	0000                	unimp
    17a8:	173c                	addi	a5,sp,936
    17aa:	03bd                	addi	t2,t2,15
    17ac:	0000                	unimp
    17ae:	4e05                	li	t3,1
    17b0:	1302                	slli	t1,t1,0x20
    17b2:	0185                	addi	gp,gp,1
    17b4:	0000                	unimp
    17b6:	1740                	addi	s0,sp,932
    17b8:	0266                	slli	tp,tp,0x19
    17ba:	0000                	unimp
    17bc:	4f05                	li	t5,1
    17be:	0702                	c.slli64	a4
    17c0:	00000033          	add	zero,zero,zero
    17c4:	1744                	addi	s1,sp,932
    17c6:	076c                	addi	a1,sp,908
    17c8:	0000                	unimp
    17ca:	5005                	c.li	zero,-31
    17cc:	1302                	slli	t1,t1,0x20
    17ce:	0185                	addi	gp,gp,1
    17d0:	0000                	unimp
    17d2:	1748                	addi	a0,sp,932
    17d4:	000004cf          	fnmadd.s	fs1,ft0,ft0,ft0,rne
    17d8:	5105                	li	sp,-31
    17da:	1402                	slli	s0,s0,0x20
    17dc:	000008d3          	fadd.s	fa7,ft0,ft0,rne
    17e0:	174c                	addi	a1,sp,932
    17e2:	00000337          	lui	t1,0x0
    17e6:	5405                	li	s0,-31
    17e8:	0702                	c.slli64	a4
    17ea:	00000033          	add	zero,zero,zero
    17ee:	1750                	addi	a2,sp,932
    17f0:	00000293          	li	t0,0
    17f4:	5505                	li	a0,-31
    17f6:	0902                	c.slli64	s2
    17f8:	05b6                	slli	a1,a1,0xd
    17fa:	0000                	unimp
    17fc:	1754                	addi	a3,sp,932
    17fe:	0000052f          	0x52f
    1802:	7805                	lui	a6,0xfffe1
    1804:	0702                	c.slli64	a4
    1806:	0882                	c.slli64	a7
    1808:	0000                	unimp
    180a:	1858                	addi	a4,sp,52
    180c:	04a1                	addi	s1,s1,8
    180e:	0000                	unimp
    1810:	7c05                	lui	s8,0xfffe1
    1812:	1302                	slli	t1,t1,0x20
    1814:	02b6                	slli	t0,t0,0xd
    1816:	0000                	unimp
    1818:	0148                	addi	a0,sp,132
    181a:	9b18                	0x9b18
    181c:	05000003          	lb	zero,80(zero) # 50 <buflen.1937+0x10>
    1820:	027d                	addi	tp,tp,31
    1822:	7312                	flw	ft6,36(sp)
    1824:	0002                	c.slli64	zero
    1826:	4c00                	lw	s0,24(s0)
    1828:	1801                	addi	a6,a6,-32
    182a:	06ea                	slli	a3,a3,0x1a
    182c:	0000                	unimp
    182e:	8105                	srli	a0,a0,0x1
    1830:	0c02                	c.slli64	s8
    1832:	08e4                	addi	s1,sp,92
    1834:	0000                	unimp
    1836:	02dc                	addi	a5,sp,324
    1838:	8018                	0x8018
    183a:	0001                	nop
    183c:	0500                	addi	s0,sp,640
    183e:	0286                	slli	t0,t0,0x1
    1840:	6810                	flw	fa2,16(s0)
    1842:	0006                	c.slli	zero,0x1
    1844:	e000                	fsw	fs0,0(s0)
    1846:	1802                	slli	a6,a6,0x20
    1848:	0165                	addi	sp,sp,25
    184a:	0000                	unimp
    184c:	8805                	andi	s0,s0,1
    184e:	0a02                	c.slli64	s4
    1850:	08f0                	addi	a2,sp,92
    1852:	0000                	unimp
    1854:	02ec                	addi	a1,sp,332
    1856:	0f00                	addi	s0,sp,912
    1858:	bc04                	fsd	fs1,56(s0)
    185a:	0005                	c.nop	1
    185c:	0200                	addi	s0,sp,256
    185e:	0801                	addi	a6,a6,0
    1860:	064a                	slli	a2,a2,0x12
    1862:	0000                	unimp
    1864:	bc15                	j	1298 <main+0x628>
    1866:	0005                	c.nop	1
    1868:	0f00                	addi	s0,sp,912
    186a:	4404                	lw	s1,8(s0)
    186c:	0004                	0x4
    186e:	1300                	addi	s0,sp,416
    1870:	0096                	slli	ra,ra,0x5
    1872:	0000                	unimp
    1874:	05ec                	addi	a1,sp,716
    1876:	0000                	unimp
    1878:	6214                	flw	fa3,0(a2)
    187a:	0004                	0x4
    187c:	1400                	addi	s0,sp,544
    187e:	011d                	addi	sp,sp,7
    1880:	0000                	unimp
    1882:	ec14                	fsw	fa3,24(s0)
    1884:	0005                	c.nop	1
    1886:	1400                	addi	s0,sp,544
    1888:	00000033          	add	zero,zero,zero
    188c:	0f00                	addi	s0,sp,912
    188e:	c304                	sw	s1,0(a4)
    1890:	0005                	c.nop	1
    1892:	1500                	addi	s0,sp,672
    1894:	05ec                	addi	a1,sp,716
    1896:	0000                	unimp
    1898:	05ce040f          	0x5ce040f
    189c:	0000                	unimp
    189e:	00008a13          	mv	s4,ra
    18a2:	1b00                	addi	s0,sp,432
    18a4:	0006                	c.slli	zero,0x1
    18a6:	1400                	addi	s0,sp,544
    18a8:	0462                	slli	s0,s0,0x18
    18aa:	0000                	unimp
    18ac:	1d14                	addi	a3,sp,688
    18ae:	0001                	nop
    18b0:	1400                	addi	s0,sp,544
    18b2:	008a                	slli	ra,ra,0x2
    18b4:	0000                	unimp
    18b6:	3314                	fld	fa3,32(a4)
    18b8:	0000                	unimp
    18ba:	0000                	unimp
    18bc:	05fd040f          	0x5fd040f
    18c0:	0000                	unimp
    18c2:	00003313          	sltiu	t1,zero,0
    18c6:	3500                	fld	fs0,40(a0)
    18c8:	0006                	c.slli	zero,0x1
    18ca:	1400                	addi	s0,sp,544
    18cc:	0462                	slli	s0,s0,0x18
    18ce:	0000                	unimp
    18d0:	1d14                	addi	a3,sp,688
    18d2:	0001                	nop
    18d4:	0000                	unimp
    18d6:	0621040f          	0x621040f
    18da:	0000                	unimp
    18dc:	4f08                	lw	a0,24(a4)
    18de:	0000                	unimp
    18e0:	4b00                	lw	s0,16(a4)
    18e2:	0006                	c.slli	zero,0x1
    18e4:	0900                	addi	s0,sp,144
    18e6:	002c                	addi	a1,sp,8
    18e8:	0000                	unimp
    18ea:	0002                	c.slli64	zero
    18ec:	4f08                	lw	a0,24(a4)
    18ee:	0000                	unimp
    18f0:	5b00                	lw	s0,48(a4)
    18f2:	0006                	c.slli	zero,0x1
    18f4:	0900                	addi	s0,sp,144
    18f6:	002c                	addi	a1,sp,8
    18f8:	0000                	unimp
    18fa:	0000                	unimp
    18fc:	5f05                	li	t5,-31
    18fe:	0002                	c.slli64	zero
    1900:	0500                	addi	s0,sp,640
    1902:	011f 011a 0003      	0x3011a011f
    1908:	1900                	addi	s0,sp,176
    190a:	06ca                	slli	a3,a3,0x12
    190c:	0000                	unimp
    190e:	050c                	addi	a1,sp,640
    1910:	a1080123          	sb	a6,-1534(a6) # fffe0a02 <__C_STACK_TOP__+0xfffd0a02>
    1914:	0006                	c.slli	zero,0x1
    1916:	1700                	addi	s0,sp,928
    1918:	0799                	addi	a5,a5,6
    191a:	0000                	unimp
    191c:	2505                	jal	1f3c <__udivdi3+0x13c>
    191e:	1101                	addi	sp,sp,-32
    1920:	06a1                	addi	a3,a3,8
    1922:	0000                	unimp
    1924:	1700                	addi	s0,sp,928
    1926:	00000357          	0x357
    192a:	2605                	jal	1c4a <__moddi3+0x2a2>
    192c:	0701                	addi	a4,a4,0
    192e:	00000033          	add	zero,zero,zero
    1932:	1704                	addi	s1,sp,928
    1934:	054e                	slli	a0,a0,0x13
    1936:	0000                	unimp
    1938:	2705                	jal	2058 <__udivdi3+0x258>
    193a:	0b01                	addi	s6,s6,0
    193c:	000006a7          	0x6a7
    1940:	0008                	0x8
    1942:	0668040f          	0x668040f
    1946:	0000                	unimp
    1948:	065b040f          	0x65b040f
    194c:	0000                	unimp
    194e:	1c19                	addi	s8,s8,-26
    1950:	0000                	unimp
    1952:	0e00                	addi	s0,sp,784
    1954:	3f05                	jal	1884 <strcmp+0xa8>
    1956:	0801                	addi	a6,a6,0
    1958:	06e6                	slli	a3,a3,0x19
    195a:	0000                	unimp
    195c:	00060817          	auipc	a6,0x60
    1960:	0500                	addi	s0,sp,640
    1962:	0140                	addi	s0,sp,132
    1964:	e612                	fsw	ft4,12(sp)
    1966:	0006                	c.slli	zero,0x1
    1968:	0000                	unimp
    196a:	00040117          	auipc	sp,0x40
    196e:	0500                	addi	s0,sp,640
    1970:	0141                	addi	sp,sp,16
    1972:	e612                	fsw	ft4,12(sp)
    1974:	0006                	c.slli	zero,0x1
    1976:	0600                	addi	s0,sp,768
    1978:	00064f17          	auipc	t5,0x64
    197c:	0500                	addi	s0,sp,640
    197e:	0142                	slli	sp,sp,0x10
    1980:	5d12                	lw	s10,36(sp)
    1982:	0000                	unimp
    1984:	0c00                	addi	s0,sp,528
    1986:	0800                	addi	s0,sp,16
    1988:	005d                	c.nop	23
    198a:	0000                	unimp
    198c:	06f6                	slli	a3,a3,0x1d
    198e:	0000                	unimp
    1990:	2c09                	jal	1ba2 <__moddi3+0x1fa>
    1992:	0000                	unimp
    1994:	0200                	addi	s0,sp,256
    1996:	1a00                	addi	s0,sp,304
    1998:	05d0                	addi	a2,sp,708
    199a:	0259                	addi	tp,tp,22
    199c:	00080b07          	0x80b07
    19a0:	1700                	addi	s0,sp,928
    19a2:	043d                	addi	s0,s0,15
    19a4:	0000                	unimp
    19a6:	5b05                	li	s6,-31
    19a8:	1802                	slli	a6,a6,0x20
    19aa:	002c                	addi	a1,sp,8
    19ac:	0000                	unimp
    19ae:	1700                	addi	s0,sp,928
    19b0:	0624                	addi	s1,sp,776
    19b2:	0000                	unimp
    19b4:	5c05                	li	s8,-31
    19b6:	1202                	slli	tp,tp,0x20
    19b8:	05b6                	slli	a1,a1,0xd
    19ba:	0000                	unimp
    19bc:	1704                	addi	s1,sp,928
    19be:	03b0                	addi	a2,sp,456
    19c0:	0000                	unimp
    19c2:	5d05                	li	s10,-31
    19c4:	1002                	c.slli	zero,0x20
    19c6:	0000080b          	0x80b
    19ca:	1708                	addi	a0,sp,928
    19cc:	0726                	slli	a4,a4,0x9
    19ce:	0000                	unimp
    19d0:	5e05                	li	t3,-31
    19d2:	1702                	slli	a4,a4,0x20
    19d4:	0000019b          	0x19b
    19d8:	1724                	addi	s1,sp,936
    19da:	02e2                	slli	t0,t0,0x18
    19dc:	0000                	unimp
    19de:	5f05                	li	t5,-31
    19e0:	0f02                	c.slli64	t5
    19e2:	00000033          	add	zero,zero,zero
    19e6:	1748                	addi	a0,sp,932
    19e8:	0794                	addi	a3,sp,960
    19ea:	0000                	unimp
    19ec:	6005                	c.lui	zero,0x1
    19ee:	2c02                	fld	fs8,0(sp)
    19f0:	0025                	c.nop	9
    19f2:	0000                	unimp
    19f4:	1750                	addi	a2,sp,932
    19f6:	073e                	slli	a4,a4,0xf
    19f8:	0000                	unimp
    19fa:	6105                	addi	sp,sp,32
    19fc:	1a02                	slli	s4,s4,0x20
    19fe:	06ad                	addi	a3,a3,11
    1a00:	0000                	unimp
    1a02:	1758                	addi	a4,sp,932
    1a04:	057a                	slli	a0,a0,0x1e
    1a06:	0000                	unimp
    1a08:	6205                	lui	tp,0x1
    1a0a:	1602                	slli	a2,a2,0x20
    1a0c:	0105                	addi	sp,sp,1
    1a0e:	0000                	unimp
    1a10:	1768                	addi	a0,sp,940
    1a12:	075e                	slli	a4,a4,0x17
    1a14:	0000                	unimp
    1a16:	6305                	lui	t1,0x1
    1a18:	1602                	slli	a2,a2,0x20
    1a1a:	0105                	addi	sp,sp,1
    1a1c:	0000                	unimp
    1a1e:	1770                	addi	a2,sp,940
    1a20:	00000157          	0x157
    1a24:	6405                	lui	s0,0x1
    1a26:	1602                	slli	a2,a2,0x20
    1a28:	0105                	addi	sp,sp,1
    1a2a:	0000                	unimp
    1a2c:	1778                	addi	a4,sp,940
    1a2e:	06e0                	addi	s0,sp,844
    1a30:	0000                	unimp
    1a32:	6505                	lui	a0,0x1
    1a34:	1002                	c.slli	zero,0x20
    1a36:	0000081b          	0x81b
    1a3a:	1780                	addi	s0,sp,992
    1a3c:	03a4                	addi	s1,sp,456
    1a3e:	0000                	unimp
    1a40:	6605                	lui	a2,0x1
    1a42:	1002                	c.slli	zero,0x20
    1a44:	0000082b          	0x82b
    1a48:	1788                	addi	a0,sp,992
    1a4a:	0048                	addi	a0,sp,4
    1a4c:	0000                	unimp
    1a4e:	6705                	lui	a4,0x1
    1a50:	0f02                	c.slli64	t5
    1a52:	00000033          	add	zero,zero,zero
    1a56:	17a0                	addi	s0,sp,1000
    1a58:	02ac                	addi	a1,sp,328
    1a5a:	0000                	unimp
    1a5c:	6805                	lui	a6,0x1
    1a5e:	1602                	slli	a2,a2,0x20
    1a60:	0105                	addi	sp,sp,1
    1a62:	0000                	unimp
    1a64:	17a4                	addi	s1,sp,1000
    1a66:	011a                	slli	sp,sp,0x6
    1a68:	0000                	unimp
    1a6a:	6905                	lui	s2,0x1
    1a6c:	1602                	slli	a2,a2,0x20
    1a6e:	0105                	addi	sp,sp,1
    1a70:	0000                	unimp
    1a72:	17ac                	addi	a1,sp,1000
    1a74:	0000029b          	0x29b
    1a78:	6a05                	lui	s4,0x1
    1a7a:	1602                	slli	a2,a2,0x20
    1a7c:	0105                	addi	sp,sp,1
    1a7e:	0000                	unimp
    1a80:	17b4                	addi	a3,sp,1000
    1a82:	0000005b          	0x5b
    1a86:	6b05                	lui	s6,0x1
    1a88:	1602                	slli	a2,a2,0x20
    1a8a:	0105                	addi	sp,sp,1
    1a8c:	0000                	unimp
    1a8e:	17bc                	addi	a5,sp,1000
    1a90:	006a                	c.slli	zero,0x1a
    1a92:	0000                	unimp
    1a94:	6c05                	lui	s8,0x1
    1a96:	1602                	slli	a2,a2,0x20
    1a98:	0105                	addi	sp,sp,1
    1a9a:	0000                	unimp
    1a9c:	17c4                	addi	s1,sp,996
    1a9e:	0534                	addi	a3,sp,648
    1aa0:	0000                	unimp
    1aa2:	6d05                	lui	s10,0x1
    1aa4:	0802                	c.slli64	a6
    1aa6:	00000033          	add	zero,zero,zero
    1aaa:	00cc                	addi	a1,sp,68
    1aac:	bc08                	fsd	fa0,56(s0)
    1aae:	0005                	c.nop	1
    1ab0:	1b00                	addi	s0,sp,432
    1ab2:	0008                	0x8
    1ab4:	0900                	addi	s0,sp,144
    1ab6:	002c                	addi	a1,sp,8
    1ab8:	0000                	unimp
    1aba:	0019                	c.nop	6
    1abc:	bc08                	fsd	fa0,56(s0)
    1abe:	0005                	c.nop	1
    1ac0:	2b00                	fld	fs0,16(a4)
    1ac2:	0008                	0x8
    1ac4:	0900                	addi	s0,sp,144
    1ac6:	002c                	addi	a1,sp,8
    1ac8:	0000                	unimp
    1aca:	bc080007          	0xbc080007
    1ace:	0005                	c.nop	1
    1ad0:	3b00                	fld	fs0,48(a4)
    1ad2:	0008                	0x8
    1ad4:	0900                	addi	s0,sp,144
    1ad6:	002c                	addi	a1,sp,8
    1ad8:	0000                	unimp
    1ada:	f01a0017          	auipc	zero,0xf01a0
    1ade:	7205                	lui	tp,0xfffe1
    1ae0:	0702                	c.slli64	a4
    1ae2:	0862                	slli	a6,a6,0x18
    1ae4:	0000                	unimp
    1ae6:	0003cb17          	auipc	s6,0x3c
    1aea:	0500                	addi	s0,sp,640
    1aec:	0275                	addi	tp,tp,29
    1aee:	0008621b          	0x8621b
    1af2:	0000                	unimp
    1af4:	0002f117          	auipc	sp,0x2f
    1af8:	0500                	addi	s0,sp,640
    1afa:	0276                	slli	tp,tp,0x1d
    1afc:	7218                	flw	fa4,32(a2)
    1afe:	0008                	0x8
    1b00:	7800                	flw	fs0,48(s0)
    1b02:	0800                	addi	s0,sp,16
    1b04:	000002fb          	0x2fb
    1b08:	0872                	slli	a6,a6,0x1c
    1b0a:	0000                	unimp
    1b0c:	2c09                	jal	1d1e <__moddi3+0x376>
    1b0e:	0000                	unimp
    1b10:	1d00                	addi	s0,sp,688
    1b12:	0800                	addi	s0,sp,16
    1b14:	002c                	addi	a1,sp,8
    1b16:	0000                	unimp
    1b18:	0882                	c.slli64	a7
    1b1a:	0000                	unimp
    1b1c:	2c09                	jal	1d2e <__moddi3+0x386>
    1b1e:	0000                	unimp
    1b20:	1d00                	addi	s0,sp,688
    1b22:	1b00                	addi	s0,sp,432
    1b24:	05f0                	addi	a2,sp,716
    1b26:	a7030257          	0xa7030257
    1b2a:	0008                	0x8
    1b2c:	1c00                	addi	s0,sp,560
    1b2e:	000005ab          	0x5ab
    1b32:	6e05                	lui	t3,0x1
    1b34:	0b02                	c.slli64	s6
    1b36:	06f6                	slli	a3,a3,0x1d
    1b38:	0000                	unimp
    1b3a:	091c                	addi	a5,sp,144
    1b3c:	05000007          	0x5000007
    1b40:	3b0b0277          	0x3b0b0277
    1b44:	0008                	0x8
    1b46:	0000                	unimp
    1b48:	bc08                	fsd	fa0,56(s0)
    1b4a:	0005                	c.nop	1
    1b4c:	b700                	fsd	fs0,40(a4)
    1b4e:	0008                	0x8
    1b50:	0900                	addi	s0,sp,144
    1b52:	002c                	addi	a1,sp,8
    1b54:	0000                	unimp
    1b56:	0018                	0x18
    1b58:	0f1d                	addi	t5,t5,7
    1b5a:	0001                	nop
    1b5c:	0f00                	addi	s0,sp,912
    1b5e:	b704                	fsd	fs1,40(a4)
    1b60:	0008                	0x8
    1b62:	1e00                	addi	s0,sp,816
    1b64:	08cd                	addi	a7,a7,19
    1b66:	0000                	unimp
    1b68:	6214                	flw	fa3,0(a2)
    1b6a:	0004                	0x4
    1b6c:	0000                	unimp
    1b6e:	08c2040f          	0x8c2040f
    1b72:	0000                	unimp
    1b74:	0185040f          	0x185040f
    1b78:	0000                	unimp
    1b7a:	e41e                	fsw	ft7,8(sp)
    1b7c:	0008                	0x8
    1b7e:	1400                	addi	s0,sp,544
    1b80:	00000033          	add	zero,zero,zero
    1b84:	0f00                	addi	s0,sp,912
    1b86:	ea04                	fsw	fs1,16(a2)
    1b88:	0008                	0x8
    1b8a:	0f00                	addi	s0,sp,912
    1b8c:	d904                	sw	s1,48(a0)
    1b8e:	0008                	0x8
    1b90:	0800                	addi	s0,sp,16
    1b92:	0000065b          	0x65b
    1b96:	0900                	addi	s0,sp,144
    1b98:	0000                	unimp
    1b9a:	2c09                	jal	1dac <__moddi3+0x404>
    1b9c:	0000                	unimp
    1b9e:	0200                	addi	s0,sp,256
    1ba0:	1f00                	addi	s0,sp,944
    1ba2:	06a4                	addi	s1,sp,840
    1ba4:	0000                	unimp
    1ba6:	0705                	addi	a4,a4,1
    1ba8:	04621703          	lh	a4,70(tp) # fffe1046 <__C_STACK_TOP__+0xfffd1046>
    1bac:	0000                	unimp
    1bae:	9d1f 0006 0500      	0x50000069d1f
    1bb4:	0308                	addi	a0,sp,384
    1bb6:	681d                	lui	a6,0x7
    1bb8:	0004                	0x4
    1bba:	0800                	addi	s0,sp,16
    1bbc:	05f2                	slli	a1,a1,0x1c
    1bbe:	0000                	unimp
    1bc0:	0925                	addi	s2,s2,9
    1bc2:	0000                	unimp
    1bc4:	0020                	addi	s0,sp,8
    1bc6:	1a15                	addi	s4,s4,-27
    1bc8:	0009                	c.nop	2
    1bca:	2100                	fld	fs0,0(a0)
    1bcc:	0286                	slli	t0,t0,0x1
    1bce:	0000                	unimp
    1bd0:	1406                	slli	s0,s0,0x21
    1bd2:	2524                	fld	fs1,72(a0)
    1bd4:	0009                	c.nop	2
    1bd6:	2100                	fld	fs0,0(a0)
    1bd8:	0570                	addi	a2,sp,652
    1bda:	0000                	unimp
    1bdc:	1506                	slli	a0,a0,0x21
    1bde:	3315                	jal	1902 <strcmp+0x126>
    1be0:	0000                	unimp
    1be2:	0f00                	addi	s0,sp,912
    1be4:	4804                	lw	s1,16(s0)
    1be6:	0009                	c.nop	2
    1be8:	1300                	addi	s0,sp,416
    1bea:	00000033          	add	zero,zero,zero
    1bee:	095c                	addi	a5,sp,148
    1bf0:	0000                	unimp
    1bf2:	5c14                	lw	a3,56(s0)
    1bf4:	0009                	c.nop	2
    1bf6:	1400                	addi	s0,sp,544
    1bf8:	095c                	addi	a5,sp,148
    1bfa:	0000                	unimp
    1bfc:	0f00                	addi	s0,sp,912
    1bfe:	6204                	flw	fs1,0(a2)
    1c00:	0009                	c.nop	2
    1c02:	2200                	fld	fs0,0(a2)
    1c04:	a921                	j	201c <__udivdi3+0x21c>
    1c06:	0004                	0x4
    1c08:	0700                	addi	s0,sp,896
    1c0a:	05b60e63          	beq	a2,s11,1c66 <__moddi3+0x2be>
    1c0e:	0000                	unimp
    1c10:	d221                	beqz	a2,1b50 <__moddi3+0x1a8>
    1c12:	08000003          	lb	zero,128(zero) # 80 <buflen.1937+0x40>
    1c16:	0f10                	addi	a2,sp,912
    1c18:	0000097b          	0x97b
    1c1c:	05b6040f          	0x5b6040f
    1c20:	0000                	unimp
    1c22:	ac21                	j	1e3a <__udivdi3+0x3a>
    1c24:	0004                	0x4
    1c26:	0800                	addi	s0,sp,16
    1c28:	0efc                	addi	a5,sp,860
    1c2a:	05b6                	slli	a1,a1,0xd
    1c2c:	0000                	unimp
    1c2e:	8e21                	xor	a2,a2,s0
    1c30:	0000                	unimp
    1c32:	0800                	addi	s0,sp,16
    1c34:	0cfd                	addi	s9,s9,31
    1c36:	00000033          	add	zero,zero,zero
    1c3a:	0e21                	addi	t3,t3,8
    1c3c:	0006                	c.slli	zero,0x1
    1c3e:	0800                	addi	s0,sp,16
    1c40:	14fd                	addi	s1,s1,-1
    1c42:	00000033          	add	zero,zero,zero
    1c46:	4d21                	li	s10,8
    1c48:	08000007          	0x8000007
    1c4c:	1cfd                	addi	s9,s9,-1
    1c4e:	00000033          	add	zero,zero,zero
    1c52:	1b21                	addi	s6,s6,-24
    1c54:	0004                	0x4
    1c56:	0800                	addi	s0,sp,16
    1c58:	0cff                	0xcff
    1c5a:	00000033          	add	zero,zero,zero
    1c5e:	d921                	beqz	a0,1bae <__moddi3+0x206>
    1c60:	0004                	0x4
    1c62:	0900                	addi	s0,sp,144
    1c64:	169a                	slli	a3,a3,0x26
    1c66:	0064                	addi	s1,sp,12
    1c68:	0000                	unimp
    1c6a:	2f21                	jal	2382 <__umoddi3+0x14e>
    1c6c:	0000                	unimp
    1c6e:	0900                	addi	s0,sp,144
    1c70:	0033159b          	0x33159b
    1c74:	0000                	unimp
    1c76:	b608                	fsd	fa0,40(a2)
    1c78:	0005                	c.nop	1
    1c7a:	e500                	fsw	fs0,8(a0)
    1c7c:	0009                	c.nop	2
    1c7e:	0900                	addi	s0,sp,144
    1c80:	002c                	addi	a1,sp,8
    1c82:	0000                	unimp
    1c84:	0001                	nop
    1c86:	2921                	jal	209e <__udivdi3+0x29e>
    1c88:	0001                	nop
    1c8a:	0900                	addi	s0,sp,144
    1c8c:	179e                	slli	a5,a5,0x27
    1c8e:	09d5                	addi	s3,s3,21
    1c90:	0000                	unimp
    1c92:	4504                	lw	s1,8(a0)
    1c94:	0a000003          	lb	zero,160(zero) # a0 <buflen.1937+0x60>
    1c98:	162a                	slli	a2,a2,0x2a
    1c9a:	002c                	addi	a1,sp,8
    1c9c:	0000                	unimp
    1c9e:	5e04                	lw	s1,56(a2)
    1ca0:	0005                	c.nop	1
    1ca2:	0a00                	addi	s0,sp,272
    1ca4:	0a09152f          	0xa09152f
    1ca8:	0000                	unimp
    1caa:	0a0f040f          	0xa0f040f
    1cae:	0000                	unimp
    1cb0:	0009f113          	andi	sp,s3,0
    1cb4:	1e00                	addi	s0,sp,816
    1cb6:	000a                	c.slli	zero,0x2
    1cb8:	1400                	addi	s0,sp,544
    1cba:	095c                	addi	a5,sp,148
    1cbc:	0000                	unimp
    1cbe:	0400                	addi	s0,sp,512
    1cc0:	079f 0000 360a      	0x360a0000079f
    1cc6:	0009420f          	0x9420f
    1cca:	2100                	fld	fs0,0(a0)
    1ccc:	000a                	c.slli	zero,0x2
    1cce:	0000                	unimp
    1cd0:	bb0a                	fsd	ft2,432(sp)
    1cd2:	fd12                	fsw	ft4,184(sp)
    1cd4:	0009                	c.nop	2
    1cd6:	2100                	fld	fs0,0(a0)
    1cd8:	065c                	addi	a5,sp,772
    1cda:	0000                	unimp
    1cdc:	be0a                	fsd	ft2,312(sp)
    1cde:	1e10                	addi	a2,sp,816
    1ce0:	000a                	c.slli	zero,0x2
    1ce2:	2300                	fld	fs0,0(a4)
    1ce4:	0318                	addi	a4,sp,384
    1ce6:	0000                	unimp
    1ce8:	002c0407          	0x2c0407
    1cec:	0000                	unimp
    1cee:	7f06180b          	0x7f06180b
    1cf2:	000a                	c.slli	zero,0x2
    1cf4:	2400                	fld	fs0,8(s0)
    1cf6:	0000050f          	0x50f
    1cfa:	2400                	fld	fs0,8(s0)
    1cfc:	03f6                	slli	t2,t2,0x1d
    1cfe:	0000                	unimp
    1d00:	2401                	jal	1f00 <__udivdi3+0x100>
    1d02:	047f                	0x47f
    1d04:	0000                	unimp
    1d06:	2402                	fld	fs0,0(sp)
    1d08:	044a                	slli	s0,s0,0x12
    1d0a:	0000                	unimp
    1d0c:	05062403          	lw	s0,80(a2) # 1050 <main+0x3e0>
    1d10:	0000                	unimp
    1d12:	2404                	fld	fs1,8(s0)
    1d14:	0754                	addi	a3,sp,900
    1d16:	0000                	unimp
    1d18:	2405                	jal	1f38 <__udivdi3+0x138>
    1d1a:	00000743          	fmadd.s	fa4,ft0,ft0,ft0,rne
    1d1e:	0006                	c.slli	zero,0x1
    1d20:	ec21                	bnez	s0,1d78 <__moddi3+0x3d0>
    1d22:	0b000003          	lb	zero,176(zero) # b0 <buflen.1937+0x70>
    1d26:	1c21                	addi	s8,s8,-24
    1d28:	0a42                	slli	s4,s4,0x10
    1d2a:	0000                	unimp
    1d2c:	00045523          	0x45523
    1d30:	0700                	addi	s0,sp,896
    1d32:	2c04                	fld	fs1,24(s0)
    1d34:	0000                	unimp
    1d36:	0b00                	addi	s0,sp,400
    1d38:	0ab00623          	sb	a1,172(zero) # ac <buflen.1937+0x6c>
    1d3c:	0000                	unimp
    1d3e:	5424                	lw	s1,104(s0)
    1d40:	0005                	c.nop	1
    1d42:	0000                	unimp
    1d44:	2524                	fld	fs1,72(a0)
    1d46:	0005                	c.nop	1
    1d48:	0100                	addi	s0,sp,128
    1d4a:	3124                	fld	fs1,96(a0)
    1d4c:	0006                	c.slli	zero,0x1
    1d4e:	0200                	addi	s0,sp,256
    1d50:	2100                	fld	fs0,0(a0)
    1d52:	02ba                	slli	t0,t0,0xe
    1d54:	0000                	unimp
    1d56:	8b1e280b          	0x8b1e280b
    1d5a:	000a                	c.slli	zero,0x2
    1d5c:	2100                	fld	fs0,0(a0)
    1d5e:	040c                	addi	a1,sp,512
    1d60:	0000                	unimp
    1d62:	290c                	fld	fa1,16(a0)
    1d64:	251a                	fld	fa0,384(sp)
    1d66:	0009                	c.nop	2
    1d68:	2100                	fld	fs0,0(a0)
    1d6a:	05f8                	addi	a4,sp,716
    1d6c:	0000                	unimp
    1d6e:	380c                	fld	fa1,48(s0)
    1d70:	251a                	fld	fa0,384(sp)
    1d72:	0009                	c.nop	2
    1d74:	0400                	addi	s0,sp,512
    1d76:	0000077b          	0x77b
    1d7a:	7b0d                	lui	s6,0xfffe3
    1d7c:	4f16                	lw	t5,68(sp)
    1d7e:	0000                	unimp
    1d80:	1500                	addi	s0,sp,672
    1d82:	0ad4                	addi	a3,sp,340
    1d84:	0000                	unimp
    1d86:	7104                	flw	fs1,32(a0)
    1d88:	0002                	c.slli64	zero
    1d8a:	0d00                	addi	s0,sp,656
    1d8c:	0f80                	addi	s0,sp,976
    1d8e:	00000033          	add	zero,zero,zero
    1d92:	7004                	flw	fs1,32(s0)
    1d94:	0002                	c.slli64	zero
    1d96:	0d00                	addi	s0,sp,656
    1d98:	1681                	addi	a3,a3,-32
    1d9a:	002c                	addi	a1,sp,8
    1d9c:	0000                	unimp
    1d9e:	b104                	fsd	fs1,32(a0)
    1da0:	0006                	c.slli	zero,0x1
    1da2:	0d00                	addi	s0,sp,656
    1da4:	0f84                	addi	s1,sp,976
    1da6:	003a                	c.slli	zero,0xe
    1da8:	0000                	unimp
    1daa:	b004                	fsd	fs1,32(s0)
    1dac:	0006                	c.slli	zero,0x1
    1dae:	0d00                	addi	s0,sp,656
    1db0:	1685                	addi	a3,a3,-31
    1db2:	0025                	c.nop	9
    1db4:	0000                	unimp
    1db6:	0402                	c.slli64	s0
    1db8:	9204                	0x9204
    1dba:	0004                	0x4
    1dbc:	0200                	addi	s0,sp,256
    1dbe:	0308                	addi	a0,sp,384
    1dc0:	048a                	slli	s1,s1,0x2
    1dc2:	0000                	unimp
    1dc4:	0802                	c.slli64	a6
    1dc6:	a204                	fsd	fs1,0(a2)
    1dc8:	0000                	unimp
    1dca:	0200                	addi	s0,sp,256
    1dcc:	0310                	addi	a2,sp,384
    1dce:	0039                	c.nop	14
    1dd0:	0000                	unimp
    1dd2:	2002                	fld	ft0,0(sp)
    1dd4:	00009503          	lh	a0,0(ra)
    1dd8:	1900                	addi	s0,sp,176
    1dda:	0375                	addi	t1,t1,29
    1ddc:	0000                	unimp
    1dde:	0d08                	addi	a0,sp,656
    1de0:	01ed                	addi	gp,gp,27
    1de2:	630a                	flw	ft6,128(sp)
    1de4:	2500000b          	0x2500000b
    1de8:	6f6c                	flw	fa1,92(a4)
    1dea:	ed0d0077          	0xed0d0077
    1dee:	1a01                	addi	s4,s4,-32
    1df0:	0ae5                	addi	s5,s5,25
    1df2:	0000                	unimp
    1df4:	1700                	addi	s0,sp,928
    1df6:	0615                	addi	a2,a2,5
    1df8:	0000                	unimp
    1dfa:	ed0d                	bnez	a0,1e34 <__udivdi3+0x34>
    1dfc:	1f01                	addi	t5,t5,-32
    1dfe:	0ae5                	addi	s5,s5,25
    1e00:	0000                	unimp
    1e02:	0004                	0x4
    1e04:	f40d081b          	0xf40d081b
    1e08:	0901                	addi	s2,s2,0
    1e0a:	0b85                	addi	s7,s7,1
    1e0c:	0000                	unimp
    1e0e:	7326                	flw	ft6,104(sp)
    1e10:	0d00                	addi	s0,sp,656
    1e12:	01f6                	slli	gp,gp,0x1d
    1e14:	000b3813          	sltiu	a6,s6,0
    1e18:	2600                	fld	fs0,8(a2)
    1e1a:	6c6c                	flw	fa1,92(s0)
    1e1c:	0d00                	addi	s0,sp,656
    1e1e:	fd0a01f7          	0xfd0a01f7
    1e22:	000a                	c.slli	zero,0x2
    1e24:	0000                	unimp
    1e26:	4f05                	li	t5,1
    1e28:	0d000003          	lb	zero,208(zero) # d0 <buflen.1937+0x90>
    1e2c:	01f8                	addi	a4,sp,204
    1e2e:	000b6303          	0xb6303
    1e32:	1500                	addi	s0,sp,672
    1e34:	0b85                	addi	s7,s7,1
    1e36:	0000                	unimp
    1e38:	e008                	fsw	fa0,0(s0)
    1e3a:	000a                	c.slli	zero,0x2
    1e3c:	a700                	fsd	fs0,8(a4)
    1e3e:	0900000b          	0x900000b
    1e42:	002c                	addi	a1,sp,8
    1e44:	0000                	unimp
    1e46:	00ff                	0xff
    1e48:	9715                	srai	a4,a4,0x25
    1e4a:	1f00000b          	0x1f00000b
    1e4e:	06f4                	addi	a3,sp,844
    1e50:	0000                	unimp
    1e52:	fc0d                	bnez	s0,1d8c <__moddi3+0x3e4>
    1e54:	1601                	addi	a2,a2,-32
    1e56:	00000ba7          	0xba7
    1e5a:	911f 0003 0d00      	0xd000003911f
    1e60:	0202                	c.slli64	tp
    1e62:	a716                	fsd	ft5,392(sp)
    1e64:	2700000b          	0x2700000b
    1e68:	000007a7          	0x7a7
    1e6c:	2601                	jal	216c <__udivdi3+0x36c>
    1e6e:	0105                	addi	sp,sp,1
    1e70:	0b09                	addi	s6,s6,2
    1e72:	0000                	unimp
    1e74:	1e00                	addi	s0,sp,816
    1e76:	0000                	unimp
    1e78:	0434                	addi	a3,sp,520
    1e7a:	0000                	unimp
    1e7c:	9c01                	0x9c01
    1e7e:	0ea2                	slli	t4,t4,0x8
    1e80:	0000                	unimp
    1e82:	6e28                	flw	fa0,88(a2)
    1e84:	0100                	addi	s0,sp,128
    1e86:	0526                	slli	a0,a0,0x9
    1e88:	0914                	addi	a3,sp,144
    1e8a:	3500000b          	0x3500000b
    1e8e:	000a                	c.slli	zero,0x2
    1e90:	2800                	fld	fs0,16(s0)
    1e92:	0064                	addi	s1,sp,12
    1e94:	2601                	jal	2194 <__udivdi3+0x394>
    1e96:	1f05                	addi	t5,t5,-31
    1e98:	0b09                	addi	s6,s6,2
    1e9a:	0000                	unimp
    1e9c:	0aed                	addi	s5,s5,27
    1e9e:	0000                	unimp
    1ea0:	a229                	j	1faa <__udivdi3+0x1aa>
    1ea2:	000e                	c.slli	zero,0x3
    1ea4:	0000                	unimp
    1ea6:	001e                	c.slli	zero,0x7
    1ea8:	b800                	fsd	fs0,48(s0)
    1eaa:	0000                	unimp
    1eac:	0100                	addi	s0,sp,128
    1eae:	0528                	addi	a0,sp,648
    1eb0:	2a0a                	fld	fs4,128(sp)
    1eb2:	0eca                	slli	t4,t4,0x12
    1eb4:	0000                	unimp
    1eb6:	0b85                	addi	s7,s7,1
    1eb8:	0000                	unimp
    1eba:	bf2a                	fsd	fa0,440(sp)
    1ebc:	000e                	c.slli	zero,0x3
    1ebe:	a500                	fsd	fs0,8(a0)
    1ec0:	2a00000b          	0x2a00000b
    1ec4:	0eb4                	addi	a3,sp,856
    1ec6:	0000                	unimp
    1ec8:	0c3d                	addi	s8,s8,15
    1eca:	0000                	unimp
    1ecc:	0000b82b          	0xb82b
    1ed0:	2c00                	fld	fs0,24(s0)
    1ed2:	0ed6                	slli	t4,t4,0x15
    1ed4:	0000                	unimp
    1ed6:	e22c                	fsw	fa1,64(a2)
    1ed8:	000e                	c.slli	zero,0x3
    1eda:	2c00                	fld	fs0,24(s0)
    1edc:	0eee                	slli	t4,t4,0x1b
    1ede:	0000                	unimp
    1ee0:	fa2d                	bnez	a2,1e52 <__udivdi3+0x52>
    1ee2:	000e                	c.slli	zero,0x3
    1ee4:	f500                	fsw	fs0,40(a0)
    1ee6:	000c                	0xc
    1ee8:	2d00                	fld	fs0,24(a0)
    1eea:	0f06                	slli	t5,t5,0x1
    1eec:	0000                	unimp
    1eee:	0d90                	addi	a2,sp,720
    1ef0:	0000                	unimp
    1ef2:	122d                	addi	tp,tp,-21
    1ef4:	0600000f          	fence	or,unknown
    1ef8:	000e                	c.slli	zero,0x3
    1efa:	2d00                	fld	fs0,24(a0)
    1efc:	0f1e                	slli	t5,t5,0x7
    1efe:	0000                	unimp
    1f00:	0e76                	slli	t3,t3,0x1d
    1f02:	0000                	unimp
    1f04:	2a2d                	jal	203e <__udivdi3+0x23e>
    1f06:	2300000f          	0x2300000f
    1f0a:	2d00000f          	0x2d00000f
    1f0e:	0f36                	slli	t5,t5,0xd
    1f10:	0000                	unimp
    1f12:	0f41                	addi	t5,t5,16
    1f14:	0000                	unimp
    1f16:	422d                	li	tp,11
    1f18:	5f00000f          	0x5f00000f
    1f1c:	2d00000f          	0x2d00000f
    1f20:	0f4e                	slli	t5,t5,0x13
    1f22:	0000                	unimp
    1f24:	0f89                	addi	t6,t6,2
    1f26:	0000                	unimp
    1f28:	592d                	li	s2,-21
    1f2a:	a700000f          	0xa700000f
    1f2e:	2c00000f          	0x2c00000f
    1f32:	0f65                	addi	t5,t5,25
    1f34:	0000                	unimp
    1f36:	712e                	flw	ft2,232(sp)
    1f38:	e000000f          	0xe000000f
    1f3c:	0000                	unimp
    1f3e:	b500                	fsd	fs0,40(a0)
    1f40:	000c                	0xc
    1f42:	2d00                	fld	fs0,24(a0)
    1f44:	0f76                	slli	t5,t5,0x1d
    1f46:	0000                	unimp
    1f48:	0fe6                	slli	t6,t6,0x19
    1f4a:	0000                	unimp
    1f4c:	832d                	srli	a4,a4,0xb
    1f4e:	2200000f          	0x2200000f
    1f52:	0010                	0x10
    1f54:	0000                	unimp
    1f56:	000f912f          	0xf912f
    1f5a:	6400                	flw	fs0,8(s0)
    1f5c:	001e                	c.slli	zero,0x7
    1f5e:	8800                	0x8800
    1f60:	0000                	unimp
    1f62:	0600                	addi	s0,sp,768
    1f64:	000d                	c.nop	3
    1f66:	2d00                	fld	fs0,24(a0)
    1f68:	0f96                	slli	t6,t6,0x5
    1f6a:	0000                	unimp
    1f6c:	1035                	c.nop	-19
    1f6e:	0000                	unimp
    1f70:	a32d                	j	249a <__umoddi3+0x266>
    1f72:	5700000f          	0x5700000f
    1f76:	0010                	0x10
    1f78:	2d00                	fld	fs0,24(a0)
    1f7a:	0fb0                	addi	a2,sp,984
    1f7c:	0000                	unimp
    1f7e:	106a                	c.slli	zero,0x3a
    1f80:	0000                	unimp
    1f82:	bd2d                	j	1dbc <__moddi3+0x414>
    1f84:	8800000f          	0x8800000f
    1f88:	0010                	0x10
    1f8a:	2d00                	fld	fs0,24(a0)
    1f8c:	0fca                	slli	t6,t6,0x12
    1f8e:	0000                	unimp
    1f90:	10a6                	slli	ra,ra,0x29
    1f92:	0000                	unimp
    1f94:	d72d                	beqz	a4,1efe <__udivdi3+0xfe>
    1f96:	cf00000f          	0xcf00000f
    1f9a:	0010                	0x10
    1f9c:	2d00                	fld	fs0,24(a0)
    1f9e:	0fe4                	addi	s1,sp,988
    1fa0:	0000                	unimp
    1fa2:	10ed                	addi	ra,ra,-5
    1fa4:	0000                	unimp
    1fa6:	2e00                	fld	fs0,24(a2)
    1fa8:	00001107          	0x1107
    1fac:	00f8                	addi	a4,sp,76
    1fae:	0000                	unimp
    1fb0:	0dc5                	addi	s11,s11,17
    1fb2:	0000                	unimp
    1fb4:	082d                	addi	a6,a6,11
    1fb6:	0011                	c.nop	4
    1fb8:	1b00                	addi	s0,sp,432
    1fba:	0011                	c.nop	4
    1fbc:	2d00                	fld	fs0,24(a0)
    1fbe:	1114                	addi	a3,sp,160
    1fc0:	0000                	unimp
    1fc2:	112e                	slli	sp,sp,0x2b
    1fc4:	0000                	unimp
    1fc6:	202e                	fld	ft0,200(sp)
    1fc8:	0011                	c.nop	4
    1fca:	1000                	addi	s0,sp,32
    1fcc:	0001                	nop
    1fce:	7200                	flw	fs0,32(a2)
    1fd0:	000d                	c.nop	3
    1fd2:	2d00                	fld	fs0,24(a0)
    1fd4:	1125                	addi	sp,sp,-23
    1fd6:	0000                	unimp
    1fd8:	0000116f          	jal	sp,2fd8 <impure_data+0x28>
    1fdc:	322d                	jal	1906 <strcmp+0x12a>
    1fde:	0011                	c.nop	4
    1fe0:	9100                	0x9100
    1fe2:	0011                	c.nop	4
    1fe4:	2d00                	fld	fs0,24(a0)
    1fe6:	0000113f 000011b5 	0x11b50000113f
    1fee:	4c2d                	li	s8,11
    1ff0:	0011                	c.nop	4
    1ff2:	d300                	sw	s0,32(a4)
    1ff4:	0011                	c.nop	4
    1ff6:	2d00                	fld	fs0,24(a0)
    1ff8:	1159                	addi	sp,sp,-10
    1ffa:	0000                	unimp
    1ffc:	11f1                	addi	gp,gp,-4
    1ffe:	0000                	unimp
    2000:	662d                	lui	a2,0xb
    2002:	0011                	c.nop	4
    2004:	2c00                	fld	fs0,24(s0)
    2006:	0012                	c.slli	zero,0x4
    2008:	2d00                	fld	fs0,24(a0)
    200a:	00001173          	csrrw	sp,ustatus,zero
    200e:	1269                	addi	tp,tp,-6
    2010:	0000                	unimp
    2012:	3000                	fld	fs0,32(s0)
    2014:	1181                	addi	gp,gp,-32
    2016:	0000                	unimp
    2018:	0140                	addi	s0,sp,132
    201a:	0000                	unimp
    201c:	862d                	srai	a2,a2,0xb
    201e:	0011                	c.nop	4
    2020:	9b00                	0x9b00
    2022:	0012                	c.slli	zero,0x4
    2024:	2d00                	fld	fs0,24(a0)
    2026:	00001193          	slli	gp,zero,0x0
    202a:	12ae                	slli	t0,t0,0x2b
    202c:	0000                	unimp
    202e:	a02d                	j	2058 <__udivdi3+0x258>
    2030:	0011                	c.nop	4
    2032:	0100                	addi	s0,sp,128
    2034:	2d000013          	li	zero,720
    2038:	11ad                	addi	gp,gp,-21
    203a:	0000                	unimp
    203c:	1314                	addi	a3,sp,416
    203e:	0000                	unimp
    2040:	ba2d                	j	197a <__ascii_wctomb+0x2>
    2042:	0011                	c.nop	4
    2044:	2700                	fld	fs0,8(a4)
    2046:	2d000013          	li	zero,720
    204a:	000011c7          	fmsub.s	ft3,ft0,ft0,ft0,rtz
    204e:	137a                	slli	t1,t1,0x3e
    2050:	0000                	unimp
    2052:	d42d                	beqz	s0,1fbc <__udivdi3+0x1bc>
    2054:	0011                	c.nop	4
    2056:	8d00                	0x8d00
    2058:	2d000013          	li	zero,720
    205c:	11e1                	addi	gp,gp,-8
    205e:	0000                	unimp
    2060:	13be                	slli	t2,t2,0x2f
    2062:	0000                	unimp
    2064:	0000                	unimp
    2066:	f22e                	fsw	fa1,36(sp)
    2068:	6800000f          	0x6800000f
    206c:	0001                	nop
    206e:	e500                	fsw	fs0,8(a0)
    2070:	000d                	c.nop	3
    2072:	2d00                	fld	fs0,24(a0)
    2074:	00000ff7          	0xff7
    2078:	13d1                	addi	t2,t2,-12
    207a:	0000                	unimp
    207c:	042d                	addi	s0,s0,11
    207e:	0010                	0x10
    2080:	0d00                	addi	s0,sp,656
    2082:	0014                	0x14
    2084:	0000                	unimp
    2086:	0010732f          	0x10732f
    208a:	4c00                	lw	s0,24(s0)
    208c:	001f 8800 0000      	0x8800001f
    2092:	3600                	fld	fs0,40(a2)
    2094:	000e                	c.slli	zero,0x3
    2096:	2d00                	fld	fs0,24(a0)
    2098:	1078                	addi	a4,sp,44
    209a:	0000                	unimp
    209c:	0000142b          	0x142b
    20a0:	852d                	srai	a0,a0,0xb
    20a2:	0010                	0x10
    20a4:	3e00                	fld	fs0,56(a2)
    20a6:	0014                	0x14
    20a8:	2d00                	fld	fs0,24(a0)
    20aa:	1092                	slli	ra,ra,0x24
    20ac:	0000                	unimp
    20ae:	1462                	slli	s0,s0,0x38
    20b0:	0000                	unimp
    20b2:	9f2d                	0x9f2d
    20b4:	0010                	0x10
    20b6:	8000                	0x8000
    20b8:	0014                	0x14
    20ba:	2d00                	fld	fs0,24(a0)
    20bc:	10ac                	addi	a1,sp,104
    20be:	0000                	unimp
    20c0:	149e                	slli	s1,s1,0x27
    20c2:	0000                	unimp
    20c4:	b92d                	j	1cfe <__moddi3+0x356>
    20c6:	0010                	0x10
    20c8:	c700                	sw	s0,8(a4)
    20ca:	0014                	0x14
    20cc:	2d00                	fld	fs0,24(a0)
    20ce:	10c6                	slli	ra,ra,0x31
    20d0:	0000                	unimp
    20d2:	14e5                	addi	s1,s1,-7
    20d4:	0000                	unimp
    20d6:	2e00                	fld	fs0,24(a2)
    20d8:	1012                	c.slli	zero,0x24
    20da:	0000                	unimp
    20dc:	0180                	addi	s0,sp,192
    20de:	0000                	unimp
    20e0:	00000e83          	lb	t4,0(zero) # 0 <buf.1936>
    20e4:	172d                	addi	a4,a4,-21
    20e6:	0010                	0x10
    20e8:	0300                	addi	s0,sp,384
    20ea:	0015                	c.nop	5
    20ec:	2d00                	fld	fs0,24(a0)
    20ee:	1024                	addi	s1,sp,40
    20f0:	0000                	unimp
    20f2:	1516                	slli	a0,a0,0x25
    20f4:	0000                	unimp
    20f6:	312d                	jal	1d20 <__moddi3+0x378>
    20f8:	0010                	0x10
    20fa:	3a00                	fld	fs0,48(a2)
    20fc:	0015                	c.nop	5
    20fe:	2d00                	fld	fs0,24(a0)
    2100:	103e                	c.slli	zero,0x2f
    2102:	0000                	unimp
    2104:	1558                	addi	a4,sp,676
    2106:	0000                	unimp
    2108:	4b2d                	li	s6,11
    210a:	0010                	0x10
    210c:	7600                	flw	fs0,40(a2)
    210e:	0015                	c.nop	5
    2110:	2d00                	fld	fs0,24(a0)
    2112:	1058                	addi	a4,sp,36
    2114:	0000                	unimp
    2116:	15aa                	slli	a1,a1,0x2a
    2118:	0000                	unimp
    211a:	652d                	lui	a0,0xb
    211c:	0010                	0x10
    211e:	d300                	sw	s0,32(a4)
    2120:	0015                	c.nop	5
    2122:	0000                	unimp
    2124:	d430                	sw	a2,104(s0)
    2126:	0010                	0x10
    2128:	a000                	fsd	fs0,0(s0)
    212a:	0001                	nop
    212c:	2d00                	fld	fs0,24(a0)
    212e:	10d9                	addi	ra,ra,-10
    2130:	0000                	unimp
    2132:	1615                	addi	a2,a2,-27
    2134:	0000                	unimp
    2136:	e62d                	bnez	a2,21a0 <__udivdi3+0x3a0>
    2138:	0010                	0x10
    213a:	3300                	fld	fs0,32(a4)
    213c:	0016                	c.slli	zero,0x5
    213e:	0000                	unimp
    2140:	0000                	unimp
    2142:	3100                	fld	fs0,32(a0)
    2144:	000005eb          	0x5eb
    2148:	f701                	bnez	a4,2050 <__udivdi3+0x250>
    214a:	0b090103          	lb	sp,176(s2) # 10b0 <main+0x440>
    214e:	0000                	unimp
    2150:	00121303          	lh	t1,1(tp) # 1 <buf.1936+0x1>
    2154:	3200                	fld	fs0,32(a2)
    2156:	006e                	c.slli	zero,0x1b
    2158:	f701                	bnez	a4,2060 <__udivdi3+0x260>
    215a:	0b091703          	lh	a4,176(s2)
    215e:	0000                	unimp
    2160:	6432                	flw	fs0,12(sp)
    2162:	0100                	addi	s0,sp,128
    2164:	092203f7          	0x92203f7
    2168:	3200000b          	0x3200000b
    216c:	7072                	flw	ft0,60(sp)
    216e:	0100                	addi	s0,sp,128
    2170:	132e03f7          	0x132e03f7
    2174:	0012                	c.slli	zero,0x4
    2176:	3300                	fld	fs0,32(a4)
    2178:	6e6e                	flw	ft8,216(sp)
    217a:	0100                	addi	s0,sp,128
    217c:	03f9                	addi	t2,t2,30
    217e:	9211                	srli	a2,a2,0x24
    2180:	3300000b          	0x3300000b
    2184:	6464                	flw	fs1,76(s0)
    2186:	0100                	addi	s0,sp,128
    2188:	03fa                	slli	t2,t2,0x1e
    218a:	9211                	srli	a2,a2,0x24
    218c:	3300000b          	0x3300000b
    2190:	7272                	flw	ft4,60(sp)
    2192:	0100                	addi	s0,sp,128
    2194:	850b03fb          	0x850b03fb
    2198:	3300000b          	0x3300000b
    219c:	3064                	fld	fs1,224(s0)
    219e:	0100                	addi	s0,sp,128
    21a0:	03fc                	addi	a5,sp,460
    21a2:	f10a                	fsw	ft2,160(sp)
    21a4:	000a                	c.slli	zero,0x2
    21a6:	3300                	fld	fs0,32(a4)
    21a8:	3164                	fld	fs1,224(a0)
    21aa:	0100                	addi	s0,sp,128
    21ac:	03fc                	addi	a5,sp,460
    21ae:	f10e                	fsw	ft3,160(sp)
    21b0:	000a                	c.slli	zero,0x2
    21b2:	3300                	fld	fs0,32(a4)
    21b4:	306e                	fld	ft0,248(sp)
    21b6:	0100                	addi	s0,sp,128
    21b8:	03fc                	addi	a5,sp,460
    21ba:	f112                	fsw	ft4,160(sp)
    21bc:	000a                	c.slli	zero,0x2
    21be:	3300                	fld	fs0,32(a4)
    21c0:	316e                	fld	ft2,248(sp)
    21c2:	0100                	addi	s0,sp,128
    21c4:	03fc                	addi	a5,sp,460
    21c6:	f116                	fsw	ft5,160(sp)
    21c8:	000a                	c.slli	zero,0x2
    21ca:	3300                	fld	fs0,32(a4)
    21cc:	326e                	fld	ft4,248(sp)
    21ce:	0100                	addi	s0,sp,128
    21d0:	03fc                	addi	a5,sp,460
    21d2:	f11a                	fsw	ft6,160(sp)
    21d4:	000a                	c.slli	zero,0x2
    21d6:	3300                	fld	fs0,32(a4)
    21d8:	3071                	jal	1a64 <__moddi3+0xbc>
    21da:	0100                	addi	s0,sp,128
    21dc:	03fd                	addi	t2,t2,31
    21de:	f10a                	fsw	ft2,160(sp)
    21e0:	000a                	c.slli	zero,0x2
    21e2:	3300                	fld	fs0,32(a4)
    21e4:	3171                	jal	1e70 <__udivdi3+0x70>
    21e6:	0100                	addi	s0,sp,128
    21e8:	03fd                	addi	t2,t2,31
    21ea:	f10e                	fsw	ft3,160(sp)
    21ec:	000a                	c.slli	zero,0x2
    21ee:	3300                	fld	fs0,32(a4)
    21f0:	0062                	c.slli	zero,0x18
    21f2:	fe01                	bnez	a2,210a <__udivdi3+0x30a>
    21f4:	0af10a03          	lb	s4,175(sp) # 30ba3 <__C_STACK_TOP__+0x20ba3>
    21f8:	0000                	unimp
    21fa:	006d6233          	or	tp,s10,t1
    21fe:	fe01                	bnez	a2,2116 <__udivdi3+0x316>
    2200:	0af10d03          	lb	s10,175(sp)
    2204:	0000                	unimp
    2206:	00777733          	and	a4,a4,t2
    220a:	c701                	beqz	a4,2212 <__udivdi3+0x412>
    220c:	1104                	addi	s1,sp,160
    220e:	0b92                	slli	s7,s7,0x4
    2210:	0000                	unimp
    2212:	9134                	0x9134
    2214:	3500000f          	0x3500000f
    2218:	0698                	addi	a4,sp,832
    221a:	0000                	unimp
    221c:	2e01                	jal	252c <__umoddi3+0x2f8>
    221e:	0404                	addi	s1,sp,512
    2220:	0af1                	addi	s5,s5,28
    2222:	0000                	unimp
    2224:	615f5f33          	0x615f5f33
    2228:	0100                	addi	s0,sp,128
    222a:	042e                	slli	s0,s0,0xb
    222c:	f104                	fsw	fs1,32(a0)
    222e:	000a                	c.slli	zero,0x2
    2230:	0000                	unimp
    2232:	f234                	fsw	fa3,96(a2)
    2234:	3500000f          	0x3500000f
    2238:	0080                	addi	s0,sp,64
    223a:	0000                	unimp
    223c:	3a01                	jal	1b4c <__moddi3+0x1a4>
    223e:	0404                	addi	s1,sp,512
    2240:	0af1                	addi	s5,s5,28
    2242:	0000                	unimp
    2244:	7b35                	lui	s6,0xfffed
    2246:	0000                	unimp
    2248:	0100                	addi	s0,sp,128
    224a:	043a                	slli	s0,s0,0xe
    224c:	f104                	fsw	fs1,32(a0)
    224e:	000a                	c.slli	zero,0x2
    2250:	3500                	fld	fs0,40(a0)
    2252:	061f 0000 3a01      	0x3a010000061f
    2258:	0404                	addi	s1,sp,512
    225a:	0af1                	addi	s5,s5,28
    225c:	0000                	unimp
    225e:	1a35                	addi	s4,s4,-19
    2260:	0006                	c.slli	zero,0x1
    2262:	0100                	addi	s0,sp,128
    2264:	043a                	slli	s0,s0,0xe
    2266:	f104                	fsw	fs1,32(a0)
    2268:	000a                	c.slli	zero,0x2
    226a:	3500                	fld	fs0,40(a0)
    226c:	0716                	slli	a4,a4,0x5
    226e:	0000                	unimp
    2270:	3a01                	jal	1b80 <__moddi3+0x1d8>
    2272:	0404                	addi	s1,sp,512
    2274:	0af1                	addi	s5,s5,28
    2276:	0000                	unimp
    2278:	1135                	addi	sp,sp,-19
    227a:	01000007          	0x1000007
    227e:	043a                	slli	s0,s0,0xe
    2280:	f104                	fsw	fs1,32(a0)
    2282:	000a                	c.slli	zero,0x2
    2284:	3300                	fld	fs0,32(a4)
    2286:	5f5f 006d 3a01      	0x3a01006d5f5f
    228c:	0404                	addi	s1,sp,512
    228e:	0af1                	addi	s5,s5,28
    2290:	0000                	unimp
    2292:	3400                	fld	fs0,40(s0)
    2294:	1012                	c.slli	zero,0x24
    2296:	0000                	unimp
    2298:	9835                	andi	s0,s0,-19
    229a:	0006                	c.slli	zero,0x1
    229c:	0100                	addi	s0,sp,128
    229e:	0446                	slli	s0,s0,0x11
    22a0:	f104                	fsw	fs1,32(a0)
    22a2:	000a                	c.slli	zero,0x2
    22a4:	3300                	fld	fs0,32(a4)
    22a6:	5f5f 0061 4601      	0x460100615f5f
    22ac:	0404                	addi	s1,sp,512
    22ae:	0af1                	addi	s5,s5,28
    22b0:	0000                	unimp
    22b2:	3400                	fld	fs0,40(s0)
    22b4:	00001073          	csrw	ustatus,zero
    22b8:	8035                	srli	s0,s0,0xd
    22ba:	0000                	unimp
    22bc:	0100                	addi	s0,sp,128
    22be:	045f f108 000a      	0xaf108045f
    22c4:	3500                	fld	fs0,40(a0)
    22c6:	0000007b          	0x7b
    22ca:	5f01                	li	t5,-32
    22cc:	0804                	addi	s1,sp,16
    22ce:	0af1                	addi	s5,s5,28
    22d0:	0000                	unimp
    22d2:	1f35                	addi	t5,t5,-19
    22d4:	0006                	c.slli	zero,0x1
    22d6:	0100                	addi	s0,sp,128
    22d8:	045f f108 000a      	0xaf108045f
    22de:	3500                	fld	fs0,40(a0)
    22e0:	061a                	slli	a2,a2,0x6
    22e2:	0000                	unimp
    22e4:	5f01                	li	t5,-32
    22e6:	0804                	addi	s1,sp,16
    22e8:	0af1                	addi	s5,s5,28
    22ea:	0000                	unimp
    22ec:	1635                	addi	a2,a2,-19
    22ee:	01000007          	0x1000007
    22f2:	045f f108 000a      	0xaf108045f
    22f8:	3500                	fld	fs0,40(a0)
    22fa:	0711                	addi	a4,a4,4
    22fc:	0000                	unimp
    22fe:	5f01                	li	t5,-32
    2300:	0804                	addi	s1,sp,16
    2302:	0af1                	addi	s5,s5,28
    2304:	0000                	unimp
    2306:	6d5f5f33          	0x6d5f5f33
    230a:	0100                	addi	s0,sp,128
    230c:	045f f108 000a      	0xaf108045f
    2312:	0000                	unimp
    2314:	d434                	sw	a3,104(s0)
    2316:	0010                	0x10
    2318:	3500                	fld	fs0,40(a0)
    231a:	0080                	addi	s0,sp,64
    231c:	0000                	unimp
    231e:	6401                	0x6401
    2320:	0404                	addi	s1,sp,512
    2322:	0af1                	addi	s5,s5,28
    2324:	0000                	unimp
    2326:	7b35                	lui	s6,0xfffed
    2328:	0000                	unimp
    232a:	0100                	addi	s0,sp,128
    232c:	0464                	addi	s1,sp,524
    232e:	f104                	fsw	fs1,32(a0)
    2330:	000a                	c.slli	zero,0x2
    2332:	3500                	fld	fs0,40(a0)
    2334:	061f 0000 6401      	0x64010000061f
    233a:	0404                	addi	s1,sp,512
    233c:	0af1                	addi	s5,s5,28
    233e:	0000                	unimp
    2340:	1a35                	addi	s4,s4,-19
    2342:	0006                	c.slli	zero,0x1
    2344:	0100                	addi	s0,sp,128
    2346:	0464                	addi	s1,sp,524
    2348:	f104                	fsw	fs1,32(a0)
    234a:	000a                	c.slli	zero,0x2
    234c:	3500                	fld	fs0,40(a0)
    234e:	0716                	slli	a4,a4,0x5
    2350:	0000                	unimp
    2352:	6401                	0x6401
    2354:	0404                	addi	s1,sp,512
    2356:	0af1                	addi	s5,s5,28
    2358:	0000                	unimp
    235a:	1135                	addi	sp,sp,-19
    235c:	01000007          	0x1000007
    2360:	0464                	addi	s1,sp,524
    2362:	f104                	fsw	fs1,32(a0)
    2364:	000a                	c.slli	zero,0x2
    2366:	3300                	fld	fs0,32(a4)
    2368:	5f5f 006d 6401      	0x6401006d5f5f
    236e:	0404                	addi	s1,sp,512
    2370:	0af1                	addi	s5,s5,28
    2372:	0000                	unimp
    2374:	3400                	fld	fs0,40(s0)
    2376:	10f4                	addi	a3,sp,108
    2378:	0000                	unimp
    237a:	9835                	andi	s0,s0,-19
    237c:	0006                	c.slli	zero,0x1
    237e:	0100                	addi	s0,sp,128
    2380:	f1040487          	0xf1040487
    2384:	000a                	c.slli	zero,0x2
    2386:	3300                	fld	fs0,32(a4)
    2388:	5f5f 0061 8701      	0x870100615f5f
    238e:	0404                	addi	s1,sp,512
    2390:	0af1                	addi	s5,s5,28
    2392:	0000                	unimp
    2394:	3400                	fld	fs0,40(s0)
    2396:	00001107          	0x1107
    239a:	785f5f33          	0x785f5f33
    239e:	0100                	addi	s0,sp,128
    23a0:	0495                	addi	s1,s1,5
    23a2:	f105                	bnez	a0,22c2 <__umoddi3+0x8e>
    23a4:	000a                	c.slli	zero,0x2
    23a6:	0000                	unimp
    23a8:	3336                	fld	ft6,360(sp)
    23aa:	316d                	jal	2054 <__udivdi3+0x254>
    23ac:	0100                	addi	s0,sp,128
    23ae:	04a5                	addi	s1,s1,9
    23b0:	000af10f          	0xaf10f
    23b4:	3300                	fld	fs0,32(a4)
    23b6:	306d                	jal	1c60 <__moddi3+0x2b8>
    23b8:	0100                	addi	s0,sp,128
    23ba:	04a5                	addi	s1,s1,9
    23bc:	000af113          	andi	sp,s5,0
    23c0:	3400                	fld	fs0,40(s0)
    23c2:	1181                	addi	gp,gp,-32
    23c4:	0000                	unimp
    23c6:	8035                	srli	s0,s0,0xd
    23c8:	0000                	unimp
    23ca:	0100                	addi	s0,sp,128
    23cc:	04b0                	addi	a2,sp,584
    23ce:	f108                	fsw	fa0,32(a0)
    23d0:	000a                	c.slli	zero,0x2
    23d2:	3500                	fld	fs0,40(a0)
    23d4:	0000007b          	0x7b
    23d8:	b001                	j	1bd8 <__moddi3+0x230>
    23da:	0804                	addi	s1,sp,16
    23dc:	0af1                	addi	s5,s5,28
    23de:	0000                	unimp
    23e0:	1f35                	addi	t5,t5,-19
    23e2:	0006                	c.slli	zero,0x1
    23e4:	0100                	addi	s0,sp,128
    23e6:	04b0                	addi	a2,sp,584
    23e8:	f108                	fsw	fa0,32(a0)
    23ea:	000a                	c.slli	zero,0x2
    23ec:	3500                	fld	fs0,40(a0)
    23ee:	061a                	slli	a2,a2,0x6
    23f0:	0000                	unimp
    23f2:	b001                	j	1bf2 <__moddi3+0x24a>
    23f4:	0804                	addi	s1,sp,16
    23f6:	0af1                	addi	s5,s5,28
    23f8:	0000                	unimp
    23fa:	1635                	addi	a2,a2,-19
    23fc:	01000007          	0x1000007
    2400:	04b0                	addi	a2,sp,584
    2402:	f108                	fsw	fa0,32(a0)
    2404:	000a                	c.slli	zero,0x2
    2406:	3500                	fld	fs0,40(a0)
    2408:	0711                	addi	a4,a4,4
    240a:	0000                	unimp
    240c:	b001                	j	1c0c <__moddi3+0x264>
    240e:	0804                	addi	s1,sp,16
    2410:	0af1                	addi	s5,s5,28
    2412:	0000                	unimp
    2414:	6d5f5f33          	0x6d5f5f33
    2418:	0100                	addi	s0,sp,128
    241a:	04b0                	addi	a2,sp,584
    241c:	f108                	fsw	fa0,32(a0)
    241e:	000a                	c.slli	zero,0x2
    2420:	0000                	unimp
    2422:	ef34                	fsw	fa3,88(a4)
    2424:	0011                	c.nop	4
    2426:	3500                	fld	fs0,40(a0)
    2428:	05b2                	slli	a1,a1,0xc
    242a:	0000                	unimp
    242c:	b101                	j	202c <__udivdi3+0x22c>
    242e:	0804                	addi	s1,sp,16
    2430:	0af1                	addi	s5,s5,28
    2432:	0000                	unimp
    2434:	b735                	j	2360 <__umoddi3+0x12c>
    2436:	0005                	c.nop	1
    2438:	0100                	addi	s0,sp,128
    243a:	04b1                	addi	s1,s1,12
    243c:	f108                	fsw	fa0,32(a0)
    243e:	000a                	c.slli	zero,0x2
    2440:	3500                	fld	fs0,40(a0)
    2442:	05bc                	addi	a5,sp,712
    2444:	0000                	unimp
    2446:	b101                	j	2046 <__udivdi3+0x246>
    2448:	0804                	addi	s1,sp,16
    244a:	0af1                	addi	s5,s5,28
    244c:	0000                	unimp
    244e:	c135                	beqz	a0,24b2 <__umoddi3+0x27e>
    2450:	0005                	c.nop	1
    2452:	0100                	addi	s0,sp,128
    2454:	04b1                	addi	s1,s1,12
    2456:	f108                	fsw	fa0,32(a0)
    2458:	000a                	c.slli	zero,0x2
    245a:	3500                	fld	fs0,40(a0)
    245c:	00000407          	0x407
    2460:	b101                	j	2060 <__udivdi3+0x260>
    2462:	0804                	addi	s1,sp,16
    2464:	0af1                	addi	s5,s5,28
    2466:	0000                	unimp
    2468:	ca35                	beqz	a2,24dc <__umoddi3+0x2a8>
    246a:	0004                	0x4
    246c:	0100                	addi	s0,sp,128
    246e:	04b1                	addi	s1,s1,12
    2470:	f108                	fsw	fa0,32(a0)
    2472:	000a                	c.slli	zero,0x2
    2474:	3500                	fld	fs0,40(a0)
    2476:	000003e7          	jalr	t2,zero # 0 <buf.1936>
    247a:	b101                	j	207a <__udivdi3+0x27a>
    247c:	0804                	addi	s1,sp,16
    247e:	0af1                	addi	s5,s5,28
    2480:	0000                	unimp
    2482:	c535                	beqz	a0,24ee <__umoddi3+0x2ba>
    2484:	0004                	0x4
    2486:	0100                	addi	s0,sp,128
    2488:	04b1                	addi	s1,s1,12
    248a:	f108                	fsw	fa0,32(a0)
    248c:	000a                	c.slli	zero,0x2
    248e:	0000                	unimp
    2490:	0234                	addi	a3,sp,264
    2492:	0012                	c.slli	zero,0x4
    2494:	3300                	fld	fs0,32(a4)
    2496:	5f5f 0078 b601      	0xb60100785f5f
    249c:	0504                	addi	s1,sp,640
    249e:	0af1                	addi	s5,s5,28
    24a0:	0000                	unimp
    24a2:	3600                	fld	fs0,40(a2)
    24a4:	785f5f33          	0x785f5f33
    24a8:	0100                	addi	s0,sp,128
    24aa:	04be                	slli	s1,s1,0xf
    24ac:	f105                	bnez	a0,23cc <__umoddi3+0x198>
    24ae:	000a                	c.slli	zero,0x2
    24b0:	0000                	unimp
    24b2:	0000                	unimp
    24b4:	0b09040f          	0xb09040f
    24b8:	0000                	unimp
    24ba:	7400                	flw	fs0,40(s0)
    24bc:	0012                	c.slli	zero,0x4
    24be:	0400                	addi	s0,sp,512
    24c0:	bb00                	fsd	fs0,48(a4)
    24c2:	0005                	c.nop	1
    24c4:	0400                	addi	s0,sp,512
    24c6:	8801                	andi	s0,s0,0
    24c8:	0001                	nop
    24ca:	0c00                	addi	s0,sp,528
    24cc:	066c                	addi	a1,sp,780
    24ce:	0000                	unimp
    24d0:	00a9                	addi	ra,ra,10
    24d2:	0000                	unimp
    24d4:	2234                	fld	fa3,64(a2)
    24d6:	0000                	unimp
    24d8:	0410                	addi	a2,sp,512
    24da:	0000                	unimp
    24dc:	12c5                	addi	t0,t0,-15
    24de:	0000                	unimp
    24e0:	0802                	c.slli64	a6
    24e2:	00035e07          	0x35e07
    24e6:	0300                	addi	s0,sp,384
    24e8:	0504                	addi	s1,sp,640
    24ea:	6e69                	lui	t3,0x1a
    24ec:	0074                	addi	a3,sp,12
    24ee:	0402                	c.slli64	s0
    24f0:	00036807          	0x36807
    24f4:	0200                	addi	s0,sp,256
    24f6:	0508                	addi	a0,sp,640
    24f8:	0278                	addi	a4,sp,268
    24fa:	0000                	unimp
    24fc:	1002                	c.slli	zero,0x20
    24fe:	9d04                	0x9d04
    2500:	0000                	unimp
    2502:	0200                	addi	s0,sp,256
    2504:	0601                	addi	a2,a2,0
    2506:	00000643          	fmadd.s	fa2,ft0,ft0,ft0,rne
    250a:	0102                	c.slli64	sp
    250c:	4108                	lw	a0,0(a0)
    250e:	0006                	c.slli	zero,0x1
    2510:	0200                	addi	s0,sp,256
    2512:	0502                	c.slli64	a0
    2514:	0000                	unimp
    2516:	0000                	unimp
    2518:	0202                	c.slli64	tp
    251a:	00037e07          	0x37e07
    251e:	0200                	addi	s0,sp,256
    2520:	0504                	addi	s1,sp,640
    2522:	027d                	addi	tp,tp,31
    2524:	0000                	unimp
    2526:	0402                	c.slli64	s0
    2528:	00036307          	0x36307
    252c:	0400                	addi	s0,sp,512
    252e:	04ee                	slli	s1,s1,0x1b
    2530:	0000                	unimp
    2532:	0c02                	c.slli64	s8
    2534:	2c0d                	jal	2766 <__umoddi3+0x532>
    2536:	0000                	unimp
    2538:	0400                	addi	s0,sp,512
    253a:	04be                	slli	s1,s1,0xf
    253c:	0000                	unimp
    253e:	640e2c03          	lw	s8,1600(t3) # 1a640 <__C_STACK_TOP__+0xa640>
    2542:	0000                	unimp
    2544:	0400                	addi	s0,sp,512
    2546:	05d4                	addi	a3,sp,708
    2548:	0000                	unimp
    254a:	640e7203          	0x640e7203
    254e:	0000                	unimp
    2550:	0400                	addi	s0,sp,512
    2552:	000006d7          	0x6d7
    2556:	2c179103          	lh	sp,705(a5)
    255a:	0000                	unimp
    255c:	0500                	addi	s0,sp,640
    255e:	03da                	slli	t2,t2,0x16
    2560:	0000                	unimp
    2562:	6504                	flw	fs1,8(a0)
    2564:	1701                	addi	a4,a4,-32
    2566:	00000033          	add	zero,zero,zero
    256a:	0406                	slli	s0,s0,0x1
    256c:	d103a603          	lw	a2,-752(t2)
    2570:	0000                	unimp
    2572:	0700                	addi	s0,sp,896
    2574:	03c5                	addi	t2,t2,17
    2576:	0000                	unimp
    2578:	a20ca803          	lw	a6,-1504(s9)
    257c:	0000                	unimp
    257e:	0700                	addi	s0,sp,896
    2580:	0330                	addi	a2,sp,392
    2582:	0000                	unimp
    2584:	d113a903          	lw	s2,-751(t2)
    2588:	0000                	unimp
    258a:	0000                	unimp
    258c:	4f08                	lw	a0,24(a4)
    258e:	0000                	unimp
    2590:	e100                	fsw	fs0,0(a0)
    2592:	0000                	unimp
    2594:	0900                	addi	s0,sp,144
    2596:	00000033          	add	zero,zero,zero
    259a:	080a0003          	lb	zero,128(s4) # 1080 <main+0x410>
    259e:	0509a303          	lw	t1,80(s3)
    25a2:	0001                	nop
    25a4:	0b00                	addi	s0,sp,400
    25a6:	0435                	addi	s0,s0,13
    25a8:	0000                	unimp
    25aa:	2c07a503          	lw	a0,704(a5)
    25ae:	0000                	unimp
    25b0:	0000                	unimp
    25b2:	0005c60b          	0x5c60b
    25b6:	0300                	addi	s0,sp,384
    25b8:	05aa                	slli	a1,a1,0xa
    25ba:	000000af          	0xaf
    25be:	0004                	0x4
    25c0:	e304                	fsw	fs1,0(a4)
    25c2:	0004                	0x4
    25c4:	0300                	addi	s0,sp,384
    25c6:	00e103ab          	0xe103ab
    25ca:	0000                	unimp
    25cc:	3d04                	fld	fs1,56(a0)
    25ce:	0005                	c.nop	1
    25d0:	0300                	addi	s0,sp,384
    25d2:	00721baf          	0x721baf
    25d6:	0000                	unimp
    25d8:	040c                	addi	a1,sp,512
    25da:	5404                	lw	s1,40(s0)
    25dc:	0006                	c.slli	zero,0x1
    25de:	0500                	addi	s0,sp,640
    25e0:	1916                	slli	s2,s2,0x25
    25e2:	0000006b          	0x6b
    25e6:	6e0d                	lui	t3,0x3
    25e8:	0004                	0x4
    25ea:	1800                	addi	s0,sp,48
    25ec:	2f05                	jal	2d1c <__clz_tab+0x460>
    25ee:	8508                	0x8508
    25f0:	0001                	nop
    25f2:	0b00                	addi	s0,sp,400
    25f4:	0799                	addi	a5,a5,6
    25f6:	0000                	unimp
    25f8:	3105                	jal	2218 <__udivdi3+0x418>
    25fa:	00018513          	mv	a0,gp
    25fe:	0000                	unimp
    2600:	5f0e                	lw	t5,224(sp)
    2602:	3205006b          	0x3205006b
    2606:	00002c07          	flw	fs8,0(zero) # 0 <buf.1936>
    260a:	0400                	addi	s0,sp,512
    260c:	0005a30b          	0x5a30b
    2610:	0500                	addi	s0,sp,640
    2612:	0b32                	slli	s6,s6,0xc
    2614:	002c                	addi	a1,sp,8
    2616:	0000                	unimp
    2618:	0b08                	addi	a0,sp,400
    261a:	02d4                	addi	a3,sp,324
    261c:	0000                	unimp
    261e:	3205                	jal	1f3e <__udivdi3+0x13e>
    2620:	2c14                	fld	fa3,24(s0)
    2622:	0000                	unimp
    2624:	0c00                	addi	s0,sp,528
    2626:	00025a0b          	0x25a0b
    262a:	0500                	addi	s0,sp,640
    262c:	1b32                	slli	s6,s6,0x2c
    262e:	002c                	addi	a1,sp,8
    2630:	0000                	unimp
    2632:	0e10                	addi	a2,sp,784
    2634:	785f 0500 0b33      	0xb330500785f
    263a:	0000018b          	0x18b
    263e:	0014                	0x14
    2640:	012b040f          	0x12b040f
    2644:	0000                	unimp
    2646:	1f08                	addi	a0,sp,944
    2648:	0001                	nop
    264a:	9b00                	0x9b00
    264c:	0001                	nop
    264e:	0900                	addi	s0,sp,144
    2650:	00000033          	add	zero,zero,zero
    2654:	0000                	unimp
    2656:	130d                	addi	t1,t1,-29
    2658:	24000003          	lb	zero,576(zero) # 240 <_start+0x40>
    265c:	3705                	jal	257c <__umoddi3+0x348>
    265e:	1e08                	addi	a0,sp,816
    2660:	0002                	c.slli64	zero
    2662:	0b00                	addi	s0,sp,400
    2664:	0131                	addi	sp,sp,12
    2666:	0000                	unimp
    2668:	3905                	jal	2298 <__umoddi3+0x64>
    266a:	2c09                	jal	287c <_ctype_+0xc4>
    266c:	0000                	unimp
    266e:	0000                	unimp
    2670:	0007350b          	0x7350b
    2674:	0500                	addi	s0,sp,640
    2676:	093a                	slli	s2,s2,0xe
    2678:	002c                	addi	a1,sp,8
    267a:	0000                	unimp
    267c:	0b04                	addi	s1,sp,400
    267e:	014d                	addi	sp,sp,19
    2680:	0000                	unimp
    2682:	3b05                	jal	23b2 <__umoddi3+0x17e>
    2684:	2c09                	jal	2896 <_ctype_+0xde>
    2686:	0000                	unimp
    2688:	0800                	addi	s0,sp,16
    268a:	00078a0b          	0x78a0b
    268e:	0500                	addi	s0,sp,640
    2690:	093c                	addi	a5,sp,152
    2692:	002c                	addi	a1,sp,8
    2694:	0000                	unimp
    2696:	0b0c                	addi	a1,sp,400
    2698:	0498                	addi	a4,sp,576
    269a:	0000                	unimp
    269c:	3d05                	jal	24cc <__umoddi3+0x298>
    269e:	2c09                	jal	28b0 <_ctype_+0xf8>
    26a0:	0000                	unimp
    26a2:	1000                	addi	s0,sp,32
    26a4:	00042b0b          	0x42b0b
    26a8:	0500                	addi	s0,sp,640
    26aa:	093e                	slli	s2,s2,0xf
    26ac:	002c                	addi	a1,sp,8
    26ae:	0000                	unimp
    26b0:	0b14                	addi	a3,sp,400
    26b2:	06c0                	addi	s0,sp,836
    26b4:	0000                	unimp
    26b6:	3f05                	jal	25e6 <__umoddi3+0x3b2>
    26b8:	2c09                	jal	28ca <__clz_tab+0xe>
    26ba:	0000                	unimp
    26bc:	1800                	addi	s0,sp,48
    26be:	0007710b          	0x7710b
    26c2:	0500                	addi	s0,sp,640
    26c4:	0940                	addi	s0,sp,148
    26c6:	002c                	addi	a1,sp,8
    26c8:	0000                	unimp
    26ca:	0b1c                	addi	a5,sp,400
    26cc:	0000071b          	0x71b
    26d0:	4105                	li	sp,1
    26d2:	2c09                	jal	28e4 <__clz_tab+0x28>
    26d4:	0000                	unimp
    26d6:	2000                	fld	fs0,0(s0)
    26d8:	1000                	addi	s0,sp,32
    26da:	016a                	slli	sp,sp,0x1a
    26dc:	0000                	unimp
    26de:	0108                	addi	a0,sp,128
    26e0:	4a05                	li	s4,1
    26e2:	6308                	flw	fa0,0(a4)
    26e4:	0002                	c.slli64	zero
    26e6:	0b00                	addi	s0,sp,400
    26e8:	000002c7          	fmsub.s	ft5,ft0,ft0,ft0,rne
    26ec:	4b05                	li	s6,1
    26ee:	630a                	flw	ft6,128(sp)
    26f0:	0002                	c.slli64	zero
    26f2:	0000                	unimp
    26f4:	0005190b          	0x5190b
    26f8:	0500                	addi	s0,sp,640
    26fa:	094c                	addi	a1,sp,148
    26fc:	00000263          	beqz	zero,2700 <__umoddi3+0x4cc>
    2700:	1180                	addi	s0,sp,224
    2702:	0638                	addi	a4,sp,776
    2704:	0000                	unimp
    2706:	4e05                	li	t3,1
    2708:	1f0a                	slli	t5,t5,0x22
    270a:	0001                	nop
    270c:	0000                	unimp
    270e:	1101                	addi	sp,sp,-32
    2710:	0252                	slli	tp,tp,0x14
    2712:	0000                	unimp
    2714:	5105                	li	sp,-31
    2716:	1f0a                	slli	t5,t5,0x22
    2718:	0001                	nop
    271a:	0400                	addi	s0,sp,512
    271c:	0001                	nop
    271e:	1d08                	addi	a0,sp,688
    2720:	0001                	nop
    2722:	7300                	flw	fs0,32(a4)
    2724:	0002                	c.slli64	zero
    2726:	0900                	addi	s0,sp,144
    2728:	00000033          	add	zero,zero,zero
    272c:	001f a110 0004      	0x4a110001f
    2732:	9000                	0x9000
    2734:	0501                	addi	a0,a0,0
    2736:	085d                	addi	a6,a6,23
    2738:	02b6                	slli	t0,t0,0xd
    273a:	0000                	unimp
    273c:	0007990b          	0x7990b
    2740:	0500                	addi	s0,sp,640
    2742:	125e                	slli	tp,tp,0x37
    2744:	02b6                	slli	t0,t0,0xd
    2746:	0000                	unimp
    2748:	0b00                	addi	s0,sp,400
    274a:	058c                	addi	a1,sp,704
    274c:	0000                	unimp
    274e:	5f05                	li	t5,-31
    2750:	2c06                	fld	fs8,64(sp)
    2752:	0000                	unimp
    2754:	0400                	addi	s0,sp,512
    2756:	0002cf0b          	0x2cf0b
    275a:	0500                	addi	s0,sp,640
    275c:	0961                	addi	s2,s2,24
    275e:	02bc                	addi	a5,sp,328
    2760:	0000                	unimp
    2762:	0b08                	addi	a0,sp,400
    2764:	016a                	slli	sp,sp,0x1a
    2766:	0000                	unimp
    2768:	6205                	lui	tp,0x1
    276a:	1e1e                	slli	t3,t3,0x27
    276c:	0002                	c.slli64	zero
    276e:	8800                	0x8800
    2770:	0f00                	addi	s0,sp,912
    2772:	7304                	flw	fs1,32(a4)
    2774:	0002                	c.slli64	zero
    2776:	0800                	addi	s0,sp,16
    2778:	02cc                	addi	a1,sp,324
    277a:	0000                	unimp
    277c:	02cc                	addi	a1,sp,324
    277e:	0000                	unimp
    2780:	3309                	jal	2482 <__umoddi3+0x24e>
    2782:	0000                	unimp
    2784:	1f00                	addi	s0,sp,944
    2786:	0f00                	addi	s0,sp,912
    2788:	d204                	sw	s1,32(a2)
    278a:	0002                	c.slli64	zero
    278c:	1200                	addi	s0,sp,288
    278e:	830d                	srli	a4,a4,0x3
    2790:	08000007          	0x8000007
    2794:	7505                	lui	a0,0xfffe1
    2796:	fb08                	fsw	fa0,48(a4)
    2798:	0002                	c.slli64	zero
    279a:	0b00                	addi	s0,sp,400
    279c:	00000147          	fmsub.s	ft2,ft0,ft0,ft0,rne
    27a0:	7605                	lui	a2,0xfffe1
    27a2:	fb11                	bnez	a4,26b6 <__umoddi3+0x482>
    27a4:	0002                	c.slli64	zero
    27a6:	0000                	unimp
    27a8:	0005e50b          	0x5e50b
    27ac:	0500                	addi	s0,sp,640
    27ae:	002c0677          	0x2c0677
    27b2:	0000                	unimp
    27b4:	0004                	0x4
    27b6:	004f040f          	0x4f040f
    27ba:	0000                	unimp
    27bc:	680d                	lui	a6,0x3
    27be:	0005                	c.nop	1
    27c0:	6800                	flw	fs0,16(s0)
    27c2:	b505                	j	25e2 <__umoddi3+0x3ae>
    27c4:	4408                	lw	a0,8(s0)
    27c6:	0004                	0x4
    27c8:	0e00                	addi	s0,sp,784
    27ca:	705f 0500 12b6      	0x12b60500705f
    27d0:	000002fb          	0x2fb
    27d4:	0e00                	addi	s0,sp,784
    27d6:	725f 0500 07b7      	0x7b70500725f
    27dc:	002c                	addi	a1,sp,8
    27de:	0000                	unimp
    27e0:	0e04                	addi	s1,sp,784
    27e2:	775f 0500 07b8      	0x7b80500775f
    27e8:	002c                	addi	a1,sp,8
    27ea:	0000                	unimp
    27ec:	0b08                	addi	a0,sp,400
    27ee:	0000024b          	fnmsub.s	ft4,ft0,ft0,ft0,rne
    27f2:	b905                	j	2422 <__umoddi3+0x1ee>
    27f4:	5609                	li	a2,-30
    27f6:	0000                	unimp
    27f8:	0c00                	addi	s0,sp,528
    27fa:	00033f0b          	0x33f0b
    27fe:	0500                	addi	s0,sp,640
    2800:	09ba                	slli	s3,s3,0xe
    2802:	0056                	c.slli	zero,0x15
    2804:	0000                	unimp
    2806:	0e0e                	slli	t3,t3,0x3
    2808:	625f 0066 bb05      	0xbb050066625f
    280e:	d311                	beqz	a4,2712 <__umoddi3+0x4de>
    2810:	0002                	c.slli64	zero
    2812:	1000                	addi	s0,sp,32
    2814:	0000850b          	0x850b
    2818:	0500                	addi	s0,sp,640
    281a:	07bc                	addi	a5,sp,968
    281c:	002c                	addi	a1,sp,8
    281e:	0000                	unimp
    2820:	0b18                	addi	a4,sp,400
    2822:	0178                	addi	a4,sp,140
    2824:	0000                	unimp
    2826:	c305                	beqz	a4,2846 <_ctype_+0x8e>
    2828:	1d0a                	slli	s10,s10,0x22
    282a:	0001                	nop
    282c:	1c00                	addi	s0,sp,560
    282e:	0005000b          	0x5000b
    2832:	0500                	addi	s0,sp,640
    2834:	1dc5                	addi	s11,s11,-15
    2836:	05c8                	addi	a0,sp,708
    2838:	0000                	unimp
    283a:	0b20                	addi	s0,sp,408
    283c:	0424                	addi	s1,sp,520
    283e:	0000                	unimp
    2840:	c705                	beqz	a4,2868 <_ctype_+0xb0>
    2842:	f71d                	bnez	a4,2770 <__umoddi3+0x53c>
    2844:	0005                	c.nop	1
    2846:	2400                	fld	fs0,8(s0)
    2848:	0005ce0b          	0x5ce0b
    284c:	0500                	addi	s0,sp,640
    284e:	0dca                	slli	s11,s11,0x12
    2850:	0000061b          	0x61b
    2854:	0b28                	addi	a0,sp,408
    2856:	013a                	slli	sp,sp,0xe
    2858:	0000                	unimp
    285a:	cb05                	beqz	a4,288a <_ctype_+0xd2>
    285c:	3509                	jal	265e <__umoddi3+0x42a>
    285e:	0006                	c.slli	zero,0x1
    2860:	2c00                	fld	fs0,24(s0)
    2862:	5f0e                	lw	t5,224(sp)
    2864:	6275                	lui	tp,0x1d
    2866:	0500                	addi	s0,sp,640
    2868:	11ce                	slli	gp,gp,0x33
    286a:	000002d3          	fadd.s	ft5,ft0,ft0,rne
    286e:	0e30                	addi	a2,sp,792
    2870:	755f 0070 cf05      	0xcf050070755f
    2876:	fb12                	fsw	ft4,180(sp)
    2878:	0002                	c.slli64	zero
    287a:	3800                	fld	fs0,48(s0)
    287c:	5f0e                	lw	t5,224(sp)
    287e:	7275                	lui	tp,0xffffd
    2880:	0500                	addi	s0,sp,640
    2882:	07d0                	addi	a2,sp,964
    2884:	002c                	addi	a1,sp,8
    2886:	0000                	unimp
    2888:	0b3c                	addi	a5,sp,408
    288a:	0141                	addi	sp,sp,16
    288c:	0000                	unimp
    288e:	d305                	beqz	a4,27ae <__umoddi3+0x57a>
    2890:	3b11                	jal	25a4 <__umoddi3+0x370>
    2892:	0006                	c.slli	zero,0x1
    2894:	4000                	lw	s0,0(s0)
    2896:	0007030b          	0x7030b
    289a:	0500                	addi	s0,sp,640
    289c:	11d4                	addi	a3,sp,228
    289e:	0000064b          	fnmsub.s	fa2,ft0,ft0,ft0,rne
    28a2:	6c5f0e43          	0x6c5f0e43
    28a6:	0062                	c.slli	zero,0x18
    28a8:	d705                	beqz	a4,27d0 <_ctype_+0x18>
    28aa:	d311                	beqz	a4,27ae <__umoddi3+0x57a>
    28ac:	0002                	c.slli64	zero
    28ae:	4400                	lw	s0,8(s0)
    28b0:	0005dc0b          	0x5dc0b
    28b4:	0500                	addi	s0,sp,640
    28b6:	07da                	slli	a5,a5,0x16
    28b8:	002c                	addi	a1,sp,8
    28ba:	0000                	unimp
    28bc:	0b4c                	addi	a1,sp,404
    28be:	0466                	slli	s0,s0,0x19
    28c0:	0000                	unimp
    28c2:	db05                	beqz	a4,27f2 <_ctype_+0x3a>
    28c4:	7e0a                	flw	ft8,160(sp)
    28c6:	0000                	unimp
    28c8:	5000                	lw	s0,32(s0)
    28ca:	0000550b          	0x550b
    28ce:	0500                	addi	s0,sp,640
    28d0:	12de                	slli	t0,t0,0x37
    28d2:	0462                	slli	s0,s0,0x18
    28d4:	0000                	unimp
    28d6:	0b54                	addi	a3,sp,404
    28d8:	03e1                	addi	t2,t2,24
    28da:	0000                	unimp
    28dc:	e205                	bnez	a2,28fc <__clz_tab+0x40>
    28de:	110c                	addi	a1,sp,160
    28e0:	0001                	nop
    28e2:	5800                	lw	s0,48(s0)
    28e4:	0003270b          	0x3270b
    28e8:	0500                	addi	s0,sp,640
    28ea:	0ee4                	addi	s1,sp,860
    28ec:	0105                	addi	sp,sp,1
    28ee:	0000                	unimp
    28f0:	0b5c                	addi	a5,sp,404
    28f2:	0546                	slli	a0,a0,0x11
    28f4:	0000                	unimp
    28f6:	e505                	bnez	a0,291e <__clz_tab+0x62>
    28f8:	2c09                	jal	2b0a <__clz_tab+0x24e>
    28fa:	0000                	unimp
    28fc:	6400                	flw	fs0,8(s0)
    28fe:	1300                	addi	s0,sp,416
    2900:	0096                	slli	ra,ra,0x5
    2902:	0000                	unimp
    2904:	0462                	slli	s0,s0,0x18
    2906:	0000                	unimp
    2908:	6214                	flw	fa3,0(a2)
    290a:	0004                	0x4
    290c:	1400                	addi	s0,sp,544
    290e:	011d                	addi	sp,sp,7
    2910:	0000                	unimp
    2912:	b614                	fsd	fa3,40(a2)
    2914:	0005                	c.nop	1
    2916:	1400                	addi	s0,sp,544
    2918:	002c                	addi	a1,sp,8
    291a:	0000                	unimp
    291c:	0f00                	addi	s0,sp,912
    291e:	6d04                	flw	fs1,24(a0)
    2920:	0004                	0x4
    2922:	1500                	addi	s0,sp,672
    2924:	0462                	slli	s0,s0,0x18
    2926:	0000                	unimp
    2928:	ab16                	fsd	ft5,400(sp)
    292a:	0005                	c.nop	1
    292c:	2800                	fld	fs0,16(s0)
    292e:	0504                	addi	s1,sp,640
    2930:	0239                	addi	tp,tp,14
    2932:	b608                	fsd	fa0,40(a2)
    2934:	0005                	c.nop	1
    2936:	1700                	addi	s0,sp,928
    2938:	0536                	slli	a0,a0,0xd
    293a:	0000                	unimp
    293c:	3b05                	jal	266c <__umoddi3+0x438>
    293e:	0702                	c.slli64	a4
    2940:	002c                	addi	a1,sp,8
    2942:	0000                	unimp
    2944:	1700                	addi	s0,sp,928
    2946:	06d0                	addi	a2,sp,836
    2948:	0000                	unimp
    294a:	4005                	c.li	zero,1
    294c:	0b02                	c.slli64	s6
    294e:	000006a7          	0x6a7
    2952:	1704                	addi	s1,sp,928
    2954:	06b8                	addi	a4,sp,840
    2956:	0000                	unimp
    2958:	4005                	c.li	zero,1
    295a:	1402                	slli	s0,s0,0x20
    295c:	000006a7          	0x6a7
    2960:	1708                	addi	a0,sp,928
    2962:	02da                	slli	t0,t0,0x16
    2964:	0000                	unimp
    2966:	4005                	c.li	zero,1
    2968:	1e02                	slli	t3,t3,0x20
    296a:	000006a7          	0x6a7
    296e:	170c                	addi	a1,sp,928
    2970:	00000587          	0x587
    2974:	4205                	li	tp,1
    2976:	0802                	c.slli64	a6
    2978:	002c                	addi	a1,sp,8
    297a:	0000                	unimp
    297c:	1710                	addi	a2,sp,928
    297e:	0024                	addi	s1,sp,8
    2980:	0000                	unimp
    2982:	4305                	li	t1,1
    2984:	0802                	c.slli64	a6
    2986:	000008a7          	0x8a7
    298a:	1714                	addi	a3,sp,928
    298c:	02fa                	slli	t0,t0,0x1e
    298e:	0000                	unimp
    2990:	4605                	li	a2,1
    2992:	0702                	c.slli64	a4
    2994:	002c                	addi	a1,sp,8
    2996:	0000                	unimp
    2998:	1730                	addi	a2,sp,936
    299a:	0591                	addi	a1,a1,4
    299c:	0000                	unimp
    299e:	4705                	li	a4,1
    29a0:	1602                	slli	a2,a2,0x20
    29a2:	08bc                	addi	a5,sp,88
    29a4:	0000                	unimp
    29a6:	1734                	addi	a3,sp,936
    29a8:	000004b3          	add	s1,zero,zero
    29ac:	4905                	li	s2,1
    29ae:	0702                	c.slli64	a4
    29b0:	002c                	addi	a1,sp,8
    29b2:	0000                	unimp
    29b4:	1738                	addi	a4,sp,936
    29b6:	0599                	addi	a1,a1,6
    29b8:	0000                	unimp
    29ba:	4b05                	li	s6,1
    29bc:	0a02                	c.slli64	s4
    29be:	08cd                	addi	a7,a7,19
    29c0:	0000                	unimp
    29c2:	173c                	addi	a5,sp,936
    29c4:	03bd                	addi	t2,t2,15
    29c6:	0000                	unimp
    29c8:	4e05                	li	t3,1
    29ca:	1302                	slli	t1,t1,0x20
    29cc:	0185                	addi	gp,gp,1
    29ce:	0000                	unimp
    29d0:	1740                	addi	s0,sp,932
    29d2:	0266                	slli	tp,tp,0x19
    29d4:	0000                	unimp
    29d6:	4f05                	li	t5,1
    29d8:	0702                	c.slli64	a4
    29da:	002c                	addi	a1,sp,8
    29dc:	0000                	unimp
    29de:	1744                	addi	s1,sp,932
    29e0:	076c                	addi	a1,sp,908
    29e2:	0000                	unimp
    29e4:	5005                	c.li	zero,-31
    29e6:	1302                	slli	t1,t1,0x20
    29e8:	0185                	addi	gp,gp,1
    29ea:	0000                	unimp
    29ec:	1748                	addi	a0,sp,932
    29ee:	000004cf          	fnmadd.s	fs1,ft0,ft0,ft0,rne
    29f2:	5105                	li	sp,-31
    29f4:	1402                	slli	s0,s0,0x20
    29f6:	000008d3          	fadd.s	fa7,ft0,ft0,rne
    29fa:	174c                	addi	a1,sp,932
    29fc:	00000337          	lui	t1,0x0
    2a00:	5405                	li	s0,-31
    2a02:	0702                	c.slli64	a4
    2a04:	002c                	addi	a1,sp,8
    2a06:	0000                	unimp
    2a08:	1750                	addi	a2,sp,932
    2a0a:	00000293          	li	t0,0
    2a0e:	5505                	li	a0,-31
    2a10:	0902                	c.slli64	s2
    2a12:	05b6                	slli	a1,a1,0xd
    2a14:	0000                	unimp
    2a16:	1754                	addi	a3,sp,932
    2a18:	0000052f          	0x52f
    2a1c:	7805                	lui	a6,0xfffe1
    2a1e:	0702                	c.slli64	a4
    2a20:	0882                	c.slli64	a7
    2a22:	0000                	unimp
    2a24:	1858                	addi	a4,sp,52
    2a26:	04a1                	addi	s1,s1,8
    2a28:	0000                	unimp
    2a2a:	7c05                	lui	s8,0xfffe1
    2a2c:	1302                	slli	t1,t1,0x20
    2a2e:	02b6                	slli	t0,t0,0xd
    2a30:	0000                	unimp
    2a32:	0148                	addi	a0,sp,132
    2a34:	9b18                	0x9b18
    2a36:	05000003          	lb	zero,80(zero) # 50 <buflen.1937+0x10>
    2a3a:	027d                	addi	tp,tp,31
    2a3c:	7312                	flw	ft6,36(sp)
    2a3e:	0002                	c.slli64	zero
    2a40:	4c00                	lw	s0,24(s0)
    2a42:	1801                	addi	a6,a6,-32
    2a44:	06ea                	slli	a3,a3,0x1a
    2a46:	0000                	unimp
    2a48:	8105                	srli	a0,a0,0x1
    2a4a:	0c02                	c.slli64	s8
    2a4c:	08e4                	addi	s1,sp,92
    2a4e:	0000                	unimp
    2a50:	02dc                	addi	a5,sp,324
    2a52:	8018                	0x8018
    2a54:	0001                	nop
    2a56:	0500                	addi	s0,sp,640
    2a58:	0286                	slli	t0,t0,0x1
    2a5a:	6810                	flw	fa2,16(s0)
    2a5c:	0006                	c.slli	zero,0x1
    2a5e:	e000                	fsw	fs0,0(s0)
    2a60:	1802                	slli	a6,a6,0x20
    2a62:	0165                	addi	sp,sp,25
    2a64:	0000                	unimp
    2a66:	8805                	andi	s0,s0,1
    2a68:	0a02                	c.slli64	s4
    2a6a:	08f0                	addi	a2,sp,92
    2a6c:	0000                	unimp
    2a6e:	02ec                	addi	a1,sp,332
    2a70:	0f00                	addi	s0,sp,912
    2a72:	bc04                	fsd	fs1,56(s0)
    2a74:	0005                	c.nop	1
    2a76:	0200                	addi	s0,sp,256
    2a78:	0801                	addi	a6,a6,0
    2a7a:	064a                	slli	a2,a2,0x12
    2a7c:	0000                	unimp
    2a7e:	bc15                	j	24b2 <__umoddi3+0x27e>
    2a80:	0005                	c.nop	1
    2a82:	0f00                	addi	s0,sp,912
    2a84:	4404                	lw	s1,8(s0)
    2a86:	0004                	0x4
    2a88:	1300                	addi	s0,sp,416
    2a8a:	0096                	slli	ra,ra,0x5
    2a8c:	0000                	unimp
    2a8e:	05ec                	addi	a1,sp,716
    2a90:	0000                	unimp
    2a92:	6214                	flw	fa3,0(a2)
    2a94:	0004                	0x4
    2a96:	1400                	addi	s0,sp,544
    2a98:	011d                	addi	sp,sp,7
    2a9a:	0000                	unimp
    2a9c:	ec14                	fsw	fa3,24(s0)
    2a9e:	0005                	c.nop	1
    2aa0:	1400                	addi	s0,sp,544
    2aa2:	002c                	addi	a1,sp,8
    2aa4:	0000                	unimp
    2aa6:	0f00                	addi	s0,sp,912
    2aa8:	c304                	sw	s1,0(a4)
    2aaa:	0005                	c.nop	1
    2aac:	1500                	addi	s0,sp,672
    2aae:	05ec                	addi	a1,sp,716
    2ab0:	0000                	unimp
    2ab2:	05ce040f          	0x5ce040f
    2ab6:	0000                	unimp
    2ab8:	00008a13          	mv	s4,ra
    2abc:	1b00                	addi	s0,sp,432
    2abe:	0006                	c.slli	zero,0x1
    2ac0:	1400                	addi	s0,sp,544
    2ac2:	0462                	slli	s0,s0,0x18
    2ac4:	0000                	unimp
    2ac6:	1d14                	addi	a3,sp,688
    2ac8:	0001                	nop
    2aca:	1400                	addi	s0,sp,544
    2acc:	008a                	slli	ra,ra,0x2
    2ace:	0000                	unimp
    2ad0:	2c14                	fld	fa3,24(s0)
    2ad2:	0000                	unimp
    2ad4:	0000                	unimp
    2ad6:	05fd040f          	0x5fd040f
    2ada:	0000                	unimp
    2adc:	00002c13          	slti	s8,zero,0
    2ae0:	3500                	fld	fs0,40(a0)
    2ae2:	0006                	c.slli	zero,0x1
    2ae4:	1400                	addi	s0,sp,544
    2ae6:	0462                	slli	s0,s0,0x18
    2ae8:	0000                	unimp
    2aea:	1d14                	addi	a3,sp,688
    2aec:	0001                	nop
    2aee:	0000                	unimp
    2af0:	0621040f          	0x621040f
    2af4:	0000                	unimp
    2af6:	4f08                	lw	a0,24(a4)
    2af8:	0000                	unimp
    2afa:	4b00                	lw	s0,16(a4)
    2afc:	0006                	c.slli	zero,0x1
    2afe:	0900                	addi	s0,sp,144
    2b00:	00000033          	add	zero,zero,zero
    2b04:	0002                	c.slli64	zero
    2b06:	4f08                	lw	a0,24(a4)
    2b08:	0000                	unimp
    2b0a:	5b00                	lw	s0,48(a4)
    2b0c:	0006                	c.slli	zero,0x1
    2b0e:	0900                	addi	s0,sp,144
    2b10:	00000033          	add	zero,zero,zero
    2b14:	0000                	unimp
    2b16:	5f05                	li	t5,-31
    2b18:	0002                	c.slli64	zero
    2b1a:	0500                	addi	s0,sp,640
    2b1c:	011f 011a 0003      	0x3011a011f
    2b22:	1900                	addi	s0,sp,176
    2b24:	06ca                	slli	a3,a3,0x12
    2b26:	0000                	unimp
    2b28:	050c                	addi	a1,sp,640
    2b2a:	a1080123          	sb	a6,-1534(a6) # fffe0a02 <__C_STACK_TOP__+0xfffd0a02>
    2b2e:	0006                	c.slli	zero,0x1
    2b30:	1700                	addi	s0,sp,928
    2b32:	0799                	addi	a5,a5,6
    2b34:	0000                	unimp
    2b36:	2505                	jal	3156 <impure_data+0x1a6>
    2b38:	1101                	addi	sp,sp,-32
    2b3a:	06a1                	addi	a3,a3,8
    2b3c:	0000                	unimp
    2b3e:	1700                	addi	s0,sp,928
    2b40:	00000357          	0x357
    2b44:	2605                	jal	2e64 <__clz_tab+0x5a8>
    2b46:	0701                	addi	a4,a4,0
    2b48:	002c                	addi	a1,sp,8
    2b4a:	0000                	unimp
    2b4c:	1704                	addi	s1,sp,928
    2b4e:	054e                	slli	a0,a0,0x13
    2b50:	0000                	unimp
    2b52:	2705                	jal	3272 <impure_data+0x2c2>
    2b54:	0b01                	addi	s6,s6,0
    2b56:	000006a7          	0x6a7
    2b5a:	0008                	0x8
    2b5c:	0668040f          	0x668040f
    2b60:	0000                	unimp
    2b62:	065b040f          	0x65b040f
    2b66:	0000                	unimp
    2b68:	1c19                	addi	s8,s8,-26
    2b6a:	0000                	unimp
    2b6c:	0e00                	addi	s0,sp,784
    2b6e:	3f05                	jal	2a9e <__clz_tab+0x1e2>
    2b70:	0801                	addi	a6,a6,0
    2b72:	06e6                	slli	a3,a3,0x19
    2b74:	0000                	unimp
    2b76:	00060817          	auipc	a6,0x60
    2b7a:	0500                	addi	s0,sp,640
    2b7c:	0140                	addi	s0,sp,132
    2b7e:	e612                	fsw	ft4,12(sp)
    2b80:	0006                	c.slli	zero,0x1
    2b82:	0000                	unimp
    2b84:	00040117          	auipc	sp,0x40
    2b88:	0500                	addi	s0,sp,640
    2b8a:	0141                	addi	sp,sp,16
    2b8c:	e612                	fsw	ft4,12(sp)
    2b8e:	0006                	c.slli	zero,0x1
    2b90:	0600                	addi	s0,sp,768
    2b92:	00064f17          	auipc	t5,0x64
    2b96:	0500                	addi	s0,sp,640
    2b98:	0142                	slli	sp,sp,0x10
    2b9a:	5d12                	lw	s10,36(sp)
    2b9c:	0000                	unimp
    2b9e:	0c00                	addi	s0,sp,528
    2ba0:	0800                	addi	s0,sp,16
    2ba2:	005d                	c.nop	23
    2ba4:	0000                	unimp
    2ba6:	06f6                	slli	a3,a3,0x1d
    2ba8:	0000                	unimp
    2baa:	3309                	jal	28ac <_ctype_+0xf4>
    2bac:	0000                	unimp
    2bae:	0200                	addi	s0,sp,256
    2bb0:	1a00                	addi	s0,sp,304
    2bb2:	05d0                	addi	a2,sp,708
    2bb4:	0259                	addi	tp,tp,22
    2bb6:	00080b07          	0x80b07
    2bba:	1700                	addi	s0,sp,928
    2bbc:	043d                	addi	s0,s0,15
    2bbe:	0000                	unimp
    2bc0:	5b05                	li	s6,-31
    2bc2:	1802                	slli	a6,a6,0x20
    2bc4:	00000033          	add	zero,zero,zero
    2bc8:	1700                	addi	s0,sp,928
    2bca:	0624                	addi	s1,sp,776
    2bcc:	0000                	unimp
    2bce:	5c05                	li	s8,-31
    2bd0:	1202                	slli	tp,tp,0x20
    2bd2:	05b6                	slli	a1,a1,0xd
    2bd4:	0000                	unimp
    2bd6:	1704                	addi	s1,sp,928
    2bd8:	03b0                	addi	a2,sp,456
    2bda:	0000                	unimp
    2bdc:	5d05                	li	s10,-31
    2bde:	1002                	c.slli	zero,0x20
    2be0:	0000080b          	0x80b
    2be4:	1708                	addi	a0,sp,928
    2be6:	0726                	slli	a4,a4,0x9
    2be8:	0000                	unimp
    2bea:	5e05                	li	t3,-31
    2bec:	1702                	slli	a4,a4,0x20
    2bee:	0000019b          	0x19b
    2bf2:	1724                	addi	s1,sp,936
    2bf4:	02e2                	slli	t0,t0,0x18
    2bf6:	0000                	unimp
    2bf8:	5f05                	li	t5,-31
    2bfa:	0f02                	c.slli64	t5
    2bfc:	002c                	addi	a1,sp,8
    2bfe:	0000                	unimp
    2c00:	1748                	addi	a0,sp,932
    2c02:	0794                	addi	a3,sp,960
    2c04:	0000                	unimp
    2c06:	6005                	c.lui	zero,0x1
    2c08:	2c02                	fld	fs8,0(sp)
    2c0a:	0025                	c.nop	9
    2c0c:	0000                	unimp
    2c0e:	1750                	addi	a2,sp,932
    2c10:	073e                	slli	a4,a4,0xf
    2c12:	0000                	unimp
    2c14:	6105                	addi	sp,sp,32
    2c16:	1a02                	slli	s4,s4,0x20
    2c18:	06ad                	addi	a3,a3,11
    2c1a:	0000                	unimp
    2c1c:	1758                	addi	a4,sp,932
    2c1e:	057a                	slli	a0,a0,0x1e
    2c20:	0000                	unimp
    2c22:	6205                	lui	tp,0x1
    2c24:	1602                	slli	a2,a2,0x20
    2c26:	0105                	addi	sp,sp,1
    2c28:	0000                	unimp
    2c2a:	1768                	addi	a0,sp,940
    2c2c:	075e                	slli	a4,a4,0x17
    2c2e:	0000                	unimp
    2c30:	6305                	lui	t1,0x1
    2c32:	1602                	slli	a2,a2,0x20
    2c34:	0105                	addi	sp,sp,1
    2c36:	0000                	unimp
    2c38:	1770                	addi	a2,sp,940
    2c3a:	00000157          	0x157
    2c3e:	6405                	lui	s0,0x1
    2c40:	1602                	slli	a2,a2,0x20
    2c42:	0105                	addi	sp,sp,1
    2c44:	0000                	unimp
    2c46:	1778                	addi	a4,sp,940
    2c48:	06e0                	addi	s0,sp,844
    2c4a:	0000                	unimp
    2c4c:	6505                	lui	a0,0x1
    2c4e:	1002                	c.slli	zero,0x20
    2c50:	0000081b          	0x81b
    2c54:	1780                	addi	s0,sp,992
    2c56:	03a4                	addi	s1,sp,456
    2c58:	0000                	unimp
    2c5a:	6605                	lui	a2,0x1
    2c5c:	1002                	c.slli	zero,0x20
    2c5e:	0000082b          	0x82b
    2c62:	1788                	addi	a0,sp,992
    2c64:	0048                	addi	a0,sp,4
    2c66:	0000                	unimp
    2c68:	6705                	lui	a4,0x1
    2c6a:	0f02                	c.slli64	t5
    2c6c:	002c                	addi	a1,sp,8
    2c6e:	0000                	unimp
    2c70:	17a0                	addi	s0,sp,1000
    2c72:	02ac                	addi	a1,sp,328
    2c74:	0000                	unimp
    2c76:	6805                	lui	a6,0x1
    2c78:	1602                	slli	a2,a2,0x20
    2c7a:	0105                	addi	sp,sp,1
    2c7c:	0000                	unimp
    2c7e:	17a4                	addi	s1,sp,1000
    2c80:	011a                	slli	sp,sp,0x6
    2c82:	0000                	unimp
    2c84:	6905                	lui	s2,0x1
    2c86:	1602                	slli	a2,a2,0x20
    2c88:	0105                	addi	sp,sp,1
    2c8a:	0000                	unimp
    2c8c:	17ac                	addi	a1,sp,1000
    2c8e:	0000029b          	0x29b
    2c92:	6a05                	lui	s4,0x1
    2c94:	1602                	slli	a2,a2,0x20
    2c96:	0105                	addi	sp,sp,1
    2c98:	0000                	unimp
    2c9a:	17b4                	addi	a3,sp,1000
    2c9c:	0000005b          	0x5b
    2ca0:	6b05                	lui	s6,0x1
    2ca2:	1602                	slli	a2,a2,0x20
    2ca4:	0105                	addi	sp,sp,1
    2ca6:	0000                	unimp
    2ca8:	17bc                	addi	a5,sp,1000
    2caa:	006a                	c.slli	zero,0x1a
    2cac:	0000                	unimp
    2cae:	6c05                	lui	s8,0x1
    2cb0:	1602                	slli	a2,a2,0x20
    2cb2:	0105                	addi	sp,sp,1
    2cb4:	0000                	unimp
    2cb6:	17c4                	addi	s1,sp,996
    2cb8:	0534                	addi	a3,sp,648
    2cba:	0000                	unimp
    2cbc:	6d05                	lui	s10,0x1
    2cbe:	0802                	c.slli64	a6
    2cc0:	002c                	addi	a1,sp,8
    2cc2:	0000                	unimp
    2cc4:	00cc                	addi	a1,sp,68
    2cc6:	bc08                	fsd	fa0,56(s0)
    2cc8:	0005                	c.nop	1
    2cca:	1b00                	addi	s0,sp,432
    2ccc:	0008                	0x8
    2cce:	0900                	addi	s0,sp,144
    2cd0:	00000033          	add	zero,zero,zero
    2cd4:	0019                	c.nop	6
    2cd6:	bc08                	fsd	fa0,56(s0)
    2cd8:	0005                	c.nop	1
    2cda:	2b00                	fld	fs0,16(a4)
    2cdc:	0008                	0x8
    2cde:	0900                	addi	s0,sp,144
    2ce0:	00000033          	add	zero,zero,zero
    2ce4:	bc080007          	0xbc080007
    2ce8:	0005                	c.nop	1
    2cea:	3b00                	fld	fs0,48(a4)
    2cec:	0008                	0x8
    2cee:	0900                	addi	s0,sp,144
    2cf0:	00000033          	add	zero,zero,zero
    2cf4:	f01a0017          	auipc	zero,0xf01a0
    2cf8:	7205                	lui	tp,0xfffe1
    2cfa:	0702                	c.slli64	a4
    2cfc:	0862                	slli	a6,a6,0x18
    2cfe:	0000                	unimp
    2d00:	0003cb17          	auipc	s6,0x3c
    2d04:	0500                	addi	s0,sp,640
    2d06:	0275                	addi	tp,tp,29
    2d08:	0008621b          	0x8621b
    2d0c:	0000                	unimp
    2d0e:	0002f117          	auipc	sp,0x2f
    2d12:	0500                	addi	s0,sp,640
    2d14:	0276                	slli	tp,tp,0x1d
    2d16:	7218                	flw	fa4,32(a2)
    2d18:	0008                	0x8
    2d1a:	7800                	flw	fs0,48(s0)
    2d1c:	0800                	addi	s0,sp,16
    2d1e:	000002fb          	0x2fb
    2d22:	0872                	slli	a6,a6,0x1c
    2d24:	0000                	unimp
    2d26:	3309                	jal	2a28 <__clz_tab+0x16c>
    2d28:	0000                	unimp
    2d2a:	1d00                	addi	s0,sp,688
    2d2c:	0800                	addi	s0,sp,16
    2d2e:	00000033          	add	zero,zero,zero
    2d32:	0882                	c.slli64	a7
    2d34:	0000                	unimp
    2d36:	3309                	jal	2a38 <__clz_tab+0x17c>
    2d38:	0000                	unimp
    2d3a:	1d00                	addi	s0,sp,688
    2d3c:	1b00                	addi	s0,sp,432
    2d3e:	05f0                	addi	a2,sp,716
    2d40:	a7030257          	0xa7030257
    2d44:	0008                	0x8
    2d46:	1c00                	addi	s0,sp,560
    2d48:	000005ab          	0x5ab
    2d4c:	6e05                	lui	t3,0x1
    2d4e:	0b02                	c.slli64	s6
    2d50:	06f6                	slli	a3,a3,0x1d
    2d52:	0000                	unimp
    2d54:	091c                	addi	a5,sp,144
    2d56:	05000007          	0x5000007
    2d5a:	3b0b0277          	0x3b0b0277
    2d5e:	0008                	0x8
    2d60:	0000                	unimp
    2d62:	bc08                	fsd	fa0,56(s0)
    2d64:	0005                	c.nop	1
    2d66:	b700                	fsd	fs0,40(a4)
    2d68:	0008                	0x8
    2d6a:	0900                	addi	s0,sp,144
    2d6c:	00000033          	add	zero,zero,zero
    2d70:	0018                	0x18
    2d72:	0f1d                	addi	t5,t5,7
    2d74:	0001                	nop
    2d76:	0f00                	addi	s0,sp,912
    2d78:	b704                	fsd	fs1,40(a4)
    2d7a:	0008                	0x8
    2d7c:	1e00                	addi	s0,sp,816
    2d7e:	08cd                	addi	a7,a7,19
    2d80:	0000                	unimp
    2d82:	6214                	flw	fa3,0(a2)
    2d84:	0004                	0x4
    2d86:	0000                	unimp
    2d88:	08c2040f          	0x8c2040f
    2d8c:	0000                	unimp
    2d8e:	0185040f          	0x185040f
    2d92:	0000                	unimp
    2d94:	e41e                	fsw	ft7,8(sp)
    2d96:	0008                	0x8
    2d98:	1400                	addi	s0,sp,544
    2d9a:	002c                	addi	a1,sp,8
    2d9c:	0000                	unimp
    2d9e:	0f00                	addi	s0,sp,912
    2da0:	ea04                	fsw	fs1,16(a2)
    2da2:	0008                	0x8
    2da4:	0f00                	addi	s0,sp,912
    2da6:	d904                	sw	s1,48(a0)
    2da8:	0008                	0x8
    2daa:	0800                	addi	s0,sp,16
    2dac:	0000065b          	0x65b
    2db0:	0900                	addi	s0,sp,144
    2db2:	0000                	unimp
    2db4:	3309                	jal	2ab6 <__clz_tab+0x1fa>
    2db6:	0000                	unimp
    2db8:	0200                	addi	s0,sp,256
    2dba:	1f00                	addi	s0,sp,944
    2dbc:	06a4                	addi	s1,sp,840
    2dbe:	0000                	unimp
    2dc0:	0705                	addi	a4,a4,1
    2dc2:	04621703          	lh	a4,70(tp) # fffe1046 <__C_STACK_TOP__+0xfffd1046>
    2dc6:	0000                	unimp
    2dc8:	9d1f 0006 0500      	0x50000069d1f
    2dce:	0308                	addi	a0,sp,384
    2dd0:	681d                	lui	a6,0x7
    2dd2:	0004                	0x4
    2dd4:	0800                	addi	s0,sp,16
    2dd6:	05f2                	slli	a1,a1,0x1c
    2dd8:	0000                	unimp
    2dda:	0925                	addi	s2,s2,9
    2ddc:	0000                	unimp
    2dde:	0020                	addi	s0,sp,8
    2de0:	1a15                	addi	s4,s4,-27
    2de2:	0009                	c.nop	2
    2de4:	2100                	fld	fs0,0(a0)
    2de6:	0286                	slli	t0,t0,0x1
    2de8:	0000                	unimp
    2dea:	1406                	slli	s0,s0,0x21
    2dec:	2524                	fld	fs1,72(a0)
    2dee:	0009                	c.nop	2
    2df0:	2100                	fld	fs0,0(a0)
    2df2:	0570                	addi	a2,sp,652
    2df4:	0000                	unimp
    2df6:	1506                	slli	a0,a0,0x21
    2df8:	2c15                	jal	302c <impure_data+0x7c>
    2dfa:	0000                	unimp
    2dfc:	0f00                	addi	s0,sp,912
    2dfe:	4804                	lw	s1,16(s0)
    2e00:	0009                	c.nop	2
    2e02:	1300                	addi	s0,sp,416
    2e04:	002c                	addi	a1,sp,8
    2e06:	0000                	unimp
    2e08:	095c                	addi	a5,sp,148
    2e0a:	0000                	unimp
    2e0c:	5c14                	lw	a3,56(s0)
    2e0e:	0009                	c.nop	2
    2e10:	1400                	addi	s0,sp,544
    2e12:	095c                	addi	a5,sp,148
    2e14:	0000                	unimp
    2e16:	0f00                	addi	s0,sp,912
    2e18:	6204                	flw	fs1,0(a2)
    2e1a:	0009                	c.nop	2
    2e1c:	2200                	fld	fs0,0(a2)
    2e1e:	a921                	j	3236 <impure_data+0x286>
    2e20:	0004                	0x4
    2e22:	0700                	addi	s0,sp,896
    2e24:	05b60e63          	beq	a2,s11,2e80 <__clz_tab+0x5c4>
    2e28:	0000                	unimp
    2e2a:	d221                	beqz	a2,2d6a <__clz_tab+0x4ae>
    2e2c:	08000003          	lb	zero,128(zero) # 80 <buflen.1937+0x40>
    2e30:	0f10                	addi	a2,sp,912
    2e32:	0000097b          	0x97b
    2e36:	05b6040f          	0x5b6040f
    2e3a:	0000                	unimp
    2e3c:	ac21                	j	3054 <impure_data+0xa4>
    2e3e:	0004                	0x4
    2e40:	0800                	addi	s0,sp,16
    2e42:	0efc                	addi	a5,sp,860
    2e44:	05b6                	slli	a1,a1,0xd
    2e46:	0000                	unimp
    2e48:	8e21                	xor	a2,a2,s0
    2e4a:	0000                	unimp
    2e4c:	0800                	addi	s0,sp,16
    2e4e:	0cfd                	addi	s9,s9,31
    2e50:	002c                	addi	a1,sp,8
    2e52:	0000                	unimp
    2e54:	0e21                	addi	t3,t3,8
    2e56:	0006                	c.slli	zero,0x1
    2e58:	0800                	addi	s0,sp,16
    2e5a:	14fd                	addi	s1,s1,-1
    2e5c:	002c                	addi	a1,sp,8
    2e5e:	0000                	unimp
    2e60:	4d21                	li	s10,8
    2e62:	08000007          	0x8000007
    2e66:	1cfd                	addi	s9,s9,-1
    2e68:	002c                	addi	a1,sp,8
    2e6a:	0000                	unimp
    2e6c:	1b21                	addi	s6,s6,-24
    2e6e:	0004                	0x4
    2e70:	0800                	addi	s0,sp,16
    2e72:	0cff                	0xcff
    2e74:	002c                	addi	a1,sp,8
    2e76:	0000                	unimp
    2e78:	d921                	beqz	a0,2dc8 <__clz_tab+0x50c>
    2e7a:	0004                	0x4
    2e7c:	0900                	addi	s0,sp,144
    2e7e:	169a                	slli	a3,a3,0x26
    2e80:	0064                	addi	s1,sp,12
    2e82:	0000                	unimp
    2e84:	2f21                	jal	359c <Run_Index>
    2e86:	0000                	unimp
    2e88:	0900                	addi	s0,sp,144
    2e8a:	002c159b          	0x2c159b
    2e8e:	0000                	unimp
    2e90:	b608                	fsd	fa0,40(a2)
    2e92:	0005                	c.nop	1
    2e94:	e500                	fsw	fs0,8(a0)
    2e96:	0009                	c.nop	2
    2e98:	0900                	addi	s0,sp,144
    2e9a:	00000033          	add	zero,zero,zero
    2e9e:	0001                	nop
    2ea0:	2921                	jal	32b8 <impure_data+0x308>
    2ea2:	0001                	nop
    2ea4:	0900                	addi	s0,sp,144
    2ea6:	179e                	slli	a5,a5,0x27
    2ea8:	09d5                	addi	s3,s3,21
    2eaa:	0000                	unimp
    2eac:	4504                	lw	s1,8(a0)
    2eae:	0a000003          	lb	zero,160(zero) # a0 <buflen.1937+0x60>
    2eb2:	162a                	slli	a2,a2,0x2a
    2eb4:	00000033          	add	zero,zero,zero
    2eb8:	5e04                	lw	s1,56(a2)
    2eba:	0005                	c.nop	1
    2ebc:	0a00                	addi	s0,sp,272
    2ebe:	0a09152f          	0xa09152f
    2ec2:	0000                	unimp
    2ec4:	0a0f040f          	0xa0f040f
    2ec8:	0000                	unimp
    2eca:	0009f113          	andi	sp,s3,0
    2ece:	1e00                	addi	s0,sp,816
    2ed0:	000a                	c.slli	zero,0x2
    2ed2:	1400                	addi	s0,sp,544
    2ed4:	095c                	addi	a5,sp,148
    2ed6:	0000                	unimp
    2ed8:	0400                	addi	s0,sp,512
    2eda:	079f 0000 360a      	0x360a0000079f
    2ee0:	0009420f          	0x9420f
    2ee4:	2100                	fld	fs0,0(a0)
    2ee6:	000a                	c.slli	zero,0x2
    2ee8:	0000                	unimp
    2eea:	bb0a                	fsd	ft2,432(sp)
    2eec:	fd12                	fsw	ft4,184(sp)
    2eee:	0009                	c.nop	2
    2ef0:	2100                	fld	fs0,0(a0)
    2ef2:	065c                	addi	a5,sp,772
    2ef4:	0000                	unimp
    2ef6:	be0a                	fsd	ft2,312(sp)
    2ef8:	1e10                	addi	a2,sp,816
    2efa:	000a                	c.slli	zero,0x2
    2efc:	2300                	fld	fs0,0(a4)
    2efe:	0318                	addi	a4,sp,384
    2f00:	0000                	unimp
    2f02:	00330407          	0x330407
    2f06:	0000                	unimp
    2f08:	7f06180b          	0x7f06180b
    2f0c:	000a                	c.slli	zero,0x2
    2f0e:	2400                	fld	fs0,8(s0)
    2f10:	0000050f          	0x50f
    2f14:	2400                	fld	fs0,8(s0)
    2f16:	03f6                	slli	t2,t2,0x1d
    2f18:	0000                	unimp
    2f1a:	2401                	jal	311a <impure_data+0x16a>
    2f1c:	047f                	0x47f
    2f1e:	0000                	unimp
    2f20:	2402                	fld	fs0,0(sp)
    2f22:	044a                	slli	s0,s0,0x12
    2f24:	0000                	unimp
    2f26:	05062403          	lw	s0,80(a2) # 1050 <main+0x3e0>
    2f2a:	0000                	unimp
    2f2c:	2404                	fld	fs1,8(s0)
    2f2e:	0754                	addi	a3,sp,900
    2f30:	0000                	unimp
    2f32:	2405                	jal	3152 <impure_data+0x1a2>
    2f34:	00000743          	fmadd.s	fa4,ft0,ft0,ft0,rne
    2f38:	0006                	c.slli	zero,0x1
    2f3a:	ec21                	bnez	s0,2f92 <__clz_tab+0x6d6>
    2f3c:	0b000003          	lb	zero,176(zero) # b0 <buflen.1937+0x70>
    2f40:	1c21                	addi	s8,s8,-24
    2f42:	0a42                	slli	s4,s4,0x10
    2f44:	0000                	unimp
    2f46:	00045523          	0x45523
    2f4a:	0700                	addi	s0,sp,896
    2f4c:	3304                	fld	fs1,32(a4)
    2f4e:	0000                	unimp
    2f50:	0b00                	addi	s0,sp,400
    2f52:	0ab00623          	sb	a1,172(zero) # ac <buflen.1937+0x6c>
    2f56:	0000                	unimp
    2f58:	5424                	lw	s1,104(s0)
    2f5a:	0005                	c.nop	1
    2f5c:	0000                	unimp
    2f5e:	2524                	fld	fs1,72(a0)
    2f60:	0005                	c.nop	1
    2f62:	0100                	addi	s0,sp,128
    2f64:	3124                	fld	fs1,96(a0)
    2f66:	0006                	c.slli	zero,0x1
    2f68:	0200                	addi	s0,sp,256
    2f6a:	2100                	fld	fs0,0(a0)
    2f6c:	02ba                	slli	t0,t0,0xe
    2f6e:	0000                	unimp
    2f70:	8b1e280b          	0x8b1e280b
    2f74:	000a                	c.slli	zero,0x2
    2f76:	2100                	fld	fs0,0(a0)
    2f78:	040c                	addi	a1,sp,512
    2f7a:	0000                	unimp
    2f7c:	290c                	fld	fa1,16(a0)
    2f7e:	251a                	fld	fa0,384(sp)
    2f80:	0009                	c.nop	2
    2f82:	2100                	fld	fs0,0(a0)
    2f84:	05f8                	addi	a4,sp,716
    2f86:	0000                	unimp
    2f88:	380c                	fld	fa1,48(s0)
    2f8a:	251a                	fld	fa0,384(sp)
    2f8c:	0009                	c.nop	2
    2f8e:	0400                	addi	s0,sp,512
    2f90:	0000077b          	0x77b
    2f94:	7b0d                	lui	s6,0xfffe3
    2f96:	4f16                	lw	t5,68(sp)
    2f98:	0000                	unimp
    2f9a:	1500                	addi	s0,sp,672
    2f9c:	0ad4                	addi	a3,sp,340
    2f9e:	0000                	unimp
    2fa0:	7104                	flw	fs1,32(a0)
    2fa2:	0002                	c.slli64	zero
    2fa4:	0d00                	addi	s0,sp,656
    2fa6:	0f80                	addi	s0,sp,976
    2fa8:	002c                	addi	a1,sp,8
    2faa:	0000                	unimp
    2fac:	7004                	flw	fs1,32(s0)
    2fae:	0002                	c.slli64	zero
    2fb0:	0d00                	addi	s0,sp,656
    2fb2:	1681                	addi	a3,a3,-32
    2fb4:	00000033          	add	zero,zero,zero
    2fb8:	b104                	fsd	fs1,32(a0)
    2fba:	0006                	c.slli	zero,0x1
    2fbc:	0d00                	addi	s0,sp,656
    2fbe:	0f84                	addi	s1,sp,976
    2fc0:	003a                	c.slli	zero,0xe
    2fc2:	0000                	unimp
    2fc4:	b004                	fsd	fs1,32(s0)
    2fc6:	0006                	c.slli	zero,0x1
    2fc8:	0d00                	addi	s0,sp,656
    2fca:	1685                	addi	a3,a3,-31
    2fcc:	0025                	c.nop	9
    2fce:	0000                	unimp
    2fd0:	0402                	c.slli64	s0
    2fd2:	9204                	0x9204
    2fd4:	0004                	0x4
    2fd6:	0200                	addi	s0,sp,256
    2fd8:	0308                	addi	a0,sp,384
    2fda:	048a                	slli	s1,s1,0x2
    2fdc:	0000                	unimp
    2fde:	0802                	c.slli64	a6
    2fe0:	a204                	fsd	fs1,0(a2)
    2fe2:	0000                	unimp
    2fe4:	0200                	addi	s0,sp,256
    2fe6:	0310                	addi	a2,sp,384
    2fe8:	0039                	c.nop	14
    2fea:	0000                	unimp
    2fec:	2002                	fld	ft0,0(sp)
    2fee:	00009503          	lh	a0,0(ra)
    2ff2:	1900                	addi	s0,sp,176
    2ff4:	0375                	addi	t1,t1,29
    2ff6:	0000                	unimp
    2ff8:	0d08                	addi	a0,sp,656
    2ffa:	01ed                	addi	gp,gp,27
    2ffc:	630a                	flw	ft6,128(sp)
    2ffe:	2500000b          	0x2500000b
    3002:	6f6c                	flw	fa1,92(a4)
    3004:	ed0d0077          	0xed0d0077
    3008:	1a01                	addi	s4,s4,-32
    300a:	0ae5                	addi	s5,s5,25
    300c:	0000                	unimp
    300e:	1700                	addi	s0,sp,928
    3010:	0615                	addi	a2,a2,5
    3012:	0000                	unimp
    3014:	ed0d                	bnez	a0,304e <impure_data+0x9e>
    3016:	1f01                	addi	t5,t5,-32
    3018:	0ae5                	addi	s5,s5,25
    301a:	0000                	unimp
    301c:	0004                	0x4
    301e:	f40d081b          	0xf40d081b
    3022:	0901                	addi	s2,s2,0
    3024:	0b85                	addi	s7,s7,1
    3026:	0000                	unimp
    3028:	7326                	flw	ft6,104(sp)
    302a:	0d00                	addi	s0,sp,656
    302c:	01f6                	slli	gp,gp,0x1d
    302e:	000b3813          	sltiu	a6,s6,0
    3032:	2600                	fld	fs0,8(a2)
    3034:	6c6c                	flw	fa1,92(s0)
    3036:	0d00                	addi	s0,sp,656
    3038:	fd0a01f7          	0xfd0a01f7
    303c:	000a                	c.slli	zero,0x2
    303e:	0000                	unimp
    3040:	4f05                	li	t5,1
    3042:	0d000003          	lb	zero,208(zero) # d0 <buflen.1937+0x90>
    3046:	01f8                	addi	a4,sp,204
    3048:	000b6303          	0xb6303
    304c:	1500                	addi	s0,sp,672
    304e:	0b85                	addi	s7,s7,1
    3050:	0000                	unimp
    3052:	e008                	fsw	fa0,0(s0)
    3054:	000a                	c.slli	zero,0x2
    3056:	a700                	fsd	fs0,8(a4)
    3058:	0900000b          	0x900000b
    305c:	00000033          	add	zero,zero,zero
    3060:	00ff                	0xff
    3062:	9715                	srai	a4,a4,0x25
    3064:	1f00000b          	0x1f00000b
    3068:	06f4                	addi	a3,sp,844
    306a:	0000                	unimp
    306c:	fc0d                	bnez	s0,2fa6 <__clz_tab+0x6ea>
    306e:	1601                	addi	a2,a2,-32
    3070:	00000ba7          	0xba7
    3074:	911f 0003 0d00      	0xd000003911f
    307a:	0202                	c.slli64	tp
    307c:	a716                	fsd	ft5,392(sp)
    307e:	2700000b          	0x2700000b
    3082:	07b1                	addi	a5,a5,12
    3084:	0000                	unimp
    3086:	1a01                	addi	s4,s4,-32
    3088:	0105                	addi	sp,sp,1
    308a:	0b09                	addi	s6,s6,2
    308c:	0000                	unimp
    308e:	2234                	fld	fa3,64(a2)
    3090:	0000                	unimp
    3092:	0410                	addi	a2,sp,512
    3094:	0000                	unimp
    3096:	9c01                	0x9c01
    3098:	0f00                	addi	s0,sp,912
    309a:	0000                	unimp
    309c:	7528                	flw	fa0,104(a0)
    309e:	0100                	addi	s0,sp,128
    30a0:	051a                	slli	a0,a0,0x6
    30a2:	0914                	addi	a3,sp,144
    30a4:	5100000b          	0x5100000b
    30a8:	0016                	c.slli	zero,0x5
    30aa:	2800                	fld	fs0,16(s0)
    30ac:	0076                	c.slli	zero,0x1d
    30ae:	1a01                	addi	s4,s4,-32
    30b0:	1f05                	addi	t5,t5,-31
    30b2:	0b09                	addi	s6,s6,2
    30b4:	0000                	unimp
    30b6:	16f9                	addi	a3,a3,-2
    30b8:	0000                	unimp
    30ba:	7729                	lui	a4,0xfffea
    30bc:	0100                	addi	s0,sp,128
    30be:	051c                	addi	a5,sp,640
    30c0:	000b090b          	0xb090b
    30c4:	6100                	flw	fs0,0(a0)
    30c6:	2a000017          	auipc	zero,0x2a000
    30ca:	0f00                	addi	s0,sp,912
    30cc:	0000                	unimp
    30ce:	2234                	fld	fa3,64(a2)
    30d0:	0000                	unimp
    30d2:	01b8                	addi	a4,sp,200
    30d4:	0000                	unimp
    30d6:	1e01                	addi	t3,t3,-32
    30d8:	0a05                	addi	s4,s4,1
    30da:	000f282b          	0xf282b
    30de:	7900                	flw	fs0,48(a0)
    30e0:	2b000017          	auipc	zero,0x2b000
    30e4:	0f1d                	addi	t5,t5,7
    30e6:	0000                	unimp
    30e8:	17a1                	addi	a5,a5,-24
    30ea:	0000                	unimp
    30ec:	000f122b          	0xf122b
    30f0:	0900                	addi	s0,sp,144
    30f2:	0018                	0x18
    30f4:	2c00                	fld	fs0,24(s0)
    30f6:	01b8                	addi	a4,sp,200
    30f8:	0000                	unimp
    30fa:	342d                	jal	2b24 <__clz_tab+0x268>
    30fc:	2d00000f          	0x2d00000f
    3100:	0f40                	addi	s0,sp,916
    3102:	0000                	unimp
    3104:	4c2d                	li	s8,11
    3106:	2e00000f          	0x2e00000f
    310a:	0f58                	addi	a4,sp,916
    310c:	0000                	unimp
    310e:	1881                	addi	a7,a7,-32
    3110:	0000                	unimp
    3112:	642e                	flw	fs0,200(sp)
    3114:	c000000f          	0xc000000f
    3118:	0018                	0x18
    311a:	2e00                	fld	fs0,24(a2)
    311c:	0f70                	addi	a2,sp,924
    311e:	0000                	unimp
    3120:	1915                	addi	s2,s2,-27
    3122:	0000                	unimp
    3124:	7c2e                	flw	fs8,232(sp)
    3126:	8b00000f          	0x8b00000f
    312a:	0019                	c.nop	6
    312c:	2e00                	fld	fs0,24(a2)
    312e:	0f88                	addi	a0,sp,976
    3130:	0000                	unimp
    3132:	00001a17          	auipc	s4,0x1
    3136:	942e                	add	s0,s0,a1
    3138:	3500000f          	0x3500000f
    313c:	001a                	c.slli	zero,0x6
    313e:	2e00                	fld	fs0,24(a2)
    3140:	0fa0                	addi	s0,sp,984
    3142:	0000                	unimp
    3144:	1a49                	addi	s4,s4,-14
    3146:	0000                	unimp
    3148:	ac2e                	fsd	fa1,24(sp)
    314a:	6900000f          	0x6900000f
    314e:	001a                	c.slli	zero,0x6
    3150:	2e00                	fld	fs0,24(a2)
    3152:	00000fb7          	lui	t6,0x0
    3156:	00001a87          	0x1a87
    315a:	c32d                	beqz	a4,31bc <impure_data+0x20c>
    315c:	2f00000f          	0x2f00000f
    3160:	00000fcf          	fnmadd.s	ft11,ft0,ft0,ft0,rne
    3164:	01d0                	addi	a2,sp,196
    3166:	0000                	unimp
    3168:	0cc4                	addi	s1,sp,596
    316a:	0000                	unimp
    316c:	d42e                	sw	a1,40(sp)
    316e:	c600000f          	0xc600000f
    3172:	001a                	c.slli	zero,0x6
    3174:	2e00                	fld	fs0,24(a2)
    3176:	0fe1                	addi	t6,t6,24
    3178:	0000                	unimp
    317a:	1ae4                	addi	s1,sp,380
    317c:	0000                	unimp
    317e:	3000                	fld	fs0,32(s0)
    3180:	00000fef          	jal	t6,3180 <impure_data+0x1d0>
    3184:	2298                	fld	fa4,0(a3)
    3186:	0000                	unimp
    3188:	0070                	addi	a2,sp,12
    318a:	0000                	unimp
    318c:	0d11                	addi	s10,s10,4
    318e:	0000                	unimp
    3190:	f42e                	fsw	fa1,40(sp)
    3192:	f700000f          	0xf700000f
    3196:	001a                	c.slli	zero,0x6
    3198:	2e00                	fld	fs0,24(a2)
    319a:	1001                	c.nop	-32
    319c:	0000                	unimp
    319e:	1b0a                	slli	s6,s6,0x22
    31a0:	0000                	unimp
    31a2:	0e2d                	addi	t3,t3,11
    31a4:	0010                	0x10
    31a6:	2e00                	fld	fs0,24(a2)
    31a8:	0000101b          	0x101b
    31ac:	1b2e                	slli	s6,s6,0x2b
    31ae:	0000                	unimp
    31b0:	282e                	fld	fa6,200(sp)
    31b2:	0010                	0x10
    31b4:	4100                	lw	s0,0(a0)
    31b6:	2e00001b          	0x2e00001b
    31ba:	1035                	c.nop	-19
    31bc:	0000                	unimp
    31be:	1b5f 0000 422e      	0x422e00001b5f
    31c4:	0010                	0x10
    31c6:	7d00                	flw	fs0,56(a0)
    31c8:	0000001b          	0x1b
    31cc:	0010502f          	0x10502f
    31d0:	e800                	fsw	fs0,16(s0)
    31d2:	0001                	nop
    31d4:	3100                	fld	fs0,32(a0)
    31d6:	000d                	c.nop	3
    31d8:	2e00                	fld	fs0,24(a2)
    31da:	1055                	c.nop	-11
    31dc:	0000                	unimp
    31de:	00001b9b          	0x1b9b
    31e2:	622e                	flw	ft4,200(sp)
    31e4:	0010                	0x10
    31e6:	b900                	fsd	fs0,48(a0)
    31e8:	0000001b          	0x1b
    31ec:	d130                	sw	a2,96(a0)
    31ee:	0010                	0x10
    31f0:	6800                	flw	fs0,16(s0)
    31f2:	74000023          	sb	zero,1856(zero) # 740 <vprintfmt.constprop.0+0x31a>
    31f6:	0000                	unimp
    31f8:	8200                	0x8200
    31fa:	000d                	c.nop	3
    31fc:	2e00                	fld	fs0,24(a2)
    31fe:	10d6                	slli	ra,ra,0x35
    3200:	0000                	unimp
    3202:	00001bd7          	0x1bd7
    3206:	e32e                	fsw	fa1,132(sp)
    3208:	0010                	0x10
    320a:	ea00                	fsw	fs0,16(a2)
    320c:	2e00001b          	0x2e00001b
    3210:	10f0                	addi	a2,sp,108
    3212:	0000                	unimp
    3214:	1c0e                	slli	s8,s8,0x23
    3216:	0000                	unimp
    3218:	fd2e                	fsw	fa1,184(sp)
    321a:	0010                	0x10
    321c:	2100                	fld	fs0,0(a0)
    321e:	001c                	0x1c
    3220:	2e00                	fld	fs0,24(a2)
    3222:	110a                	slli	sp,sp,0x22
    3224:	0000                	unimp
    3226:	1c34                	addi	a3,sp,568
    3228:	0000                	unimp
    322a:	172e                	slli	a4,a4,0x2b
    322c:	0011                	c.nop	4
    322e:	5d00                	lw	s0,56(a0)
    3230:	001c                	0x1c
    3232:	2e00                	fld	fs0,24(a2)
    3234:	1124                	addi	s1,sp,168
    3236:	0000                	unimp
    3238:	00001c7b          	0x1c7b
    323c:	2f00                	fld	fs0,24(a4)
    323e:	1070                	addi	a2,sp,44
    3240:	0000                	unimp
    3242:	0200                	addi	s0,sp,256
    3244:	0000                	unimp
    3246:	00000dcf          	fnmadd.s	fs11,ft0,ft0,ft0,rne
    324a:	752e                	flw	fa0,232(sp)
    324c:	0010                	0x10
    324e:	9900                	0x9900
    3250:	001c                	0x1c
    3252:	2e00                	fld	fs0,24(a2)
    3254:	1082                	slli	ra,ra,0x20
    3256:	0000                	unimp
    3258:	1cac                	addi	a1,sp,632
    325a:	0000                	unimp
    325c:	8f2e                	mv	t5,a1
    325e:	0010                	0x10
    3260:	d000                	sw	s0,32(s0)
    3262:	001c                	0x1c
    3264:	2e00                	fld	fs0,24(a2)
    3266:	109c                	addi	a5,sp,96
    3268:	0000                	unimp
    326a:	00001ce3          	bnez	zero,3a82 <Arr_2_Glob+0x3a6>
    326e:	a92e                	fsd	fa1,144(sp)
    3270:	0010                	0x10
    3272:	f600                	fsw	fs0,40(a2)
    3274:	001c                	0x1c
    3276:	2e00                	fld	fs0,24(a2)
    3278:	10b6                	slli	ra,ra,0x2d
    327a:	0000                	unimp
    327c:	1d1f 0000 c32e      	0xc32e00001d1f
    3282:	0010                	0x10
    3284:	3d00                	fld	fs0,56(a0)
    3286:	001d                	c.nop	7
    3288:	0000                	unimp
    328a:	0011322f          	0x11322f
    328e:	1800                	addi	s0,sp,48
    3290:	0002                	c.slli64	zero
    3292:	ef00                	fsw	fs0,24(a4)
    3294:	000d                	c.nop	3
    3296:	2e00                	fld	fs0,24(a2)
    3298:	00001137          	lui	sp,0x1
    329c:	00001d5b          	0x1d5b
    32a0:	442e                	lw	s0,200(sp)
    32a2:	0011                	c.nop	4
    32a4:	6e00                	flw	fs0,24(a2)
    32a6:	001d                	c.nop	7
    32a8:	0000                	unimp
    32aa:	5230                	lw	a2,96(a2)
    32ac:	0011                	c.nop	4
    32ae:	c000                	sw	s0,0(s0)
    32b0:	0024                	addi	s1,sp,8
    32b2:	1000                	addi	s0,sp,32
    32b4:	0000                	unimp
    32b6:	0a00                	addi	s0,sp,272
    32b8:	000e                	c.slli	zero,0x3
    32ba:	2e00                	fld	fs0,24(a2)
    32bc:	00001157          	0x1157
    32c0:	1d8c                	addi	a1,sp,752
    32c2:	0000                	unimp
    32c4:	3100                	fld	fs0,32(a0)
    32c6:	1165                	addi	sp,sp,-7
    32c8:	0000                	unimp
    32ca:	24f0                	fld	fa2,200(s1)
    32cc:	0000                	unimp
    32ce:	0150                	addi	a2,sp,132
    32d0:	0000                	unimp
    32d2:	662e                	flw	fa2,200(sp)
    32d4:	0011                	c.nop	4
    32d6:	9f00                	0x9f00
    32d8:	001d                	c.nop	7
    32da:	2e00                	fld	fs0,24(a2)
    32dc:	1172                	slli	sp,sp,0x3c
    32de:	0000                	unimp
    32e0:	1db2                	slli	s11,s11,0x2c
    32e2:	0000                	unimp
    32e4:	00117e2f          	0x117e2f
    32e8:	3000                	fld	fs0,32(s0)
    32ea:	0002                	c.slli64	zero
    32ec:	7600                	flw	fs0,40(a2)
    32ee:	000e                	c.slli	zero,0x3
    32f0:	2e00                	fld	fs0,24(a2)
    32f2:	00001183          	lh	gp,0(zero) # 0 <buf.1936>
    32f6:	00001ddb          	0x1ddb
    32fa:	902e                	c.add	zero,a1
    32fc:	0011                	c.nop	4
    32fe:	fd00                	fsw	fs0,56(a0)
    3300:	001d                	c.nop	7
    3302:	2e00                	fld	fs0,24(a2)
    3304:	119d                	addi	gp,gp,-25
    3306:	0000                	unimp
    3308:	1e21                	addi	t3,t3,-24
    330a:	0000                	unimp
    330c:	aa2e                	fsd	fa1,272(sp)
    330e:	0011                	c.nop	4
    3310:	3f00                	fld	fs0,56(a4)
    3312:	001e                	c.slli	zero,0x7
    3314:	2e00                	fld	fs0,24(a2)
    3316:	000011b7          	lui	gp,0x1
    331a:	1e5d                	addi	t3,t3,-9
    331c:	0000                	unimp
    331e:	c42e                	sw	a1,8(sp)
    3320:	0011                	c.nop	4
    3322:	8600                	0x8600
    3324:	001e                	c.slli	zero,0x7
    3326:	2e00                	fld	fs0,24(a2)
    3328:	11d1                	addi	gp,gp,-12
    332a:	0000                	unimp
    332c:	00001eaf          	0x1eaf
    3330:	2f00                	fld	fs0,24(a4)
    3332:	11df 0000 0268      	0x268000011df
    3338:	0000                	unimp
    333a:	0eca                	slli	t4,t4,0x12
    333c:	0000                	unimp
    333e:	e42e                	fsw	fa1,8(sp)
    3340:	0011                	c.nop	4
    3342:	dd00                	sw	s0,56(a0)
    3344:	001e                	c.slli	zero,0x7
    3346:	2e00                	fld	fs0,24(a2)
    3348:	11f1                	addi	gp,gp,-4
    334a:	0000                	unimp
    334c:	1ef0                	addi	a2,sp,892
    334e:	0000                	unimp
    3350:	fe2e                	fsw	fa1,60(sp)
    3352:	0011                	c.nop	4
    3354:	1500                	addi	s0,sp,672
    3356:	001f 2e00 120b      	0x120b2e00001f
    335c:	0000                	unimp
    335e:	1f28                	addi	a0,sp,952
    3360:	0000                	unimp
    3362:	182e                	slli	a6,a6,0x2b
    3364:	0012                	c.slli	zero,0x4
    3366:	3b00                	fld	fs0,48(a4)
    3368:	001f 2e00 1225      	0x12252e00001f
    336e:	0000                	unimp
    3370:	1f4e                	slli	t5,t5,0x33
    3372:	0000                	unimp
    3374:	322e                	fld	ft4,232(sp)
    3376:	0012                	c.slli	zero,0x4
    3378:	8100                	0x8100
    337a:	001f 3200 123f      	0x123f3200001f
    3380:	0000                	unimp
    3382:	6001                	0x6001
    3384:	3000                	fld	fs0,32(s0)
    3386:	124d                	addi	tp,tp,-13
    3388:	0000                	unimp
    338a:	260c                	fld	fa1,8(a2)
    338c:	0000                	unimp
    338e:	0014                	0x14
    3390:	0000                	unimp
    3392:	0ee5                	addi	t4,t4,25
    3394:	0000                	unimp
    3396:	522e                	lw	tp,232(sp)
    3398:	0012                	c.slli	zero,0x4
    339a:	9400                	0x9400
    339c:	001f 0000 6031      	0x60310000001f
    33a2:	0012                	c.slli	zero,0x4
    33a4:	2000                	fld	fs0,0(s0)
    33a6:	0026                	c.slli	zero,0x9
    33a8:	1000                	addi	s0,sp,32
    33aa:	0000                	unimp
    33ac:	2e00                	fld	fs0,24(a2)
    33ae:	1261                	addi	tp,tp,-8
    33b0:	0000                	unimp
    33b2:	00001fa7          	0x1fa7
    33b6:	0000                	unimp
    33b8:	0000                	unimp
    33ba:	3300                	fld	fs0,32(a4)
    33bc:	000005eb          	0x5eb
    33c0:	f701                	bnez	a4,32c8 <impure_data+0x318>
    33c2:	0b090103          	lb	sp,176(s2) # 10b0 <main+0x440>
    33c6:	0000                	unimp
    33c8:	00127103          	0x127103
    33cc:	3400                	fld	fs0,40(s0)
    33ce:	006e                	c.slli	zero,0x1b
    33d0:	f701                	bnez	a4,32d8 <impure_data+0x328>
    33d2:	0b091703          	lh	a4,176(s2)
    33d6:	0000                	unimp
    33d8:	6434                	flw	fa3,72(s0)
    33da:	0100                	addi	s0,sp,128
    33dc:	092203f7          	0x92203f7
    33e0:	3400000b          	0x3400000b
    33e4:	7072                	flw	ft0,60(sp)
    33e6:	0100                	addi	s0,sp,128
    33e8:	712e03f7          	0x712e03f7
    33ec:	0012                	c.slli	zero,0x4
    33ee:	3500                	fld	fs0,40(a0)
    33f0:	6e6e                	flw	ft8,216(sp)
    33f2:	0100                	addi	s0,sp,128
    33f4:	03f9                	addi	t2,t2,30
    33f6:	9211                	srli	a2,a2,0x24
    33f8:	3500000b          	0x3500000b
    33fc:	6464                	flw	fs1,76(s0)
    33fe:	0100                	addi	s0,sp,128
    3400:	03fa                	slli	t2,t2,0x1e
    3402:	9211                	srli	a2,a2,0x24
    3404:	3500000b          	0x3500000b
    3408:	7272                	flw	ft4,60(sp)
    340a:	0100                	addi	s0,sp,128
    340c:	850b03fb          	0x850b03fb
    3410:	3500000b          	0x3500000b
    3414:	3064                	fld	fs1,224(s0)
    3416:	0100                	addi	s0,sp,128
    3418:	03fc                	addi	a5,sp,460
    341a:	f10a                	fsw	ft2,160(sp)
    341c:	000a                	c.slli	zero,0x2
    341e:	3500                	fld	fs0,40(a0)
    3420:	3164                	fld	fs1,224(a0)
    3422:	0100                	addi	s0,sp,128
    3424:	03fc                	addi	a5,sp,460
    3426:	f10e                	fsw	ft3,160(sp)
    3428:	000a                	c.slli	zero,0x2
    342a:	3500                	fld	fs0,40(a0)
    342c:	306e                	fld	ft0,248(sp)
    342e:	0100                	addi	s0,sp,128
    3430:	03fc                	addi	a5,sp,460
    3432:	f112                	fsw	ft4,160(sp)
    3434:	000a                	c.slli	zero,0x2
    3436:	3500                	fld	fs0,40(a0)
    3438:	316e                	fld	ft2,248(sp)
    343a:	0100                	addi	s0,sp,128
    343c:	03fc                	addi	a5,sp,460
    343e:	f116                	fsw	ft5,160(sp)
    3440:	000a                	c.slli	zero,0x2
    3442:	3500                	fld	fs0,40(a0)
    3444:	326e                	fld	ft4,248(sp)
    3446:	0100                	addi	s0,sp,128
    3448:	03fc                	addi	a5,sp,460
    344a:	f11a                	fsw	ft6,160(sp)
    344c:	000a                	c.slli	zero,0x2
    344e:	3500                	fld	fs0,40(a0)
    3450:	3071                	jal	2cdc <__clz_tab+0x420>
    3452:	0100                	addi	s0,sp,128
    3454:	03fd                	addi	t2,t2,31
    3456:	f10a                	fsw	ft2,160(sp)
    3458:	000a                	c.slli	zero,0x2
    345a:	3500                	fld	fs0,40(a0)
    345c:	3171                	jal	30e8 <impure_data+0x138>
    345e:	0100                	addi	s0,sp,128
    3460:	03fd                	addi	t2,t2,31
    3462:	f10e                	fsw	ft3,160(sp)
    3464:	000a                	c.slli	zero,0x2
    3466:	3500                	fld	fs0,40(a0)
    3468:	0062                	c.slli	zero,0x18
    346a:	fe01                	bnez	a2,3382 <impure_data+0x3d2>
    346c:	0af10a03          	lb	s4,175(sp) # 10af <main+0x43f>
    3470:	0000                	unimp
    3472:	6235                	lui	tp,0xd
    3474:	006d                	c.nop	27
    3476:	fe01                	bnez	a2,338e <impure_data+0x3de>
    3478:	0af10d03          	lb	s10,175(sp)
    347c:	0000                	unimp
    347e:	7735                	lui	a4,0xfffed
    3480:	c7010077          	0xc7010077
    3484:	1104                	addi	s1,sp,160
    3486:	0b92                	slli	s7,s7,0x4
    3488:	0000                	unimp
    348a:	ef36                	fsw	fa3,156(sp)
    348c:	3700000f          	0x3700000f
    3490:	0698                	addi	a4,sp,832
    3492:	0000                	unimp
    3494:	2e01                	jal	37a4 <Arr_2_Glob+0xc8>
    3496:	0404                	addi	s1,sp,512
    3498:	0af1                	addi	s5,s5,28
    349a:	0000                	unimp
    349c:	5f35                	li	t5,-19
    349e:	615f 0100 042e      	0x42e0100615f
    34a4:	f104                	fsw	fs1,32(a0)
    34a6:	000a                	c.slli	zero,0x2
    34a8:	0000                	unimp
    34aa:	5036                	0x5036
    34ac:	0010                	0x10
    34ae:	3700                	fld	fs0,40(a4)
    34b0:	0080                	addi	s0,sp,64
    34b2:	0000                	unimp
    34b4:	3a01                	jal	2dc4 <__clz_tab+0x508>
    34b6:	0404                	addi	s1,sp,512
    34b8:	0af1                	addi	s5,s5,28
    34ba:	0000                	unimp
    34bc:	00007b37          	lui	s6,0x7
    34c0:	0100                	addi	s0,sp,128
    34c2:	043a                	slli	s0,s0,0xe
    34c4:	f104                	fsw	fs1,32(a0)
    34c6:	000a                	c.slli	zero,0x2
    34c8:	3700                	fld	fs0,40(a4)
    34ca:	061f 0000 3a01      	0x3a010000061f
    34d0:	0404                	addi	s1,sp,512
    34d2:	0af1                	addi	s5,s5,28
    34d4:	0000                	unimp
    34d6:	00061a37          	lui	s4,0x61
    34da:	0100                	addi	s0,sp,128
    34dc:	043a                	slli	s0,s0,0xe
    34de:	f104                	fsw	fs1,32(a0)
    34e0:	000a                	c.slli	zero,0x2
    34e2:	3700                	fld	fs0,40(a4)
    34e4:	0716                	slli	a4,a4,0x5
    34e6:	0000                	unimp
    34e8:	3a01                	jal	2df8 <__clz_tab+0x53c>
    34ea:	0404                	addi	s1,sp,512
    34ec:	0af1                	addi	s5,s5,28
    34ee:	0000                	unimp
    34f0:	00071137          	lui	sp,0x71
    34f4:	0100                	addi	s0,sp,128
    34f6:	043a                	slli	s0,s0,0xe
    34f8:	f104                	fsw	fs1,32(a0)
    34fa:	000a                	c.slli	zero,0x2
    34fc:	3500                	fld	fs0,40(a0)
    34fe:	5f5f 006d 3a01      	0x3a01006d5f5f
    3504:	0404                	addi	s1,sp,512
    3506:	0af1                	addi	s5,s5,28
    3508:	0000                	unimp
    350a:	3600                	fld	fs0,40(a2)
    350c:	1070                	addi	a2,sp,44
    350e:	0000                	unimp
    3510:	00069837          	lui	a6,0x69
    3514:	0100                	addi	s0,sp,128
    3516:	0446                	slli	s0,s0,0x11
    3518:	f104                	fsw	fs1,32(a0)
    351a:	000a                	c.slli	zero,0x2
    351c:	3500                	fld	fs0,40(a0)
    351e:	5f5f 0061 4601      	0x460100615f5f
    3524:	0404                	addi	s1,sp,512
    3526:	0af1                	addi	s5,s5,28
    3528:	0000                	unimp
    352a:	3600                	fld	fs0,40(a2)
    352c:	10d1                	addi	ra,ra,-12
    352e:	0000                	unimp
    3530:	00008037          	lui	zero,0x8
    3534:	0100                	addi	s0,sp,128
    3536:	045f f108 000a      	0xaf108045f
    353c:	3700                	fld	fs0,40(a4)
    353e:	0000007b          	0x7b
    3542:	5f01                	li	t5,-32
    3544:	0804                	addi	s1,sp,16
    3546:	0af1                	addi	s5,s5,28
    3548:	0000                	unimp
    354a:	00061f37          	lui	t5,0x61
    354e:	0100                	addi	s0,sp,128
    3550:	045f f108 000a      	0xaf108045f
    3556:	3700                	fld	fs0,40(a4)
    3558:	061a                	slli	a2,a2,0x6
    355a:	0000                	unimp
    355c:	5f01                	li	t5,-32
    355e:	0804                	addi	s1,sp,16
    3560:	0af1                	addi	s5,s5,28
    3562:	0000                	unimp
    3564:	00071637          	lui	a2,0x71
    3568:	0100                	addi	s0,sp,128
    356a:	045f f108 000a      	0xaf108045f
    3570:	3700                	fld	fs0,40(a4)
    3572:	0711                	addi	a4,a4,4
    3574:	0000                	unimp
    3576:	5f01                	li	t5,-32
    3578:	0804                	addi	s1,sp,16
    357a:	0af1                	addi	s5,s5,28
    357c:	0000                	unimp
    357e:	5f35                	li	t5,-19
    3580:	6d5f 0100 045f      	0x45f01006d5f
    3586:	f108                	fsw	fa0,32(a0)
    3588:	000a                	c.slli	zero,0x2
    358a:	0000                	unimp
    358c:	3236                	fld	ft4,360(sp)
    358e:	0011                	c.nop	4
    3590:	3700                	fld	fs0,40(a4)
    3592:	0080                	addi	s0,sp,64
    3594:	0000                	unimp
    3596:	6401                	0x6401
    3598:	0404                	addi	s1,sp,512
    359a:	0af1                	addi	s5,s5,28
    359c:	0000                	unimp
    359e:	00007b37          	lui	s6,0x7
    35a2:	0100                	addi	s0,sp,128
    35a4:	0464                	addi	s1,sp,524
    35a6:	f104                	fsw	fs1,32(a0)
    35a8:	000a                	c.slli	zero,0x2
    35aa:	3700                	fld	fs0,40(a4)
    35ac:	061f 0000 6401      	0x64010000061f
    35b2:	0404                	addi	s1,sp,512
    35b4:	0af1                	addi	s5,s5,28
    35b6:	0000                	unimp
    35b8:	00061a37          	lui	s4,0x61
    35bc:	0100                	addi	s0,sp,128
    35be:	0464                	addi	s1,sp,524
    35c0:	f104                	fsw	fs1,32(a0)
    35c2:	000a                	c.slli	zero,0x2
    35c4:	3700                	fld	fs0,40(a4)
    35c6:	0716                	slli	a4,a4,0x5
    35c8:	0000                	unimp
    35ca:	6401                	0x6401
    35cc:	0404                	addi	s1,sp,512
    35ce:	0af1                	addi	s5,s5,28
    35d0:	0000                	unimp
    35d2:	00071137          	lui	sp,0x71
    35d6:	0100                	addi	s0,sp,128
    35d8:	0464                	addi	s1,sp,524
    35da:	f104                	fsw	fs1,32(a0)
    35dc:	000a                	c.slli	zero,0x2
    35de:	3500                	fld	fs0,40(a0)
    35e0:	5f5f 006d 6401      	0x6401006d5f5f
    35e6:	0404                	addi	s1,sp,512
    35e8:	0af1                	addi	s5,s5,28
    35ea:	0000                	unimp
    35ec:	3600                	fld	fs0,40(a2)
    35ee:	1152                	slli	sp,sp,0x34
    35f0:	0000                	unimp
    35f2:	00069837          	lui	a6,0x69
    35f6:	0100                	addi	s0,sp,128
    35f8:	f1040487          	0xf1040487
    35fc:	000a                	c.slli	zero,0x2
    35fe:	3500                	fld	fs0,40(a0)
    3600:	5f5f 0061 8701      	0x870100615f5f
    3606:	0404                	addi	s1,sp,512
    3608:	0af1                	addi	s5,s5,28
    360a:	0000                	unimp
    360c:	3600                	fld	fs0,40(a2)
    360e:	1165                	addi	sp,sp,-7
    3610:	0000                	unimp
    3612:	5f35                	li	t5,-19
    3614:	785f 0100 0495      	0x4950100785f
    361a:	f105                	bnez	a0,353a <__global_locale+0x162>
    361c:	000a                	c.slli	zero,0x2
    361e:	0000                	unimp
    3620:	3538                	fld	fa4,104(a0)
    3622:	316d                	jal	32cc <impure_data+0x31c>
    3624:	0100                	addi	s0,sp,128
    3626:	04a5                	addi	s1,s1,9
    3628:	000af10f          	0xaf10f
    362c:	3500                	fld	fs0,40(a0)
    362e:	306d                	jal	2ed8 <__clz_tab+0x61c>
    3630:	0100                	addi	s0,sp,128
    3632:	04a5                	addi	s1,s1,9
    3634:	000af113          	andi	sp,s5,0
    3638:	3600                	fld	fs0,40(a2)
    363a:	11df 0000 8037      	0x8037000011df
    3640:	0000                	unimp
    3642:	0100                	addi	s0,sp,128
    3644:	04b0                	addi	a2,sp,584
    3646:	f108                	fsw	fa0,32(a0)
    3648:	000a                	c.slli	zero,0x2
    364a:	3700                	fld	fs0,40(a4)
    364c:	0000007b          	0x7b
    3650:	b001                	j	2e50 <__clz_tab+0x594>
    3652:	0804                	addi	s1,sp,16
    3654:	0af1                	addi	s5,s5,28
    3656:	0000                	unimp
    3658:	00061f37          	lui	t5,0x61
    365c:	0100                	addi	s0,sp,128
    365e:	04b0                	addi	a2,sp,584
    3660:	f108                	fsw	fa0,32(a0)
    3662:	000a                	c.slli	zero,0x2
    3664:	3700                	fld	fs0,40(a4)
    3666:	061a                	slli	a2,a2,0x6
    3668:	0000                	unimp
    366a:	b001                	j	2e6a <__clz_tab+0x5ae>
    366c:	0804                	addi	s1,sp,16
    366e:	0af1                	addi	s5,s5,28
    3670:	0000                	unimp
    3672:	00071637          	lui	a2,0x71
    3676:	0100                	addi	s0,sp,128
    3678:	04b0                	addi	a2,sp,584
    367a:	f108                	fsw	fa0,32(a0)
    367c:	000a                	c.slli	zero,0x2
    367e:	3700                	fld	fs0,40(a4)
    3680:	0711                	addi	a4,a4,4
    3682:	0000                	unimp
    3684:	b001                	j	2e84 <__clz_tab+0x5c8>
    3686:	0804                	addi	s1,sp,16
    3688:	0af1                	addi	s5,s5,28
    368a:	0000                	unimp
    368c:	5f35                	li	t5,-19
    368e:	6d5f 0100 04b0      	0x4b001006d5f
    3694:	f108                	fsw	fa0,32(a0)
    3696:	000a                	c.slli	zero,0x2
    3698:	0000                	unimp
    369a:	4d36                	lw	s10,76(sp)
    369c:	0012                	c.slli	zero,0x4
    369e:	3700                	fld	fs0,40(a4)
    36a0:	05b2                	slli	a1,a1,0xc
    36a2:	0000                	unimp
    36a4:	b101                	j	32a4 <impure_data+0x2f4>
    36a6:	0804                	addi	s1,sp,16
    36a8:	0af1                	addi	s5,s5,28
    36aa:	0000                	unimp
    36ac:	0005b737          	lui	a4,0x5b
    36b0:	0100                	addi	s0,sp,128
    36b2:	04b1                	addi	s1,s1,12
    36b4:	f108                	fsw	fa0,32(a0)
    36b6:	000a                	c.slli	zero,0x2
    36b8:	3700                	fld	fs0,40(a4)
    36ba:	05bc                	addi	a5,sp,712
    36bc:	0000                	unimp
    36be:	b101                	j	32be <impure_data+0x30e>
    36c0:	0804                	addi	s1,sp,16
    36c2:	0af1                	addi	s5,s5,28
    36c4:	0000                	unimp
    36c6:	0005c137          	lui	sp,0x5c
    36ca:	0100                	addi	s0,sp,128
    36cc:	04b1                	addi	s1,s1,12
    36ce:	f108                	fsw	fa0,32(a0)
    36d0:	000a                	c.slli	zero,0x2
    36d2:	3700                	fld	fs0,40(a4)
    36d4:	00000407          	0x407
    36d8:	b101                	j	32d8 <impure_data+0x328>
    36da:	0804                	addi	s1,sp,16
    36dc:	0af1                	addi	s5,s5,28
    36de:	0000                	unimp
    36e0:	0004ca37          	lui	s4,0x4c
    36e4:	0100                	addi	s0,sp,128
    36e6:	04b1                	addi	s1,s1,12
    36e8:	f108                	fsw	fa0,32(a0)
    36ea:	000a                	c.slli	zero,0x2
    36ec:	3700                	fld	fs0,40(a4)
    36ee:	000003e7          	jalr	t2,zero # 0 <buf.1936>
    36f2:	b101                	j	32f2 <impure_data+0x342>
    36f4:	0804                	addi	s1,sp,16
    36f6:	0af1                	addi	s5,s5,28
    36f8:	0000                	unimp
    36fa:	0004c537          	lui	a0,0x4c
    36fe:	0100                	addi	s0,sp,128
    3700:	04b1                	addi	s1,s1,12
    3702:	f108                	fsw	fa0,32(a0)
    3704:	000a                	c.slli	zero,0x2
    3706:	0000                	unimp
    3708:	6036                	flw	ft0,76(sp)
    370a:	0012                	c.slli	zero,0x4
    370c:	3500                	fld	fs0,40(a0)
    370e:	5f5f 0078 b601      	0xb60100785f5f
    3714:	0504                	addi	s1,sp,640
    3716:	0af1                	addi	s5,s5,28
    3718:	0000                	unimp
    371a:	3800                	fld	fs0,48(s0)
    371c:	5f35                	li	t5,-19
    371e:	785f 0100 04be      	0x4be0100785f
    3724:	f105                	bnez	a0,3644 <Arr_1_Glob+0x30>
    3726:	000a                	c.slli	zero,0x2
    3728:	0000                	unimp
    372a:	0000                	unimp
    372c:	0b09040f          	0xb09040f
    3730:	0000                	unimp
    3732:	3b00                	fld	fs0,48(a4)
    3734:	0400000b          	0x400000b
    3738:	a300                	fsd	fs0,0(a4)
    373a:	0008                	0x8
    373c:	0400                	addi	s0,sp,512
    373e:	bb01                	j	344e <__global_locale+0x76>
    3740:	0c000007          	0xc000007
    3744:	066c                	addi	a1,sp,780
    3746:	0000                	unimp
    3748:	00a9                	addi	ra,ra,10
    374a:	0000                	unimp
    374c:	1c46                	slli	s8,s8,0x31
    374e:	0000                	unimp
    3750:	0402                	c.slli64	s0
    3752:	6905                	lui	s2,0x1
    3754:	746e                	flw	fs0,248(sp)
    3756:	0300                	addi	s0,sp,384
    3758:	0704                	addi	s1,sp,896
    375a:	0368                	addi	a0,sp,396
    375c:	0000                	unimp
    375e:	78050803          	lb	a6,1920(a0) # 4c780 <__C_STACK_TOP__+0x3c780>
    3762:	0002                	c.slli64	zero
    3764:	0300                	addi	s0,sp,384
    3766:	0410                	addi	a2,sp,512
    3768:	009d                	addi	ra,ra,7
    376a:	0000                	unimp
    376c:	43060103          	lb	sp,1072(a2) # 71430 <__C_STACK_TOP__+0x61430>
    3770:	0006                	c.slli	zero,0x1
    3772:	0300                	addi	s0,sp,384
    3774:	0801                	addi	a6,a6,0
    3776:	0641                	addi	a2,a2,16
    3778:	0000                	unimp
    377a:	00050203          	lb	tp,0(a0)
    377e:	0000                	unimp
    3780:	0300                	addi	s0,sp,384
    3782:	0702                	c.slli64	a4
    3784:	037e                	slli	t1,t1,0x1f
    3786:	0000                	unimp
    3788:	7d050403          	lb	s0,2000(a0)
    378c:	0002                	c.slli64	zero
    378e:	0300                	addi	s0,sp,384
    3790:	0704                	addi	s1,sp,896
    3792:	00000363          	beqz	zero,3798 <Arr_2_Glob+0xbc>
    3796:	5e070803          	lb	a6,1504(a4) # 5b5e0 <__C_STACK_TOP__+0x4b5e0>
    379a:	04000003          	lb	zero,64(zero) # 40 <buflen.1937>
    379e:	04ee                	slli	s1,s1,0x1b
    37a0:	0000                	unimp
    37a2:	0c01                	addi	s8,s8,0
    37a4:	1d0d                	addi	s10,s10,-29
    37a6:	0000                	unimp
    37a8:	0400                	addi	s0,sp,512
    37aa:	04be                	slli	s1,s1,0xf
    37ac:	0000                	unimp
    37ae:	2c02                	fld	fs8,0(sp)
    37b0:	550e                	lw	a0,224(sp)
    37b2:	0000                	unimp
    37b4:	0400                	addi	s0,sp,512
    37b6:	05d4                	addi	a3,sp,708
    37b8:	0000                	unimp
    37ba:	7202                	flw	ft4,32(sp)
    37bc:	550e                	lw	a0,224(sp)
    37be:	0000                	unimp
    37c0:	0400                	addi	s0,sp,512
    37c2:	000006d7          	0x6d7
    37c6:	9102                	jalr	sp
    37c8:	00001d17          	auipc	s10,0x1
    37cc:	0500                	addi	s0,sp,640
    37ce:	03da                	slli	t2,t2,0x16
    37d0:	0000                	unimp
    37d2:	17016503          	0x17016503
    37d6:	0024                	addi	s1,sp,8
    37d8:	0000                	unimp
    37da:	0406                	slli	s0,s0,0x1
    37dc:	a602                	fsd	ft0,264(sp)
    37de:	0000c903          	lbu	s2,0(ra)
    37e2:	0700                	addi	s0,sp,896
    37e4:	03c5                	addi	t2,t2,17
    37e6:	0000                	unimp
    37e8:	a802                	fsd	ft0,16(sp)
    37ea:	9a0c                	0x9a0c
    37ec:	0000                	unimp
    37ee:	0700                	addi	s0,sp,896
    37f0:	0330                	addi	a2,sp,392
    37f2:	0000                	unimp
    37f4:	a902                	fsd	ft0,144(sp)
    37f6:	0000c913          	xori	s2,ra,0
    37fa:	0000                	unimp
    37fc:	4008                	lw	a0,0(s0)
    37fe:	0000                	unimp
    3800:	d900                	sw	s0,48(a0)
    3802:	0000                	unimp
    3804:	0900                	addi	s0,sp,144
    3806:	0024                	addi	s1,sp,8
    3808:	0000                	unimp
    380a:	080a0003          	lb	zero,128(s4) # 4c080 <__C_STACK_TOP__+0x3c080>
    380e:	a302                	fsd	ft0,384(sp)
    3810:	fd09                	bnez	a0,372a <Arr_2_Glob+0x4e>
    3812:	0000                	unimp
    3814:	0b00                	addi	s0,sp,400
    3816:	0435                	addi	s0,s0,13
    3818:	0000                	unimp
    381a:	a502                	fsd	ft0,136(sp)
    381c:	00001d07          	0x1d07
    3820:	0000                	unimp
    3822:	0005c60b          	0x5c60b
    3826:	0200                	addi	s0,sp,256
    3828:	05aa                	slli	a1,a1,0xa
    382a:	000000a7          	0xa7
    382e:	0004                	0x4
    3830:	e304                	fsw	fs1,0(a4)
    3832:	0004                	0x4
    3834:	0200                	addi	s0,sp,256
    3836:	00d903ab          	0xd903ab
    383a:	0000                	unimp
    383c:	3d04                	fld	fs1,56(a0)
    383e:	0005                	c.nop	1
    3840:	0200                	addi	s0,sp,256
    3842:	006a1baf          	0x6a1baf
    3846:	0000                	unimp
    3848:	040c                	addi	a1,sp,512
    384a:	5404                	lw	s1,40(s0)
    384c:	0006                	c.slli	zero,0x1
    384e:	0400                	addi	s0,sp,512
    3850:	1916                	slli	s2,s2,0x25
    3852:	005c                	addi	a5,sp,4
    3854:	0000                	unimp
    3856:	6e0d                	lui	t3,0x3
    3858:	0004                	0x4
    385a:	1800                	addi	s0,sp,48
    385c:	2f04                	fld	fs1,24(a4)
    385e:	7d08                	flw	fa0,56(a0)
    3860:	0001                	nop
    3862:	0b00                	addi	s0,sp,400
    3864:	0799                	addi	a5,a5,6
    3866:	0000                	unimp
    3868:	3104                	fld	fs1,32(a0)
    386a:	00017d13          	andi	s10,sp,0
    386e:	0000                	unimp
    3870:	5f0e                	lw	t5,224(sp)
    3872:	3204006b          	0x3204006b
    3876:	00001d07          	0x1d07
    387a:	0400                	addi	s0,sp,512
    387c:	0005a30b          	0x5a30b
    3880:	0400                	addi	s0,sp,512
    3882:	0b32                	slli	s6,s6,0xc
    3884:	001d                	c.nop	7
    3886:	0000                	unimp
    3888:	0b08                	addi	a0,sp,400
    388a:	02d4                	addi	a3,sp,324
    388c:	0000                	unimp
    388e:	3204                	fld	fs1,32(a2)
    3890:	1d14                	addi	a3,sp,688
    3892:	0000                	unimp
    3894:	0c00                	addi	s0,sp,528
    3896:	00025a0b          	0x25a0b
    389a:	0400                	addi	s0,sp,512
    389c:	1b32                	slli	s6,s6,0x2c
    389e:	001d                	c.nop	7
    38a0:	0000                	unimp
    38a2:	0e10                	addi	a2,sp,784
    38a4:	785f 0400 0b33      	0xb330400785f
    38aa:	00000183          	lb	gp,0(zero) # 0 <buf.1936>
    38ae:	0014                	0x14
    38b0:	0123040f          	0x123040f
    38b4:	0000                	unimp
    38b6:	1708                	addi	a0,sp,928
    38b8:	0001                	nop
    38ba:	9300                	0x9300
    38bc:	0001                	nop
    38be:	0900                	addi	s0,sp,144
    38c0:	0024                	addi	s1,sp,8
    38c2:	0000                	unimp
    38c4:	0000                	unimp
    38c6:	130d                	addi	t1,t1,-29
    38c8:	24000003          	lb	zero,576(zero) # 240 <_start+0x40>
    38cc:	3704                	fld	fs1,40(a4)
    38ce:	1608                	addi	a0,sp,800
    38d0:	0002                	c.slli64	zero
    38d2:	0b00                	addi	s0,sp,400
    38d4:	0131                	addi	sp,sp,12
    38d6:	0000                	unimp
    38d8:	3904                	fld	fs1,48(a0)
    38da:	1d09                	addi	s10,s10,-30
    38dc:	0000                	unimp
    38de:	0000                	unimp
    38e0:	0007350b          	0x7350b
    38e4:	0400                	addi	s0,sp,512
    38e6:	093a                	slli	s2,s2,0xe
    38e8:	001d                	c.nop	7
    38ea:	0000                	unimp
    38ec:	0b04                	addi	s1,sp,400
    38ee:	014d                	addi	sp,sp,19
    38f0:	0000                	unimp
    38f2:	3b04                	fld	fs1,48(a4)
    38f4:	1d09                	addi	s10,s10,-30
    38f6:	0000                	unimp
    38f8:	0800                	addi	s0,sp,16
    38fa:	00078a0b          	0x78a0b
    38fe:	0400                	addi	s0,sp,512
    3900:	093c                	addi	a5,sp,152
    3902:	001d                	c.nop	7
    3904:	0000                	unimp
    3906:	0b0c                	addi	a1,sp,400
    3908:	0498                	addi	a4,sp,576
    390a:	0000                	unimp
    390c:	3d04                	fld	fs1,56(a0)
    390e:	1d09                	addi	s10,s10,-30
    3910:	0000                	unimp
    3912:	1000                	addi	s0,sp,32
    3914:	00042b0b          	0x42b0b
    3918:	0400                	addi	s0,sp,512
    391a:	093e                	slli	s2,s2,0xf
    391c:	001d                	c.nop	7
    391e:	0000                	unimp
    3920:	0b14                	addi	a3,sp,400
    3922:	06c0                	addi	s0,sp,836
    3924:	0000                	unimp
    3926:	3f04                	fld	fs1,56(a4)
    3928:	1d09                	addi	s10,s10,-30
    392a:	0000                	unimp
    392c:	1800                	addi	s0,sp,48
    392e:	0007710b          	0x7710b
    3932:	0400                	addi	s0,sp,512
    3934:	0940                	addi	s0,sp,148
    3936:	001d                	c.nop	7
    3938:	0000                	unimp
    393a:	0b1c                	addi	a5,sp,400
    393c:	0000071b          	0x71b
    3940:	4104                	lw	s1,0(a0)
    3942:	1d09                	addi	s10,s10,-30
    3944:	0000                	unimp
    3946:	2000                	fld	fs0,0(s0)
    3948:	1000                	addi	s0,sp,32
    394a:	016a                	slli	sp,sp,0x1a
    394c:	0000                	unimp
    394e:	0108                	addi	a0,sp,128
    3950:	4a04                	lw	s1,16(a2)
    3952:	5b08                	lw	a0,48(a4)
    3954:	0002                	c.slli64	zero
    3956:	0b00                	addi	s0,sp,400
    3958:	000002c7          	fmsub.s	ft5,ft0,ft0,ft0,rne
    395c:	4b04                	lw	s1,16(a4)
    395e:	5b0a                	lw	s6,160(sp)
    3960:	0002                	c.slli64	zero
    3962:	0000                	unimp
    3964:	0005190b          	0x5190b
    3968:	0400                	addi	s0,sp,512
    396a:	094c                	addi	a1,sp,148
    396c:	0000025b          	0x25b
    3970:	1180                	addi	s0,sp,224
    3972:	0638                	addi	a4,sp,776
    3974:	0000                	unimp
    3976:	4e04                	lw	s1,24(a2)
    3978:	170a                	slli	a4,a4,0x22
    397a:	0001                	nop
    397c:	0000                	unimp
    397e:	1101                	addi	sp,sp,-32
    3980:	0252                	slli	tp,tp,0x14
    3982:	0000                	unimp
    3984:	5104                	lw	s1,32(a0)
    3986:	170a                	slli	a4,a4,0x22
    3988:	0001                	nop
    398a:	0400                	addi	s0,sp,512
    398c:	0001                	nop
    398e:	1508                	addi	a0,sp,672
    3990:	0001                	nop
    3992:	6b00                	flw	fs0,16(a4)
    3994:	0002                	c.slli64	zero
    3996:	0900                	addi	s0,sp,144
    3998:	0024                	addi	s1,sp,8
    399a:	0000                	unimp
    399c:	001f a110 0004      	0x4a110001f
    39a2:	9000                	0x9000
    39a4:	0401                	addi	s0,s0,0
    39a6:	085d                	addi	a6,a6,23
    39a8:	02ae                	slli	t0,t0,0xb
    39aa:	0000                	unimp
    39ac:	0007990b          	0x7990b
    39b0:	0400                	addi	s0,sp,512
    39b2:	125e                	slli	tp,tp,0x37
    39b4:	02ae                	slli	t0,t0,0xb
    39b6:	0000                	unimp
    39b8:	0b00                	addi	s0,sp,400
    39ba:	058c                	addi	a1,sp,704
    39bc:	0000                	unimp
    39be:	5f04                	lw	s1,56(a4)
    39c0:	1d06                	slli	s10,s10,0x21
    39c2:	0000                	unimp
    39c4:	0400                	addi	s0,sp,512
    39c6:	0002cf0b          	0x2cf0b
    39ca:	0400                	addi	s0,sp,512
    39cc:	0961                	addi	s2,s2,24
    39ce:	02b4                	addi	a3,sp,328
    39d0:	0000                	unimp
    39d2:	0b08                	addi	a0,sp,400
    39d4:	016a                	slli	sp,sp,0x1a
    39d6:	0000                	unimp
    39d8:	6204                	flw	fs1,0(a2)
    39da:	161e                	slli	a2,a2,0x27
    39dc:	0002                	c.slli64	zero
    39de:	8800                	0x8800
    39e0:	0f00                	addi	s0,sp,912
    39e2:	6b04                	flw	fs1,16(a4)
    39e4:	0002                	c.slli64	zero
    39e6:	0800                	addi	s0,sp,16
    39e8:	02c4                	addi	s1,sp,324
    39ea:	0000                	unimp
    39ec:	02c4                	addi	s1,sp,324
    39ee:	0000                	unimp
    39f0:	2409                	jal	3bf2 <Arr_2_Glob+0x516>
    39f2:	0000                	unimp
    39f4:	1f00                	addi	s0,sp,944
    39f6:	0f00                	addi	s0,sp,912
    39f8:	ca04                	sw	s1,16(a2)
    39fa:	0002                	c.slli64	zero
    39fc:	1200                	addi	s0,sp,288
    39fe:	830d                	srli	a4,a4,0x3
    3a00:	08000007          	0x8000007
    3a04:	7504                	flw	fs1,40(a0)
    3a06:	f308                	fsw	fa0,32(a4)
    3a08:	0002                	c.slli64	zero
    3a0a:	0b00                	addi	s0,sp,400
    3a0c:	00000147          	fmsub.s	ft2,ft0,ft0,ft0,rne
    3a10:	7604                	flw	fs1,40(a2)
    3a12:	f311                	bnez	a4,3916 <Arr_2_Glob+0x23a>
    3a14:	0002                	c.slli64	zero
    3a16:	0000                	unimp
    3a18:	0005e50b          	0x5e50b
    3a1c:	0400                	addi	s0,sp,512
    3a1e:	001d0677          	0x1d0677
    3a22:	0000                	unimp
    3a24:	0004                	0x4
    3a26:	0040040f          	0x40040f
    3a2a:	0000                	unimp
    3a2c:	680d                	lui	a6,0x3
    3a2e:	0005                	c.nop	1
    3a30:	6800                	flw	fs0,16(s0)
    3a32:	b504                	fsd	fs1,40(a0)
    3a34:	3c08                	fld	fa0,56(s0)
    3a36:	0004                	0x4
    3a38:	0e00                	addi	s0,sp,784
    3a3a:	705f 0400 12b6      	0x12b60400705f
    3a40:	000002f3          	0x2f3
    3a44:	0e00                	addi	s0,sp,784
    3a46:	725f 0400 07b7      	0x7b70400725f
    3a4c:	001d                	c.nop	7
    3a4e:	0000                	unimp
    3a50:	0e04                	addi	s1,sp,784
    3a52:	775f 0400 07b8      	0x7b80400775f
    3a58:	001d                	c.nop	7
    3a5a:	0000                	unimp
    3a5c:	0b08                	addi	a0,sp,400
    3a5e:	0000024b          	fnmsub.s	ft4,ft0,ft0,ft0,rne
    3a62:	b904                	fsd	fs1,48(a0)
    3a64:	4709                	li	a4,2
    3a66:	0000                	unimp
    3a68:	0c00                	addi	s0,sp,528
    3a6a:	00033f0b          	0x33f0b
    3a6e:	0400                	addi	s0,sp,512
    3a70:	09ba                	slli	s3,s3,0xe
    3a72:	00000047          	fmsub.s	ft0,ft0,ft0,ft0,rne
    3a76:	0e0e                	slli	t3,t3,0x3
    3a78:	625f 0066 bb04      	0xbb040066625f
    3a7e:	cb11                	beqz	a4,3a92 <Arr_2_Glob+0x3b6>
    3a80:	0002                	c.slli64	zero
    3a82:	1000                	addi	s0,sp,32
    3a84:	0000850b          	0x850b
    3a88:	0400                	addi	s0,sp,512
    3a8a:	07bc                	addi	a5,sp,968
    3a8c:	001d                	c.nop	7
    3a8e:	0000                	unimp
    3a90:	0b18                	addi	a4,sp,400
    3a92:	0178                	addi	a4,sp,140
    3a94:	0000                	unimp
    3a96:	c304                	sw	s1,0(a4)
    3a98:	150a                	slli	a0,a0,0x22
    3a9a:	0001                	nop
    3a9c:	1c00                	addi	s0,sp,560
    3a9e:	0005000b          	0x5000b
    3aa2:	0400                	addi	s0,sp,512
    3aa4:	1dc5                	addi	s11,s11,-15
    3aa6:	05c0                	addi	s0,sp,708
    3aa8:	0000                	unimp
    3aaa:	0b20                	addi	s0,sp,408
    3aac:	0424                	addi	s1,sp,520
    3aae:	0000                	unimp
    3ab0:	c704                	sw	s1,8(a4)
    3ab2:	ef1d                	bnez	a4,3af0 <Arr_2_Glob+0x414>
    3ab4:	0005                	c.nop	1
    3ab6:	2400                	fld	fs0,8(s0)
    3ab8:	0005ce0b          	0x5ce0b
    3abc:	0400                	addi	s0,sp,512
    3abe:	0dca                	slli	s11,s11,0x12
    3ac0:	00000613          	li	a2,0
    3ac4:	0b28                	addi	a0,sp,408
    3ac6:	013a                	slli	sp,sp,0xe
    3ac8:	0000                	unimp
    3aca:	cb04                	sw	s1,16(a4)
    3acc:	2d09                	jal	40de <_gp+0x37e>
    3ace:	0006                	c.slli	zero,0x1
    3ad0:	2c00                	fld	fs0,24(s0)
    3ad2:	5f0e                	lw	t5,224(sp)
    3ad4:	6275                	lui	tp,0x1d
    3ad6:	0400                	addi	s0,sp,512
    3ad8:	11ce                	slli	gp,gp,0x33
    3ada:	000002cb          	fnmsub.s	ft5,ft0,ft0,ft0,rne
    3ade:	0e30                	addi	a2,sp,792
    3ae0:	755f 0070 cf04      	0xcf040070755f
    3ae6:	f312                	fsw	ft4,164(sp)
    3ae8:	0002                	c.slli64	zero
    3aea:	3800                	fld	fs0,48(s0)
    3aec:	5f0e                	lw	t5,224(sp)
    3aee:	7275                	lui	tp,0xffffd
    3af0:	0400                	addi	s0,sp,512
    3af2:	07d0                	addi	a2,sp,964
    3af4:	001d                	c.nop	7
    3af6:	0000                	unimp
    3af8:	0b3c                	addi	a5,sp,408
    3afa:	0141                	addi	sp,sp,16
    3afc:	0000                	unimp
    3afe:	d304                	sw	s1,32(a4)
    3b00:	3311                	jal	3804 <Arr_2_Glob+0x128>
    3b02:	0006                	c.slli	zero,0x1
    3b04:	4000                	lw	s0,0(s0)
    3b06:	0007030b          	0x7030b
    3b0a:	0400                	addi	s0,sp,512
    3b0c:	11d4                	addi	a3,sp,228
    3b0e:	00000643          	fmadd.s	fa2,ft0,ft0,ft0,rne
    3b12:	6c5f0e43          	0x6c5f0e43
    3b16:	0062                	c.slli	zero,0x18
    3b18:	d704                	sw	s1,40(a4)
    3b1a:	cb11                	beqz	a4,3b2e <Arr_2_Glob+0x452>
    3b1c:	0002                	c.slli64	zero
    3b1e:	4400                	lw	s0,8(s0)
    3b20:	0005dc0b          	0x5dc0b
    3b24:	0400                	addi	s0,sp,512
    3b26:	07da                	slli	a5,a5,0x16
    3b28:	001d                	c.nop	7
    3b2a:	0000                	unimp
    3b2c:	0b4c                	addi	a1,sp,404
    3b2e:	0466                	slli	s0,s0,0x19
    3b30:	0000                	unimp
    3b32:	db04                	sw	s1,48(a4)
    3b34:	760a                	flw	fa2,160(sp)
    3b36:	0000                	unimp
    3b38:	5000                	lw	s0,32(s0)
    3b3a:	0000550b          	0x550b
    3b3e:	0400                	addi	s0,sp,512
    3b40:	12de                	slli	t0,t0,0x37
    3b42:	045a                	slli	s0,s0,0x16
    3b44:	0000                	unimp
    3b46:	0b54                	addi	a3,sp,404
    3b48:	03e1                	addi	t2,t2,24
    3b4a:	0000                	unimp
    3b4c:	e204                	fsw	fs1,0(a2)
    3b4e:	090c                	addi	a1,sp,144
    3b50:	0001                	nop
    3b52:	5800                	lw	s0,48(s0)
    3b54:	0003270b          	0x3270b
    3b58:	0400                	addi	s0,sp,512
    3b5a:	0ee4                	addi	s1,sp,860
    3b5c:	00fd                	addi	ra,ra,31
    3b5e:	0000                	unimp
    3b60:	0b5c                	addi	a5,sp,404
    3b62:	0546                	slli	a0,a0,0x11
    3b64:	0000                	unimp
    3b66:	e504                	fsw	fs1,8(a0)
    3b68:	1d09                	addi	s10,s10,-30
    3b6a:	0000                	unimp
    3b6c:	6400                	flw	fs0,8(s0)
    3b6e:	1300                	addi	s0,sp,416
    3b70:	008e                	slli	ra,ra,0x3
    3b72:	0000                	unimp
    3b74:	045a                	slli	s0,s0,0x16
    3b76:	0000                	unimp
    3b78:	5a14                	lw	a3,48(a2)
    3b7a:	0004                	0x4
    3b7c:	1400                	addi	s0,sp,544
    3b7e:	0115                	addi	sp,sp,5
    3b80:	0000                	unimp
    3b82:	ae14                	fsd	fa3,24(a2)
    3b84:	0005                	c.nop	1
    3b86:	1400                	addi	s0,sp,544
    3b88:	001d                	c.nop	7
    3b8a:	0000                	unimp
    3b8c:	0f00                	addi	s0,sp,912
    3b8e:	6504                	flw	fs1,8(a0)
    3b90:	0004                	0x4
    3b92:	1500                	addi	s0,sp,672
    3b94:	045a                	slli	s0,s0,0x16
    3b96:	0000                	unimp
    3b98:	ab16                	fsd	ft5,400(sp)
    3b9a:	0005                	c.nop	1
    3b9c:	2800                	fld	fs0,16(s0)
    3b9e:	0404                	addi	s1,sp,512
    3ba0:	0239                	addi	tp,tp,14
    3ba2:	ae08                	fsd	fa0,24(a2)
    3ba4:	0005                	c.nop	1
    3ba6:	1700                	addi	s0,sp,928
    3ba8:	0536                	slli	a0,a0,0xd
    3baa:	0000                	unimp
    3bac:	3b04                	fld	fs1,48(a4)
    3bae:	0702                	c.slli64	a4
    3bb0:	001d                	c.nop	7
    3bb2:	0000                	unimp
    3bb4:	1700                	addi	s0,sp,928
    3bb6:	06d0                	addi	a2,sp,836
    3bb8:	0000                	unimp
    3bba:	4004                	lw	s1,0(s0)
    3bbc:	0b02                	c.slli64	s6
    3bbe:	069f 0000 1704      	0x17040000069f
    3bc4:	06b8                	addi	a4,sp,840
    3bc6:	0000                	unimp
    3bc8:	4004                	lw	s1,0(s0)
    3bca:	1402                	slli	s0,s0,0x20
    3bcc:	069f 0000 1708      	0x17080000069f
    3bd2:	02da                	slli	t0,t0,0x16
    3bd4:	0000                	unimp
    3bd6:	4004                	lw	s1,0(s0)
    3bd8:	1e02                	slli	t3,t3,0x20
    3bda:	069f 0000 170c      	0x170c0000069f
    3be0:	00000587          	0x587
    3be4:	4204                	lw	s1,0(a2)
    3be6:	0802                	c.slli64	a6
    3be8:	001d                	c.nop	7
    3bea:	0000                	unimp
    3bec:	1710                	addi	a2,sp,928
    3bee:	0024                	addi	s1,sp,8
    3bf0:	0000                	unimp
    3bf2:	4304                	lw	s1,0(a4)
    3bf4:	0802                	c.slli64	a6
    3bf6:	089f 0000 1714      	0x17140000089f
    3bfc:	02fa                	slli	t0,t0,0x1e
    3bfe:	0000                	unimp
    3c00:	4604                	lw	s1,8(a2)
    3c02:	0702                	c.slli64	a4
    3c04:	001d                	c.nop	7
    3c06:	0000                	unimp
    3c08:	1730                	addi	a2,sp,936
    3c0a:	0591                	addi	a1,a1,4
    3c0c:	0000                	unimp
    3c0e:	4704                	lw	s1,8(a4)
    3c10:	1602                	slli	a2,a2,0x20
    3c12:	08b4                	addi	a3,sp,88
    3c14:	0000                	unimp
    3c16:	1734                	addi	a3,sp,936
    3c18:	000004b3          	add	s1,zero,zero
    3c1c:	4904                	lw	s1,16(a0)
    3c1e:	0702                	c.slli64	a4
    3c20:	001d                	c.nop	7
    3c22:	0000                	unimp
    3c24:	1738                	addi	a4,sp,936
    3c26:	0599                	addi	a1,a1,6
    3c28:	0000                	unimp
    3c2a:	4b04                	lw	s1,16(a4)
    3c2c:	0a02                	c.slli64	s4
    3c2e:	08c5                	addi	a7,a7,17
    3c30:	0000                	unimp
    3c32:	173c                	addi	a5,sp,936
    3c34:	03bd                	addi	t2,t2,15
    3c36:	0000                	unimp
    3c38:	4e04                	lw	s1,24(a2)
    3c3a:	1302                	slli	t1,t1,0x20
    3c3c:	017d                	addi	sp,sp,31
    3c3e:	0000                	unimp
    3c40:	1740                	addi	s0,sp,932
    3c42:	0266                	slli	tp,tp,0x19
    3c44:	0000                	unimp
    3c46:	4f04                	lw	s1,24(a4)
    3c48:	0702                	c.slli64	a4
    3c4a:	001d                	c.nop	7
    3c4c:	0000                	unimp
    3c4e:	1744                	addi	s1,sp,932
    3c50:	076c                	addi	a1,sp,908
    3c52:	0000                	unimp
    3c54:	5004                	lw	s1,32(s0)
    3c56:	1302                	slli	t1,t1,0x20
    3c58:	017d                	addi	sp,sp,31
    3c5a:	0000                	unimp
    3c5c:	1748                	addi	a0,sp,932
    3c5e:	000004cf          	fnmadd.s	fs1,ft0,ft0,ft0,rne
    3c62:	5104                	lw	s1,32(a0)
    3c64:	1402                	slli	s0,s0,0x20
    3c66:	000008cb          	fnmsub.s	fa7,ft0,ft0,ft0,rne
    3c6a:	174c                	addi	a1,sp,932
    3c6c:	00000337          	lui	t1,0x0
    3c70:	5404                	lw	s1,40(s0)
    3c72:	0702                	c.slli64	a4
    3c74:	001d                	c.nop	7
    3c76:	0000                	unimp
    3c78:	1750                	addi	a2,sp,932
    3c7a:	00000293          	li	t0,0
    3c7e:	5504                	lw	s1,40(a0)
    3c80:	0902                	c.slli64	s2
    3c82:	05ae                	slli	a1,a1,0xb
    3c84:	0000                	unimp
    3c86:	1754                	addi	a3,sp,932
    3c88:	0000052f          	0x52f
    3c8c:	7804                	flw	fs1,48(s0)
    3c8e:	0702                	c.slli64	a4
    3c90:	087a                	slli	a6,a6,0x1e
    3c92:	0000                	unimp
    3c94:	1858                	addi	a4,sp,52
    3c96:	04a1                	addi	s1,s1,8
    3c98:	0000                	unimp
    3c9a:	7c04                	flw	fs1,56(s0)
    3c9c:	1302                	slli	t1,t1,0x20
    3c9e:	02ae                	slli	t0,t0,0xb
    3ca0:	0000                	unimp
    3ca2:	0148                	addi	a0,sp,132
    3ca4:	9b18                	0x9b18
    3ca6:	04000003          	lb	zero,64(zero) # 40 <buflen.1937>
    3caa:	027d                	addi	tp,tp,31
    3cac:	6b12                	flw	fs6,4(sp)
    3cae:	0002                	c.slli64	zero
    3cb0:	4c00                	lw	s0,24(s0)
    3cb2:	1801                	addi	a6,a6,-32
    3cb4:	06ea                	slli	a3,a3,0x1a
    3cb6:	0000                	unimp
    3cb8:	8104                	0x8104
    3cba:	0c02                	c.slli64	s8
    3cbc:	08dc                	addi	a5,sp,84
    3cbe:	0000                	unimp
    3cc0:	02dc                	addi	a5,sp,324
    3cc2:	8018                	0x8018
    3cc4:	0001                	nop
    3cc6:	0400                	addi	s0,sp,512
    3cc8:	0286                	slli	t0,t0,0x1
    3cca:	6010                	flw	fa2,0(s0)
    3ccc:	0006                	c.slli	zero,0x1
    3cce:	e000                	fsw	fs0,0(s0)
    3cd0:	1802                	slli	a6,a6,0x20
    3cd2:	0165                	addi	sp,sp,25
    3cd4:	0000                	unimp
    3cd6:	8804                	0x8804
    3cd8:	0a02                	c.slli64	s4
    3cda:	08e8                	addi	a0,sp,92
    3cdc:	0000                	unimp
    3cde:	02ec                	addi	a1,sp,332
    3ce0:	0f00                	addi	s0,sp,912
    3ce2:	b404                	fsd	fs1,40(s0)
    3ce4:	0005                	c.nop	1
    3ce6:	0300                	addi	s0,sp,384
    3ce8:	0801                	addi	a6,a6,0
    3cea:	064a                	slli	a2,a2,0x12
    3cec:	0000                	unimp
    3cee:	b415                	j	3712 <Arr_2_Glob+0x36>
    3cf0:	0005                	c.nop	1
    3cf2:	0f00                	addi	s0,sp,912
    3cf4:	3c04                	fld	fs1,56(s0)
    3cf6:	0004                	0x4
    3cf8:	1300                	addi	s0,sp,416
    3cfa:	008e                	slli	ra,ra,0x3
    3cfc:	0000                	unimp
    3cfe:	05e4                	addi	s1,sp,716
    3d00:	0000                	unimp
    3d02:	5a14                	lw	a3,48(a2)
    3d04:	0004                	0x4
    3d06:	1400                	addi	s0,sp,544
    3d08:	0115                	addi	sp,sp,5
    3d0a:	0000                	unimp
    3d0c:	e414                	fsw	fa3,8(s0)
    3d0e:	0005                	c.nop	1
    3d10:	1400                	addi	s0,sp,544
    3d12:	001d                	c.nop	7
    3d14:	0000                	unimp
    3d16:	0f00                	addi	s0,sp,912
    3d18:	bb04                	fsd	fs1,48(a4)
    3d1a:	0005                	c.nop	1
    3d1c:	1500                	addi	s0,sp,672
    3d1e:	05e4                	addi	s1,sp,716
    3d20:	0000                	unimp
    3d22:	05c6040f          	0x5c6040f
    3d26:	0000                	unimp
    3d28:	00008213          	mv	tp,ra
    3d2c:	1300                	addi	s0,sp,416
    3d2e:	0006                	c.slli	zero,0x1
    3d30:	1400                	addi	s0,sp,544
    3d32:	045a                	slli	s0,s0,0x16
    3d34:	0000                	unimp
    3d36:	1514                	addi	a3,sp,672
    3d38:	0001                	nop
    3d3a:	1400                	addi	s0,sp,544
    3d3c:	0082                	c.slli64	ra
    3d3e:	0000                	unimp
    3d40:	1d14                	addi	a3,sp,688
    3d42:	0000                	unimp
    3d44:	0000                	unimp
    3d46:	05f5040f          	0x5f5040f
    3d4a:	0000                	unimp
    3d4c:	00001d13          	slli	s10,zero,0x0
    3d50:	2d00                	fld	fs0,24(a0)
    3d52:	0006                	c.slli	zero,0x1
    3d54:	1400                	addi	s0,sp,544
    3d56:	045a                	slli	s0,s0,0x16
    3d58:	0000                	unimp
    3d5a:	1514                	addi	a3,sp,672
    3d5c:	0001                	nop
    3d5e:	0000                	unimp
    3d60:	0619040f          	0x619040f
    3d64:	0000                	unimp
    3d66:	4008                	lw	a0,0(s0)
    3d68:	0000                	unimp
    3d6a:	4300                	lw	s0,0(a4)
    3d6c:	0006                	c.slli	zero,0x1
    3d6e:	0900                	addi	s0,sp,144
    3d70:	0024                	addi	s1,sp,8
    3d72:	0000                	unimp
    3d74:	0002                	c.slli64	zero
    3d76:	4008                	lw	a0,0(s0)
    3d78:	0000                	unimp
    3d7a:	5300                	lw	s0,32(a4)
    3d7c:	0006                	c.slli	zero,0x1
    3d7e:	0900                	addi	s0,sp,144
    3d80:	0024                	addi	s1,sp,8
    3d82:	0000                	unimp
    3d84:	0000                	unimp
    3d86:	5f05                	li	t5,-31
    3d88:	0002                	c.slli64	zero
    3d8a:	0400                	addi	s0,sp,512
    3d8c:	011f f91a 0002      	0x2f91a011f
    3d92:	1900                	addi	s0,sp,176
    3d94:	06ca                	slli	a3,a3,0x12
    3d96:	0000                	unimp
    3d98:	040c                	addi	a1,sp,512
    3d9a:	99080123          	sb	a6,-1662(a6) # 2982 <__clz_tab+0xc6>
    3d9e:	0006                	c.slli	zero,0x1
    3da0:	1700                	addi	s0,sp,928
    3da2:	0799                	addi	a5,a5,6
    3da4:	0000                	unimp
    3da6:	2504                	fld	fs1,8(a0)
    3da8:	1101                	addi	sp,sp,-32
    3daa:	0699                	addi	a3,a3,6
    3dac:	0000                	unimp
    3dae:	1700                	addi	s0,sp,928
    3db0:	00000357          	0x357
    3db4:	2604                	fld	fs1,8(a2)
    3db6:	0701                	addi	a4,a4,0
    3db8:	001d                	c.nop	7
    3dba:	0000                	unimp
    3dbc:	1704                	addi	s1,sp,928
    3dbe:	054e                	slli	a0,a0,0x13
    3dc0:	0000                	unimp
    3dc2:	2704                	fld	fs1,8(a4)
    3dc4:	0b01                	addi	s6,s6,0
    3dc6:	069f 0000 0008      	0x80000069f
    3dcc:	0660040f          	0x660040f
    3dd0:	0000                	unimp
    3dd2:	0653040f          	0x653040f
    3dd6:	0000                	unimp
    3dd8:	1c19                	addi	s8,s8,-26
    3dda:	0000                	unimp
    3ddc:	0e00                	addi	s0,sp,784
    3dde:	3f04                	fld	fs1,56(a4)
    3de0:	0801                	addi	a6,a6,0
    3de2:	06de                	slli	a3,a3,0x17
    3de4:	0000                	unimp
    3de6:	00060817          	auipc	a6,0x60
    3dea:	0400                	addi	s0,sp,512
    3dec:	0140                	addi	s0,sp,132
    3dee:	de12                	sw	tp,60(sp)
    3df0:	0006                	c.slli	zero,0x1
    3df2:	0000                	unimp
    3df4:	00040117          	auipc	sp,0x40
    3df8:	0400                	addi	s0,sp,512
    3dfa:	0141                	addi	sp,sp,16
    3dfc:	de12                	sw	tp,60(sp)
    3dfe:	0006                	c.slli	zero,0x1
    3e00:	0600                	addi	s0,sp,768
    3e02:	00064f17          	auipc	t5,0x64
    3e06:	0400                	addi	s0,sp,512
    3e08:	0142                	slli	sp,sp,0x10
    3e0a:	4e12                	lw	t3,4(sp)
    3e0c:	0000                	unimp
    3e0e:	0c00                	addi	s0,sp,528
    3e10:	0800                	addi	s0,sp,16
    3e12:	004e                	c.slli	zero,0x13
    3e14:	0000                	unimp
    3e16:	06ee                	slli	a3,a3,0x1b
    3e18:	0000                	unimp
    3e1a:	2409                	jal	401c <_gp+0x2bc>
    3e1c:	0000                	unimp
    3e1e:	0200                	addi	s0,sp,256
    3e20:	1a00                	addi	s0,sp,304
    3e22:	04d0                	addi	a2,sp,580
    3e24:	0259                	addi	tp,tp,22
    3e26:	00080307          	0x80307
    3e2a:	1700                	addi	s0,sp,928
    3e2c:	043d                	addi	s0,s0,15
    3e2e:	0000                	unimp
    3e30:	5b04                	lw	s1,48(a4)
    3e32:	1802                	slli	a6,a6,0x20
    3e34:	0024                	addi	s1,sp,8
    3e36:	0000                	unimp
    3e38:	1700                	addi	s0,sp,928
    3e3a:	0624                	addi	s1,sp,776
    3e3c:	0000                	unimp
    3e3e:	5c04                	lw	s1,56(s0)
    3e40:	1202                	slli	tp,tp,0x20
    3e42:	05ae                	slli	a1,a1,0xb
    3e44:	0000                	unimp
    3e46:	1704                	addi	s1,sp,928
    3e48:	03b0                	addi	a2,sp,456
    3e4a:	0000                	unimp
    3e4c:	5d04                	lw	s1,56(a0)
    3e4e:	1002                	c.slli	zero,0x20
    3e50:	00000803          	lb	a6,0(zero) # 0 <buf.1936>
    3e54:	1708                	addi	a0,sp,928
    3e56:	0726                	slli	a4,a4,0x9
    3e58:	0000                	unimp
    3e5a:	5e04                	lw	s1,56(a2)
    3e5c:	1702                	slli	a4,a4,0x20
    3e5e:	00000193          	li	gp,0
    3e62:	1724                	addi	s1,sp,936
    3e64:	02e2                	slli	t0,t0,0x18
    3e66:	0000                	unimp
    3e68:	5f04                	lw	s1,56(a4)
    3e6a:	0f02                	c.slli64	t5
    3e6c:	001d                	c.nop	7
    3e6e:	0000                	unimp
    3e70:	1748                	addi	a0,sp,932
    3e72:	0794                	addi	a3,sp,960
    3e74:	0000                	unimp
    3e76:	6004                	flw	fs1,0(s0)
    3e78:	2c02                	fld	fs8,0(sp)
    3e7a:	00000063          	beqz	zero,3e7a <_gp+0x11a>
    3e7e:	1750                	addi	a2,sp,932
    3e80:	073e                	slli	a4,a4,0xf
    3e82:	0000                	unimp
    3e84:	6104                	flw	fs1,0(a0)
    3e86:	1a02                	slli	s4,s4,0x20
    3e88:	06a5                	addi	a3,a3,9
    3e8a:	0000                	unimp
    3e8c:	1758                	addi	a4,sp,932
    3e8e:	057a                	slli	a0,a0,0x1e
    3e90:	0000                	unimp
    3e92:	6204                	flw	fs1,0(a2)
    3e94:	1602                	slli	a2,a2,0x20
    3e96:	00fd                	addi	ra,ra,31
    3e98:	0000                	unimp
    3e9a:	1768                	addi	a0,sp,940
    3e9c:	075e                	slli	a4,a4,0x17
    3e9e:	0000                	unimp
    3ea0:	6304                	flw	fs1,0(a4)
    3ea2:	1602                	slli	a2,a2,0x20
    3ea4:	00fd                	addi	ra,ra,31
    3ea6:	0000                	unimp
    3ea8:	1770                	addi	a2,sp,940
    3eaa:	00000157          	0x157
    3eae:	6404                	flw	fs1,8(s0)
    3eb0:	1602                	slli	a2,a2,0x20
    3eb2:	00fd                	addi	ra,ra,31
    3eb4:	0000                	unimp
    3eb6:	1778                	addi	a4,sp,940
    3eb8:	06e0                	addi	s0,sp,844
    3eba:	0000                	unimp
    3ebc:	6504                	flw	fs1,8(a0)
    3ebe:	1002                	c.slli	zero,0x20
    3ec0:	00000813          	li	a6,0
    3ec4:	1780                	addi	s0,sp,992
    3ec6:	03a4                	addi	s1,sp,456
    3ec8:	0000                	unimp
    3eca:	6604                	flw	fs1,8(a2)
    3ecc:	1002                	c.slli	zero,0x20
    3ece:	00000823          	sb	zero,16(zero) # 10 <buf.1936+0x10>
    3ed2:	1788                	addi	a0,sp,992
    3ed4:	0048                	addi	a0,sp,4
    3ed6:	0000                	unimp
    3ed8:	6704                	flw	fs1,8(a4)
    3eda:	0f02                	c.slli64	t5
    3edc:	001d                	c.nop	7
    3ede:	0000                	unimp
    3ee0:	17a0                	addi	s0,sp,1000
    3ee2:	02ac                	addi	a1,sp,328
    3ee4:	0000                	unimp
    3ee6:	6804                	flw	fs1,16(s0)
    3ee8:	1602                	slli	a2,a2,0x20
    3eea:	00fd                	addi	ra,ra,31
    3eec:	0000                	unimp
    3eee:	17a4                	addi	s1,sp,1000
    3ef0:	011a                	slli	sp,sp,0x6
    3ef2:	0000                	unimp
    3ef4:	6904                	flw	fs1,16(a0)
    3ef6:	1602                	slli	a2,a2,0x20
    3ef8:	00fd                	addi	ra,ra,31
    3efa:	0000                	unimp
    3efc:	17ac                	addi	a1,sp,1000
    3efe:	0000029b          	0x29b
    3f02:	6a04                	flw	fs1,16(a2)
    3f04:	1602                	slli	a2,a2,0x20
    3f06:	00fd                	addi	ra,ra,31
    3f08:	0000                	unimp
    3f0a:	17b4                	addi	a3,sp,1000
    3f0c:	0000005b          	0x5b
    3f10:	6b04                	flw	fs1,16(a4)
    3f12:	1602                	slli	a2,a2,0x20
    3f14:	00fd                	addi	ra,ra,31
    3f16:	0000                	unimp
    3f18:	17bc                	addi	a5,sp,1000
    3f1a:	006a                	c.slli	zero,0x1a
    3f1c:	0000                	unimp
    3f1e:	6c04                	flw	fs1,24(s0)
    3f20:	1602                	slli	a2,a2,0x20
    3f22:	00fd                	addi	ra,ra,31
    3f24:	0000                	unimp
    3f26:	17c4                	addi	s1,sp,996
    3f28:	0534                	addi	a3,sp,648
    3f2a:	0000                	unimp
    3f2c:	6d04                	flw	fs1,24(a0)
    3f2e:	0802                	c.slli64	a6
    3f30:	001d                	c.nop	7
    3f32:	0000                	unimp
    3f34:	00cc                	addi	a1,sp,68
    3f36:	b408                	fsd	fa0,40(s0)
    3f38:	0005                	c.nop	1
    3f3a:	1300                	addi	s0,sp,416
    3f3c:	0008                	0x8
    3f3e:	0900                	addi	s0,sp,144
    3f40:	0024                	addi	s1,sp,8
    3f42:	0000                	unimp
    3f44:	0019                	c.nop	6
    3f46:	b408                	fsd	fa0,40(s0)
    3f48:	0005                	c.nop	1
    3f4a:	2300                	fld	fs0,0(a4)
    3f4c:	0008                	0x8
    3f4e:	0900                	addi	s0,sp,144
    3f50:	0024                	addi	s1,sp,8
    3f52:	0000                	unimp
    3f54:	b4080007          	0xb4080007
    3f58:	0005                	c.nop	1
    3f5a:	3300                	fld	fs0,32(a4)
    3f5c:	0008                	0x8
    3f5e:	0900                	addi	s0,sp,144
    3f60:	0024                	addi	s1,sp,8
    3f62:	0000                	unimp
    3f64:	f01a0017          	auipc	zero,0xf01a0
    3f68:	7204                	flw	fs1,32(a2)
    3f6a:	0702                	c.slli64	a4
    3f6c:	085a                	slli	a6,a6,0x16
    3f6e:	0000                	unimp
    3f70:	0003cb17          	auipc	s6,0x3c
    3f74:	0400                	addi	s0,sp,512
    3f76:	0275                	addi	tp,tp,29
    3f78:	00085a1b          	0x85a1b
    3f7c:	0000                	unimp
    3f7e:	0002f117          	auipc	sp,0x2f
    3f82:	0400                	addi	s0,sp,512
    3f84:	0276                	slli	tp,tp,0x1d
    3f86:	6a18                	flw	fa4,16(a2)
    3f88:	0008                	0x8
    3f8a:	7800                	flw	fs0,48(s0)
    3f8c:	0800                	addi	s0,sp,16
    3f8e:	000002f3          	0x2f3
    3f92:	086a                	slli	a6,a6,0x1a
    3f94:	0000                	unimp
    3f96:	2409                	jal	4198 <_gp+0x438>
    3f98:	0000                	unimp
    3f9a:	1d00                	addi	s0,sp,688
    3f9c:	0800                	addi	s0,sp,16
    3f9e:	0024                	addi	s1,sp,8
    3fa0:	0000                	unimp
    3fa2:	087a                	slli	a6,a6,0x1e
    3fa4:	0000                	unimp
    3fa6:	2409                	jal	41a8 <_gp+0x448>
    3fa8:	0000                	unimp
    3faa:	1d00                	addi	s0,sp,688
    3fac:	1b00                	addi	s0,sp,432
    3fae:	04f0                	addi	a2,sp,588
    3fb0:	9f030257          	0x9f030257
    3fb4:	0008                	0x8
    3fb6:	1c00                	addi	s0,sp,560
    3fb8:	000005ab          	0x5ab
    3fbc:	6e04                	flw	fs1,24(a2)
    3fbe:	0b02                	c.slli64	s6
    3fc0:	06ee                	slli	a3,a3,0x1b
    3fc2:	0000                	unimp
    3fc4:	091c                	addi	a5,sp,144
    3fc6:	04000007          	0x4000007
    3fca:	330b0277          	0x330b0277
    3fce:	0008                	0x8
    3fd0:	0000                	unimp
    3fd2:	b408                	fsd	fa0,40(s0)
    3fd4:	0005                	c.nop	1
    3fd6:	af00                	fsd	fs0,24(a4)
    3fd8:	0008                	0x8
    3fda:	0900                	addi	s0,sp,144
    3fdc:	0024                	addi	s1,sp,8
    3fde:	0000                	unimp
    3fe0:	0018                	0x18
    3fe2:	0f1d                	addi	t5,t5,7
    3fe4:	0001                	nop
    3fe6:	0f00                	addi	s0,sp,912
    3fe8:	af04                	fsd	fs1,24(a4)
    3fea:	0008                	0x8
    3fec:	1e00                	addi	s0,sp,816
    3fee:	08c5                	addi	a7,a7,17
    3ff0:	0000                	unimp
    3ff2:	5a14                	lw	a3,48(a2)
    3ff4:	0004                	0x4
    3ff6:	0000                	unimp
    3ff8:	08ba040f          	0x8ba040f
    3ffc:	0000                	unimp
    3ffe:	017d040f          	0x17d040f
    4002:	0000                	unimp
    4004:	dc1e                	sw	t2,56(sp)
    4006:	0008                	0x8
    4008:	1400                	addi	s0,sp,544
    400a:	001d                	c.nop	7
    400c:	0000                	unimp
    400e:	0f00                	addi	s0,sp,912
    4010:	e204                	fsw	fs1,0(a2)
    4012:	0008                	0x8
    4014:	0f00                	addi	s0,sp,912
    4016:	d104                	sw	s1,32(a0)
    4018:	0008                	0x8
    401a:	0800                	addi	s0,sp,16
    401c:	00000653          	fadd.s	fa2,ft0,ft0,rne
    4020:	08f8                	addi	a4,sp,92
    4022:	0000                	unimp
    4024:	2409                	jal	4226 <_gp+0x4c6>
    4026:	0000                	unimp
    4028:	0200                	addi	s0,sp,256
    402a:	1f00                	addi	s0,sp,944
    402c:	06a4                	addi	s1,sp,840
    402e:	0000                	unimp
    4030:	0704                	addi	s1,sp,896
    4032:	045a1703          	lh	a4,69(s4)
    4036:	0000                	unimp
    4038:	9d1f 0006 0400      	0x40000069d1f
    403e:	0308                	addi	a0,sp,384
    4040:	601d                	c.lui	zero,0x7
    4042:	0004                	0x4
    4044:	0800                	addi	s0,sp,16
    4046:	05ea                	slli	a1,a1,0x1a
    4048:	0000                	unimp
    404a:	091d                	addi	s2,s2,7
    404c:	0000                	unimp
    404e:	0020                	addi	s0,sp,8
    4050:	1215                	addi	tp,tp,-27
    4052:	0009                	c.nop	2
    4054:	2100                	fld	fs0,0(a0)
    4056:	0286                	slli	t0,t0,0x1
    4058:	0000                	unimp
    405a:	1405                	addi	s0,s0,-31
    405c:	1d24                	addi	s1,sp,696
    405e:	0009                	c.nop	2
    4060:	2100                	fld	fs0,0(a0)
    4062:	0570                	addi	a2,sp,652
    4064:	0000                	unimp
    4066:	1505                	addi	a0,a0,-31
    4068:	1d15                	addi	s10,s10,-27
    406a:	0000                	unimp
    406c:	0f00                	addi	s0,sp,912
    406e:	4004                	lw	s1,0(s0)
    4070:	0009                	c.nop	2
    4072:	1300                	addi	s0,sp,416
    4074:	001d                	c.nop	7
    4076:	0000                	unimp
    4078:	0954                	addi	a3,sp,148
    407a:	0000                	unimp
    407c:	5414                	lw	a3,40(s0)
    407e:	0009                	c.nop	2
    4080:	1400                	addi	s0,sp,544
    4082:	0954                	addi	a3,sp,148
    4084:	0000                	unimp
    4086:	0f00                	addi	s0,sp,912
    4088:	5a04                	lw	s1,48(a2)
    408a:	0009                	c.nop	2
    408c:	2200                	fld	fs0,0(a2)
    408e:	a921                	j	44a6 <_gp+0x746>
    4090:	0004                	0x4
    4092:	0600                	addi	s0,sp,768
    4094:	05ae0e63          	beq	t3,s10,40f0 <_gp+0x390>
    4098:	0000                	unimp
    409a:	d221                	beqz	a2,3fda <_gp+0x27a>
    409c:	07000003          	lb	zero,112(zero) # 70 <buflen.1937+0x30>
    40a0:	0f10                	addi	a2,sp,912
    40a2:	00000973          	0x973
    40a6:	05ae040f          	0x5ae040f
    40aa:	0000                	unimp
    40ac:	ac21                	j	42c4 <_gp+0x564>
    40ae:	0004                	0x4
    40b0:	0700                	addi	s0,sp,896
    40b2:	0efc                	addi	a5,sp,860
    40b4:	05ae                	slli	a1,a1,0xb
    40b6:	0000                	unimp
    40b8:	8e21                	xor	a2,a2,s0
    40ba:	0000                	unimp
    40bc:	0700                	addi	s0,sp,896
    40be:	0cfd                	addi	s9,s9,31
    40c0:	001d                	c.nop	7
    40c2:	0000                	unimp
    40c4:	0e21                	addi	t3,t3,8
    40c6:	0006                	c.slli	zero,0x1
    40c8:	0700                	addi	s0,sp,896
    40ca:	14fd                	addi	s1,s1,-1
    40cc:	001d                	c.nop	7
    40ce:	0000                	unimp
    40d0:	4d21                	li	s10,8
    40d2:	07000007          	0x7000007
    40d6:	1cfd                	addi	s9,s9,-1
    40d8:	001d                	c.nop	7
    40da:	0000                	unimp
    40dc:	1b21                	addi	s6,s6,-24
    40de:	0004                	0x4
    40e0:	0700                	addi	s0,sp,896
    40e2:	0cff                	0xcff
    40e4:	001d                	c.nop	7
    40e6:	0000                	unimp
    40e8:	d921                	beqz	a0,4038 <_gp+0x2d8>
    40ea:	0004                	0x4
    40ec:	0800                	addi	s0,sp,16
    40ee:	169a                	slli	a3,a3,0x26
    40f0:	0055                	c.nop	21
    40f2:	0000                	unimp
    40f4:	2f21                	jal	480c <_gp+0xaac>
    40f6:	0000                	unimp
    40f8:	0800                	addi	s0,sp,16
    40fa:	001d159b          	0x1d159b
    40fe:	0000                	unimp
    4100:	ae08                	fsd	fa0,24(a2)
    4102:	0005                	c.nop	1
    4104:	dd00                	sw	s0,56(a0)
    4106:	0009                	c.nop	2
    4108:	0900                	addi	s0,sp,144
    410a:	0024                	addi	s1,sp,8
    410c:	0000                	unimp
    410e:	0001                	nop
    4110:	2921                	jal	4528 <_gp+0x7c8>
    4112:	0001                	nop
    4114:	0800                	addi	s0,sp,16
    4116:	179e                	slli	a5,a5,0x27
    4118:	09cd                	addi	s3,s3,19
    411a:	0000                	unimp
    411c:	4504                	lw	s1,8(a0)
    411e:	09000003          	lb	zero,144(zero) # 90 <buflen.1937+0x50>
    4122:	162a                	slli	a2,a2,0x2a
    4124:	0024                	addi	s1,sp,8
    4126:	0000                	unimp
    4128:	5e04                	lw	s1,56(a2)
    412a:	0005                	c.nop	1
    412c:	0900                	addi	s0,sp,144
    412e:	0a01152f          	0xa01152f
    4132:	0000                	unimp
    4134:	0a07040f          	0xa07040f
    4138:	0000                	unimp
    413a:	0009e913          	ori	s2,s3,0
    413e:	1600                	addi	s0,sp,800
    4140:	000a                	c.slli	zero,0x2
    4142:	1400                	addi	s0,sp,544
    4144:	0954                	addi	a3,sp,148
    4146:	0000                	unimp
    4148:	0400                	addi	s0,sp,512
    414a:	079f 0000 3609      	0x36090000079f
    4150:	00093a0f          	0x93a0f
    4154:	2100                	fld	fs0,0(a0)
    4156:	000a                	c.slli	zero,0x2
    4158:	0000                	unimp
    415a:	bb09                	j	3e6c <_gp+0x10c>
    415c:	f512                	fsw	ft4,168(sp)
    415e:	0009                	c.nop	2
    4160:	2100                	fld	fs0,0(a0)
    4162:	065c                	addi	a5,sp,772
    4164:	0000                	unimp
    4166:	be09                	j	3c78 <Arr_2_Glob+0x59c>
    4168:	1610                	addi	a2,sp,800
    416a:	000a                	c.slli	zero,0x2
    416c:	2300                	fld	fs0,0(a4)
    416e:	0318                	addi	a4,sp,384
    4170:	0000                	unimp
    4172:	00240407          	0x240407
    4176:	0000                	unimp
    4178:	180a                	slli	a6,a6,0x22
    417a:	7706                	flw	fa4,96(sp)
    417c:	000a                	c.slli	zero,0x2
    417e:	2400                	fld	fs0,8(s0)
    4180:	0000050f          	0x50f
    4184:	2400                	fld	fs0,8(s0)
    4186:	03f6                	slli	t2,t2,0x1d
    4188:	0000                	unimp
    418a:	2401                	jal	438a <_gp+0x62a>
    418c:	047f                	0x47f
    418e:	0000                	unimp
    4190:	2402                	fld	fs0,0(sp)
    4192:	044a                	slli	s0,s0,0x12
    4194:	0000                	unimp
    4196:	05062403          	lw	s0,80(a2)
    419a:	0000                	unimp
    419c:	2404                	fld	fs1,8(s0)
    419e:	0754                	addi	a3,sp,900
    41a0:	0000                	unimp
    41a2:	2405                	jal	43c2 <_gp+0x662>
    41a4:	00000743          	fmadd.s	fa4,ft0,ft0,ft0,rne
    41a8:	0006                	c.slli	zero,0x1
    41aa:	ec21                	bnez	s0,4202 <_gp+0x4a2>
    41ac:	0a000003          	lb	zero,160(zero) # a0 <buflen.1937+0x60>
    41b0:	1c21                	addi	s8,s8,-24
    41b2:	0a3a                	slli	s4,s4,0xe
    41b4:	0000                	unimp
    41b6:	00045523          	0x45523
    41ba:	0700                	addi	s0,sp,896
    41bc:	2404                	fld	fs1,8(s0)
    41be:	0000                	unimp
    41c0:	0a00                	addi	s0,sp,272
    41c2:	0aa80623          	sb	a0,172(a6) # 63e92 <__C_STACK_TOP__+0x53e92>
    41c6:	0000                	unimp
    41c8:	5424                	lw	s1,104(s0)
    41ca:	0005                	c.nop	1
    41cc:	0000                	unimp
    41ce:	2524                	fld	fs1,72(a0)
    41d0:	0005                	c.nop	1
    41d2:	0100                	addi	s0,sp,128
    41d4:	3124                	fld	fs1,96(a0)
    41d6:	0006                	c.slli	zero,0x1
    41d8:	0200                	addi	s0,sp,256
    41da:	2100                	fld	fs0,0(a0)
    41dc:	02ba                	slli	t0,t0,0xe
    41de:	0000                	unimp
    41e0:	280a                	fld	fa6,128(sp)
    41e2:	831e                	mv	t1,t2
    41e4:	000a                	c.slli	zero,0x2
    41e6:	2100                	fld	fs0,0(a0)
    41e8:	040c                	addi	a1,sp,512
    41ea:	0000                	unimp
    41ec:	1d1a290b          	0x1d1a290b
    41f0:	0009                	c.nop	2
    41f2:	2100                	fld	fs0,0(a0)
    41f4:	05f8                	addi	a4,sp,716
    41f6:	0000                	unimp
    41f8:	1d1a380b          	0x1d1a380b
    41fc:	0009                	c.nop	2
    41fe:	0400                	addi	s0,sp,512
    4200:	0000077b          	0x77b
    4204:	7b0c                	flw	fa1,48(a4)
    4206:	4016                	0x4016
    4208:	0000                	unimp
    420a:	1500                	addi	s0,sp,672
    420c:	0acc                	addi	a1,sp,340
    420e:	0000                	unimp
    4210:	92040403          	lb	s0,-1760(s0) # 920 <vprintfmt.constprop.0+0x4fa>
    4214:	0004                	0x4
    4216:	0300                	addi	s0,sp,384
    4218:	0308                	addi	a0,sp,384
    421a:	048a                	slli	s1,s1,0x2
    421c:	0000                	unimp
    421e:	a2040803          	lb	a6,-1504(s0)
    4222:	0000                	unimp
    4224:	0300                	addi	s0,sp,384
    4226:	0310                	addi	a2,sp,384
    4228:	0039                	c.nop	14
    422a:	0000                	unimp
    422c:	95032003          	lw	zero,-1712(t1) # fffff950 <__C_STACK_TOP__+0xfffef950>
    4230:	0000                	unimp
    4232:	0800                	addi	s0,sp,16
    4234:	0ad8                	addi	a4,sp,340
    4236:	0000                	unimp
    4238:	0b10                	addi	a2,sp,400
    423a:	0000                	unimp
    423c:	2409                	jal	443e <_gp+0x6de>
    423e:	0000                	unimp
    4240:	ff00                	fsw	fs0,56(a4)
    4242:	1500                	addi	s0,sp,672
    4244:	0b00                	addi	s0,sp,400
    4246:	0000                	unimp
    4248:	f41f 0006 0c00      	0xc000006f41f
    424e:	01fc                	addi	a5,sp,204
    4250:	1016                	c.slli	zero,0x25
    4252:	1f00000b          	0x1f00000b
    4256:	0391                	addi	t2,t2,4
    4258:	0000                	unimp
    425a:	020c                	addi	a1,sp,256
    425c:	1602                	slli	a2,a2,0x20
    425e:	0b10                	addi	a2,sp,400
    4260:	0000                	unimp
    4262:	2225                	jal	438a <_gp+0x62a>
    4264:	0d00000b          	0xd00000b
    4268:	02b2                	slli	t0,t0,0xc
    426a:	bc03050f          	0xbc03050f
    426e:	0028                	addi	a0,sp,8
	...

Disassembly of section .debug_abbrev:

00000000 <.debug_abbrev>:
   0:	1101                	addi	sp,sp,-32
   2:	2501                	jal	602 <vprintfmt.constprop.0+0x1dc>
   4:	130e                	slli	t1,t1,0x23
   6:	1b0e030b          	0x1b0e030b
   a:	110e                	slli	sp,sp,0x23
   c:	1201                	addi	tp,tp,-32
   e:	1006                	c.slli	zero,0x21
  10:	02000017          	auipc	zero,0x2000
  14:	0024                	addi	s1,sp,8
  16:	0b3e0b0b          	0xb3e0b0b
  1a:	00000e03          	lb	t3,0(zero) # 0 <buf.1936>
  1e:	0b002403          	lw	s0,176(zero) # b0 <buflen.1937+0x70>
  22:	030b3e0b          	0x30b3e0b
  26:	0008                	0x8
  28:	0400                	addi	s0,sp,512
  2a:	0016                	c.slli	zero,0x5
  2c:	0b3a0e03          	lb	t3,179(s4)
  30:	0b390b3b          	0xb390b3b
  34:	1349                	addi	t1,t1,-14
  36:	0000                	unimp
  38:	1605                	addi	a2,a2,-31
  3a:	0300                	addi	s0,sp,384
  3c:	3a0e                	fld	fs4,224(sp)
  3e:	39053b0b          	0x39053b0b
  42:	0013490b          	0x13490b
  46:	0600                	addi	s0,sp,768
  48:	0b0b0117          	auipc	sp,0xb0b0
  4c:	0b3a                	slli	s6,s6,0xe
  4e:	0b390b3b          	0xb390b3b
  52:	1301                	addi	t1,t1,-32
  54:	0000                	unimp
  56:	03000d07          	0x3000d07
  5a:	3a0e                	fld	fs4,224(sp)
  5c:	390b3b0b          	0x390b3b0b
  60:	0013490b          	0x13490b
  64:	0800                	addi	s0,sp,16
  66:	0101                	addi	sp,sp,0
  68:	1349                	addi	t1,t1,-14
  6a:	1301                	addi	t1,t1,-32
  6c:	0000                	unimp
  6e:	2109                	jal	470 <vprintfmt.constprop.0+0x4a>
  70:	4900                	lw	s0,16(a0)
  72:	000b2f13          	slti	t5,s6,0
  76:	0a00                	addi	s0,sp,272
  78:	0b0b0113          	addi	sp,s6,176 # 40020 <__C_STACK_TOP__+0x30020>
  7c:	0b3a                	slli	s6,s6,0xe
  7e:	0b390b3b          	0xb390b3b
  82:	1301                	addi	t1,t1,-32
  84:	0000                	unimp
  86:	03000d0b          	0x3000d0b
  8a:	3a0e                	fld	fs4,224(sp)
  8c:	390b3b0b          	0x390b3b0b
  90:	3813490b          	0x3813490b
  94:	0c00000b          	0xc00000b
  98:	0b0b000f          	0xb0b000f
  9c:	0000                	unimp
  9e:	130d                	addi	t1,t1,-29
  a0:	0301                	addi	t1,t1,0
  a2:	0b0e                	slli	s6,s6,0x3
  a4:	3b0b3a0b          	0x3b0b3a0b
  a8:	010b390b          	0x10b390b
  ac:	0e000013          	li	zero,224
  b0:	000d                	c.nop	3
  b2:	0b3a0803          	lb	a6,179(s4)
  b6:	0b390b3b          	0xb390b3b
  ba:	1349                	addi	t1,t1,-14
  bc:	0b38                	addi	a4,sp,408
  be:	0000                	unimp
  c0:	0b000f0f          	0xb000f0f
  c4:	0013490b          	0x13490b
  c8:	1000                	addi	s0,sp,32
  ca:	0e030113          	addi	sp,t1,224
  ce:	0b3a050b          	0xb3a050b
  d2:	0b390b3b          	0xb390b3b
  d6:	1301                	addi	t1,t1,-32
  d8:	0000                	unimp
  da:	0d11                	addi	s10,s10,4
  dc:	0300                	addi	s0,sp,384
  de:	3a0e                	fld	fs4,224(sp)
  e0:	390b3b0b          	0x390b3b0b
  e4:	3813490b          	0x3813490b
  e8:	0005                	c.nop	1
  ea:	1200                	addi	s0,sp,288
  ec:	0015                	c.nop	5
  ee:	00001927          	0x1927
  f2:	27011513          	0x27011513
  f6:	4919                	li	s2,6
  f8:	00130113          	addi	sp,t1,1
  fc:	1400                	addi	s0,sp,544
  fe:	0005                	c.nop	1
 100:	1349                	addi	t1,t1,-14
 102:	0000                	unimp
 104:	2615                	jal	428 <vprintfmt.constprop.0+0x2>
 106:	4900                	lw	s0,16(a0)
 108:	16000013          	li	zero,352
 10c:	0e030113          	addi	sp,t1,224
 110:	0b3a050b          	0xb3a050b
 114:	0b39053b          	0xb39053b
 118:	1301                	addi	t1,t1,-32
 11a:	0000                	unimp
 11c:	03000d17          	auipc	s10,0x3000
 120:	3a0e                	fld	fs4,224(sp)
 122:	39053b0b          	0x39053b0b
 126:	3813490b          	0x3813490b
 12a:	1800000b          	0x1800000b
 12e:	000d                	c.nop	3
 130:	0b3a0e03          	lb	t3,179(s4)
 134:	0b39053b          	0xb39053b
 138:	1349                	addi	t1,t1,-14
 13a:	0538                	addi	a4,sp,648
 13c:	0000                	unimp
 13e:	1319                	addi	t1,t1,-26
 140:	0301                	addi	t1,t1,0
 142:	0b0e                	slli	s6,s6,0x3
 144:	3b0b3a0b          	0x3b0b3a0b
 148:	3905                	jal	fffffd78 <__C_STACK_TOP__+0xfffefd78>
 14a:	0013010b          	0x13010b
 14e:	1a00                	addi	s0,sp,304
 150:	0b0b0113          	addi	sp,s6,176
 154:	0b3a                	slli	s6,s6,0xe
 156:	0b39053b          	0xb39053b
 15a:	1301                	addi	t1,t1,-32
 15c:	0000                	unimp
 15e:	0b01171b          	0xb01171b
 162:	3b0b3a0b          	0x3b0b3a0b
 166:	3905                	jal	fffffd96 <__C_STACK_TOP__+0xfffefd96>
 168:	0013010b          	0x13010b
 16c:	1c00                	addi	s0,sp,560
 16e:	000d                	c.nop	3
 170:	0b3a0e03          	lb	t3,179(s4)
 174:	0b39053b          	0xb39053b
 178:	1349                	addi	t1,t1,-14
 17a:	0000                	unimp
 17c:	131d                	addi	t1,t1,-25
 17e:	0300                	addi	s0,sp,384
 180:	3c0e                	fld	fs8,224(sp)
 182:	0019                	c.nop	6
 184:	1e00                	addi	s0,sp,816
 186:	0115                	addi	sp,sp,5
 188:	13011927          	0x13011927
 18c:	0000                	unimp
 18e:	341f 0300 3a0e      	0x3a0e0300341f
 194:	39053b0b          	0x39053b0b
 198:	3f13490b          	0x3f13490b
 19c:	3c19                	jal	fffffbb2 <__C_STACK_TOP__+0xfffefbb2>
 19e:	0019                	c.nop	6
 1a0:	2000                	fld	fs0,0(s0)
 1a2:	0021                	c.nop	8
 1a4:	0000                	unimp
 1a6:	3421                	jal	fffffbae <__C_STACK_TOP__+0xfffefbae>
 1a8:	0300                	addi	s0,sp,384
 1aa:	3a0e                	fld	fs4,224(sp)
 1ac:	390b3b0b          	0x390b3b0b
 1b0:	3f13490b          	0x3f13490b
 1b4:	3c19                	jal	fffffbca <__C_STACK_TOP__+0xfffefbca>
 1b6:	0019                	c.nop	6
 1b8:	2200                	fld	fs0,0(a2)
 1ba:	0026                	c.slli	zero,0x9
 1bc:	0000                	unimp
 1be:	03010423          	sb	a6,40(sp) # b0b0070 <__C_STACK_TOP__+0xb0a0070>
 1c2:	3e0e                	fld	ft8,224(sp)
 1c4:	490b0b0b          	0x490b0b0b
 1c8:	3b0b3a13          	sltiu	s4,s6,944
 1cc:	010b390b          	0x10b390b
 1d0:	24000013          	li	zero,576
 1d4:	0028                	addi	a0,sp,8
 1d6:	0b1c0e03          	lb	t3,177(s8) # 10b1 <main+0x441>
 1da:	0000                	unimp
 1dc:	0d25                	addi	s10,s10,9
 1de:	0300                	addi	s0,sp,384
 1e0:	3a08                	fld	fa0,48(a2)
 1e2:	39053b0b          	0x39053b0b
 1e6:	3813490b          	0x3813490b
 1ea:	2600000b          	0x2600000b
 1ee:	000d                	c.nop	3
 1f0:	0b3a0803          	lb	a6,179(s4)
 1f4:	0b39053b          	0xb39053b
 1f8:	1349                	addi	t1,t1,-14
 1fa:	0000                	unimp
 1fc:	3f012e27          	fsw	fa6,1020(sp)
 200:	0319                	addi	t1,t1,6
 202:	3a0e                	fld	fs4,224(sp)
 204:	39053b0b          	0x39053b0b
 208:	4919270b          	0x4919270b
 20c:	12011113          	0x12011113
 210:	4006                	0x4006
 212:	9718                	0x9718
 214:	1942                	slli	s2,s2,0x30
 216:	1301                	addi	t1,t1,-32
 218:	0000                	unimp
 21a:	0528                	addi	a0,sp,648
 21c:	0300                	addi	s0,sp,384
 21e:	3a08                	fld	fa0,48(a2)
 220:	39053b0b          	0x39053b0b
 224:	0213490b          	0x213490b
 228:	29000017          	auipc	zero,0x29000
 22c:	0034                	addi	a3,sp,8
 22e:	0b3a0803          	lb	a6,179(s4)
 232:	0b39053b          	0xb39053b
 236:	1349                	addi	t1,t1,-14
 238:	1702                	slli	a4,a4,0x20
 23a:	0000                	unimp
 23c:	1d2a                	slli	s10,s10,0x2a
 23e:	3101                	jal	fffffe3e <__C_STACK_TOP__+0xfffefe3e>
 240:	55015213          	0x55015213
 244:	590b5817          	auipc	a6,0x590b5
 248:	5705                	li	a4,-31
 24a:	2b00000b          	0x2b00000b
 24e:	0005                	c.nop	1
 250:	1331                	addi	t1,t1,-20
 252:	1702                	slli	a4,a4,0x20
 254:	0000                	unimp
 256:	052c                	addi	a1,sp,648
 258:	3100                	fld	fs0,32(a0)
 25a:	2d000013          	li	zero,720
 25e:	1755010b          	0x1755010b
 262:	0000                	unimp
 264:	342e                	fld	fs0,232(sp)
 266:	3100                	fld	fs0,32(a0)
 268:	2f000013          	li	zero,752
 26c:	0034                	addi	a3,sp,8
 26e:	1331                	addi	t1,t1,-20
 270:	1702                	slli	a4,a4,0x20
 272:	0000                	unimp
 274:	0b30                	addi	a2,sp,408
 276:	3101                	jal	fffffe76 <__C_STACK_TOP__+0xfffefe76>
 278:	01175513          	srli	a0,a4,0x11
 27c:	31000013          	li	zero,784
 280:	1331010b          	0x1331010b
 284:	0111                	addi	sp,sp,4
 286:	0612                	slli	a2,a2,0x4
 288:	1301                	addi	t1,t1,-32
 28a:	0000                	unimp
 28c:	0b32                	slli	s6,s6,0xc
 28e:	3101                	jal	fffffe8e <__C_STACK_TOP__+0xfffefe8e>
 290:	12011113          	0x12011113
 294:	0006                	c.slli	zero,0x1
 296:	3300                	fld	fs0,32(a4)
 298:	0034                	addi	a3,sp,8
 29a:	1331                	addi	t1,t1,-20
 29c:	1802                	slli	a6,a6,0x20
 29e:	0000                	unimp
 2a0:	2e34                	fld	fa3,88(a2)
 2a2:	0301                	addi	t1,t1,0
 2a4:	3a0e                	fld	fs4,224(sp)
 2a6:	39053b0b          	0x39053b0b
 2aa:	4919270b          	0x4919270b
 2ae:	010b2013          	slti	zero,s6,16
 2b2:	35000013          	li	zero,848
 2b6:	0005                	c.nop	1
 2b8:	0b3a0803          	lb	a6,179(s4)
 2bc:	0b39053b          	0xb39053b
 2c0:	1349                	addi	t1,t1,-14
 2c2:	0000                	unimp
 2c4:	3436                	fld	fs0,360(sp)
 2c6:	0300                	addi	s0,sp,384
 2c8:	3a08                	fld	fa0,48(a2)
 2ca:	39053b0b          	0x39053b0b
 2ce:	0013490b          	0x13490b
 2d2:	3700                	fld	fs0,40(a4)
 2d4:	1301010b          	0x1301010b
 2d8:	0000                	unimp
 2da:	3438                	fld	fa4,104(s0)
 2dc:	0300                	addi	s0,sp,384
 2de:	3a0e                	fld	fs4,224(sp)
 2e0:	39053b0b          	0x39053b0b
 2e4:	0013490b          	0x13490b
 2e8:	3900                	fld	fs0,48(a0)
 2ea:	0000010b          	0x10b
 2ee:	0100                	addi	s0,sp,128
 2f0:	0111                	addi	sp,sp,4
 2f2:	0e25                	addi	t3,t3,9
 2f4:	0e030b13          	addi	s6,t1,224
 2f8:	01110e1b          	0x1110e1b
 2fc:	0612                	slli	a2,a2,0x4
 2fe:	1710                	addi	a2,sp,928
 300:	0000                	unimp
 302:	2402                	fld	fs0,0(sp)
 304:	0b00                	addi	s0,sp,400
 306:	030b3e0b          	0x30b3e0b
 30a:	000e                	c.slli	zero,0x3
 30c:	0300                	addi	s0,sp,384
 30e:	0024                	addi	s1,sp,8
 310:	0b3e0b0b          	0xb3e0b0b
 314:	00000803          	lb	a6,0(zero) # 0 <buf.1936>
 318:	1604                	addi	s1,sp,800
 31a:	0300                	addi	s0,sp,384
 31c:	3a0e                	fld	fs4,224(sp)
 31e:	390b3b0b          	0x390b3b0b
 322:	0013490b          	0x13490b
 326:	0500                	addi	s0,sp,640
 328:	0016                	c.slli	zero,0x5
 32a:	0b3a0e03          	lb	t3,179(s4)
 32e:	0b39053b          	0xb39053b
 332:	1349                	addi	t1,t1,-14
 334:	0000                	unimp
 336:	1706                	slli	a4,a4,0x21
 338:	0b01                	addi	s6,s6,0
 33a:	3b0b3a0b          	0x3b0b3a0b
 33e:	010b390b          	0x10b390b
 342:	07000013          	li	zero,112
 346:	000d                	c.nop	3
 348:	0b3a0e03          	lb	t3,179(s4)
 34c:	0b390b3b          	0xb390b3b
 350:	1349                	addi	t1,t1,-14
 352:	0000                	unimp
 354:	0108                	addi	a0,sp,128
 356:	4901                	li	s2,0
 358:	00130113          	addi	sp,t1,1
 35c:	0900                	addi	s0,sp,144
 35e:	0021                	c.nop	8
 360:	1349                	addi	t1,t1,-14
 362:	00000b2f          	0xb2f
 366:	130a                	slli	t1,t1,0x22
 368:	0b01                	addi	s6,s6,0
 36a:	3b0b3a0b          	0x3b0b3a0b
 36e:	010b390b          	0x10b390b
 372:	0b000013          	li	zero,176
 376:	000d                	c.nop	3
 378:	0b3a0e03          	lb	t3,179(s4)
 37c:	0b390b3b          	0xb390b3b
 380:	1349                	addi	t1,t1,-14
 382:	0b38                	addi	a4,sp,408
 384:	0000                	unimp
 386:	0f0c                	addi	a1,sp,912
 388:	0b00                	addi	s0,sp,400
 38a:	0d00000b          	0xd00000b
 38e:	0e030113          	addi	sp,t1,224
 392:	0b3a0b0b          	0xb3a0b0b
 396:	0b390b3b          	0xb390b3b
 39a:	1301                	addi	t1,t1,-32
 39c:	0000                	unimp
 39e:	0d0e                	slli	s10,s10,0x3
 3a0:	0300                	addi	s0,sp,384
 3a2:	3a08                	fld	fa0,48(a2)
 3a4:	390b3b0b          	0x390b3b0b
 3a8:	3813490b          	0x3813490b
 3ac:	0f00000b          	0xf00000b
 3b0:	0b0b000f          	0xb0b000f
 3b4:	1349                	addi	t1,t1,-14
 3b6:	0000                	unimp
 3b8:	1310                	addi	a2,sp,416
 3ba:	0301                	addi	t1,t1,0
 3bc:	0b0e                	slli	s6,s6,0x3
 3be:	3a05                	jal	fffffcee <__C_STACK_TOP__+0xfffefcee>
 3c0:	390b3b0b          	0x390b3b0b
 3c4:	0013010b          	0x13010b
 3c8:	1100                	addi	s0,sp,160
 3ca:	000d                	c.nop	3
 3cc:	0b3a0e03          	lb	t3,179(s4)
 3d0:	0b390b3b          	0xb390b3b
 3d4:	1349                	addi	t1,t1,-14
 3d6:	0538                	addi	a4,sp,648
 3d8:	0000                	unimp
 3da:	1512                	slli	a0,a0,0x24
 3dc:	2700                	fld	fs0,8(a4)
 3de:	0019                	c.nop	6
 3e0:	1300                	addi	s0,sp,416
 3e2:	0115                	addi	sp,sp,5
 3e4:	13491927          	0x13491927
 3e8:	1301                	addi	t1,t1,-32
 3ea:	0000                	unimp
 3ec:	0514                	addi	a3,sp,640
 3ee:	4900                	lw	s0,16(a0)
 3f0:	15000013          	li	zero,336
 3f4:	0026                	c.slli	zero,0x9
 3f6:	1349                	addi	t1,t1,-14
 3f8:	0000                	unimp
 3fa:	1316                	slli	t1,t1,0x25
 3fc:	0301                	addi	t1,t1,0
 3fe:	0b0e                	slli	s6,s6,0x3
 400:	3a05                	jal	fffffd30 <__C_STACK_TOP__+0xfffefd30>
 402:	39053b0b          	0x39053b0b
 406:	0013010b          	0x13010b
 40a:	1700                	addi	s0,sp,928
 40c:	000d                	c.nop	3
 40e:	0b3a0e03          	lb	t3,179(s4)
 412:	0b39053b          	0xb39053b
 416:	1349                	addi	t1,t1,-14
 418:	0b38                	addi	a4,sp,408
 41a:	0000                	unimp
 41c:	0d18                	addi	a4,sp,656
 41e:	0300                	addi	s0,sp,384
 420:	3a0e                	fld	fs4,224(sp)
 422:	39053b0b          	0x39053b0b
 426:	3813490b          	0x3813490b
 42a:	0005                	c.nop	1
 42c:	1900                	addi	s0,sp,176
 42e:	0e030113          	addi	sp,t1,224
 432:	0b3a0b0b          	0xb3a0b0b
 436:	0b39053b          	0xb39053b
 43a:	1301                	addi	t1,t1,-32
 43c:	0000                	unimp
 43e:	131a                	slli	t1,t1,0x26
 440:	0b01                	addi	s6,s6,0
 442:	3b0b3a0b          	0x3b0b3a0b
 446:	3905                	jal	76 <buflen.1937+0x36>
 448:	0013010b          	0x13010b
 44c:	1b00                	addi	s0,sp,432
 44e:	0b0b0117          	auipc	sp,0xb0b0
 452:	0b3a                	slli	s6,s6,0xe
 454:	0b39053b          	0xb39053b
 458:	1301                	addi	t1,t1,-32
 45a:	0000                	unimp
 45c:	0d1c                	addi	a5,sp,656
 45e:	0300                	addi	s0,sp,384
 460:	3a0e                	fld	fs4,224(sp)
 462:	39053b0b          	0x39053b0b
 466:	0013490b          	0x13490b
 46a:	1d00                	addi	s0,sp,688
 46c:	0e030013          	addi	zero,t1,224
 470:	193c                	addi	a5,sp,184
 472:	0000                	unimp
 474:	151e                	slli	a0,a0,0x27
 476:	2701                	jal	b76 <putchar+0x6e>
 478:	0119                	addi	sp,sp,6
 47a:	1f000013          	li	zero,496
 47e:	0034                	addi	a3,sp,8
 480:	0b3a0e03          	lb	t3,179(s4)
 484:	0b39053b          	0xb39053b
 488:	1349                	addi	t1,t1,-14
 48a:	193c193f 21200000 	0x21200000193c193f
 492:	0000                	unimp
 494:	2100                	fld	fs0,0(a0)
 496:	0034                	addi	a3,sp,8
 498:	0b3a0e03          	lb	t3,179(s4)
 49c:	0b390b3b          	0xb390b3b
 4a0:	1349                	addi	t1,t1,-14
 4a2:	193c193f 26220000 	0x26220000193c193f
 4aa:	0000                	unimp
 4ac:	2300                	fld	fs0,0(a4)
 4ae:	0104                	addi	s1,sp,128
 4b0:	0b3e0e03          	lb	t3,179(t3) # 30b3 <impure_data+0x103>
 4b4:	13490b0b          	0x13490b0b
 4b8:	0b3a                	slli	s6,s6,0xe
 4ba:	0b390b3b          	0xb390b3b
 4be:	1301                	addi	t1,t1,-32
 4c0:	0000                	unimp
 4c2:	2824                	fld	fs1,80(s0)
 4c4:	0300                	addi	s0,sp,384
 4c6:	1c0e                	slli	s8,s8,0x23
 4c8:	2500000b          	0x2500000b
 4cc:	000d                	c.nop	3
 4ce:	0b3a0803          	lb	a6,179(s4)
 4d2:	0b39053b          	0xb39053b
 4d6:	1349                	addi	t1,t1,-14
 4d8:	0b38                	addi	a4,sp,408
 4da:	0000                	unimp
 4dc:	0d26                	slli	s10,s10,0x9
 4de:	0300                	addi	s0,sp,384
 4e0:	3a08                	fld	fa0,48(a2)
 4e2:	39053b0b          	0x39053b0b
 4e6:	0013490b          	0x13490b
 4ea:	2700                	fld	fs0,8(a4)
 4ec:	012e                	slli	sp,sp,0xb
 4ee:	0e03193f 053b0b3a 	0x53b0b3a0e03193f
 4f6:	0b39                	addi	s6,s6,14
 4f8:	13491927          	0x13491927
 4fc:	0111                	addi	sp,sp,4
 4fe:	0612                	slli	a2,a2,0x4
 500:	1840                	addi	s0,sp,52
 502:	01194297          	auipc	t0,0x1194
 506:	28000013          	li	zero,640
 50a:	0005                	c.nop	1
 50c:	0b3a0803          	lb	a6,179(s4)
 510:	0b39053b          	0xb39053b
 514:	1349                	addi	t1,t1,-14
 516:	1702                	slli	a4,a4,0x20
 518:	0000                	unimp
 51a:	1d29                	addi	s10,s10,-22
 51c:	3101                	jal	11c <SIM_STOP+0x24>
 51e:	55015213          	0x55015213
 522:	590b5817          	auipc	a6,0x590b5
 526:	5705                	li	a4,-31
 528:	2a00000b          	0x2a00000b
 52c:	0005                	c.nop	1
 52e:	1331                	addi	t1,t1,-20
 530:	1702                	slli	a4,a4,0x20
 532:	0000                	unimp
 534:	55010b2b          	0x55010b2b
 538:	2c000017          	auipc	zero,0x2c000
 53c:	0034                	addi	a3,sp,8
 53e:	1331                	addi	t1,t1,-20
 540:	0000                	unimp
 542:	342d                	jal	ffffff6c <__C_STACK_TOP__+0xfffeff6c>
 544:	3100                	fld	fs0,32(a0)
 546:	00170213          	addi	tp,a4,1
 54a:	2e00                	fld	fs0,24(a2)
 54c:	1331010b          	0x1331010b
 550:	1755                	addi	a4,a4,-11
 552:	1301                	addi	t1,t1,-32
 554:	0000                	unimp
 556:	31010b2f          	0x31010b2f
 55a:	12011113          	0x12011113
 55e:	0106                	slli	sp,sp,0x1
 560:	30000013          	li	zero,768
 564:	1331010b          	0x1331010b
 568:	1755                	addi	a4,a4,-11
 56a:	0000                	unimp
 56c:	2e31                	jal	888 <vprintfmt.constprop.0+0x462>
 56e:	0301                	addi	t1,t1,0
 570:	3a0e                	fld	fs4,224(sp)
 572:	39053b0b          	0x39053b0b
 576:	4919270b          	0x4919270b
 57a:	010b2013          	slti	zero,s6,16
 57e:	32000013          	li	zero,800
 582:	0005                	c.nop	1
 584:	0b3a0803          	lb	a6,179(s4)
 588:	0b39053b          	0xb39053b
 58c:	1349                	addi	t1,t1,-14
 58e:	0000                	unimp
 590:	03003433          	mulhu	s0,zero,a6
 594:	3a08                	fld	fa0,48(a2)
 596:	39053b0b          	0x39053b0b
 59a:	0013490b          	0x13490b
 59e:	3400                	fld	fs0,40(s0)
 5a0:	1301010b          	0x1301010b
 5a4:	0000                	unimp
 5a6:	3435                	jal	ffffffd2 <__C_STACK_TOP__+0xfffeffd2>
 5a8:	0300                	addi	s0,sp,384
 5aa:	3a0e                	fld	fs4,224(sp)
 5ac:	39053b0b          	0x39053b0b
 5b0:	0013490b          	0x13490b
 5b4:	3600                	fld	fs0,40(a2)
 5b6:	0000010b          	0x10b
 5ba:	0100                	addi	s0,sp,128
 5bc:	0111                	addi	sp,sp,4
 5be:	0e25                	addi	t3,t3,9
 5c0:	0e030b13          	addi	s6,t1,224
 5c4:	01110e1b          	0x1110e1b
 5c8:	0612                	slli	a2,a2,0x4
 5ca:	1710                	addi	a2,sp,928
 5cc:	0000                	unimp
 5ce:	2402                	fld	fs0,0(sp)
 5d0:	0b00                	addi	s0,sp,400
 5d2:	030b3e0b          	0x30b3e0b
 5d6:	000e                	c.slli	zero,0x3
 5d8:	0300                	addi	s0,sp,384
 5da:	0024                	addi	s1,sp,8
 5dc:	0b3e0b0b          	0xb3e0b0b
 5e0:	00000803          	lb	a6,0(zero) # 0 <buf.1936>
 5e4:	1604                	addi	s1,sp,800
 5e6:	0300                	addi	s0,sp,384
 5e8:	3a0e                	fld	fs4,224(sp)
 5ea:	390b3b0b          	0x390b3b0b
 5ee:	0013490b          	0x13490b
 5f2:	0500                	addi	s0,sp,640
 5f4:	0016                	c.slli	zero,0x5
 5f6:	0b3a0e03          	lb	t3,179(s4)
 5fa:	0b39053b          	0xb39053b
 5fe:	1349                	addi	t1,t1,-14
 600:	0000                	unimp
 602:	1706                	slli	a4,a4,0x21
 604:	0b01                	addi	s6,s6,0
 606:	3b0b3a0b          	0x3b0b3a0b
 60a:	010b390b          	0x10b390b
 60e:	07000013          	li	zero,112
 612:	000d                	c.nop	3
 614:	0b3a0e03          	lb	t3,179(s4)
 618:	0b390b3b          	0xb390b3b
 61c:	1349                	addi	t1,t1,-14
 61e:	0000                	unimp
 620:	0108                	addi	a0,sp,128
 622:	4901                	li	s2,0
 624:	00130113          	addi	sp,t1,1
 628:	0900                	addi	s0,sp,144
 62a:	0021                	c.nop	8
 62c:	1349                	addi	t1,t1,-14
 62e:	00000b2f          	0xb2f
 632:	130a                	slli	t1,t1,0x22
 634:	0b01                	addi	s6,s6,0
 636:	3b0b3a0b          	0x3b0b3a0b
 63a:	010b390b          	0x10b390b
 63e:	0b000013          	li	zero,176
 642:	000d                	c.nop	3
 644:	0b3a0e03          	lb	t3,179(s4)
 648:	0b390b3b          	0xb390b3b
 64c:	1349                	addi	t1,t1,-14
 64e:	0b38                	addi	a4,sp,408
 650:	0000                	unimp
 652:	0f0c                	addi	a1,sp,912
 654:	0b00                	addi	s0,sp,400
 656:	0d00000b          	0xd00000b
 65a:	0e030113          	addi	sp,t1,224
 65e:	0b3a0b0b          	0xb3a0b0b
 662:	0b390b3b          	0xb390b3b
 666:	1301                	addi	t1,t1,-32
 668:	0000                	unimp
 66a:	0d0e                	slli	s10,s10,0x3
 66c:	0300                	addi	s0,sp,384
 66e:	3a08                	fld	fa0,48(a2)
 670:	390b3b0b          	0x390b3b0b
 674:	3813490b          	0x3813490b
 678:	0f00000b          	0xf00000b
 67c:	0b0b000f          	0xb0b000f
 680:	1349                	addi	t1,t1,-14
 682:	0000                	unimp
 684:	1310                	addi	a2,sp,416
 686:	0301                	addi	t1,t1,0
 688:	0b0e                	slli	s6,s6,0x3
 68a:	3a05                	jal	ffffffba <__C_STACK_TOP__+0xfffeffba>
 68c:	390b3b0b          	0x390b3b0b
 690:	0013010b          	0x13010b
 694:	1100                	addi	s0,sp,160
 696:	000d                	c.nop	3
 698:	0b3a0e03          	lb	t3,179(s4)
 69c:	0b390b3b          	0xb390b3b
 6a0:	1349                	addi	t1,t1,-14
 6a2:	0538                	addi	a4,sp,648
 6a4:	0000                	unimp
 6a6:	1512                	slli	a0,a0,0x24
 6a8:	2700                	fld	fs0,8(a4)
 6aa:	0019                	c.nop	6
 6ac:	1300                	addi	s0,sp,416
 6ae:	0115                	addi	sp,sp,5
 6b0:	13491927          	0x13491927
 6b4:	1301                	addi	t1,t1,-32
 6b6:	0000                	unimp
 6b8:	0514                	addi	a3,sp,640
 6ba:	4900                	lw	s0,16(a0)
 6bc:	15000013          	li	zero,336
 6c0:	0026                	c.slli	zero,0x9
 6c2:	1349                	addi	t1,t1,-14
 6c4:	0000                	unimp
 6c6:	1316                	slli	t1,t1,0x25
 6c8:	0301                	addi	t1,t1,0
 6ca:	0b0e                	slli	s6,s6,0x3
 6cc:	3a05                	jal	fffffffc <__C_STACK_TOP__+0xfffefffc>
 6ce:	39053b0b          	0x39053b0b
 6d2:	0013010b          	0x13010b
 6d6:	1700                	addi	s0,sp,928
 6d8:	000d                	c.nop	3
 6da:	0b3a0e03          	lb	t3,179(s4)
 6de:	0b39053b          	0xb39053b
 6e2:	1349                	addi	t1,t1,-14
 6e4:	0b38                	addi	a4,sp,408
 6e6:	0000                	unimp
 6e8:	0d18                	addi	a4,sp,656
 6ea:	0300                	addi	s0,sp,384
 6ec:	3a0e                	fld	fs4,224(sp)
 6ee:	39053b0b          	0x39053b0b
 6f2:	3813490b          	0x3813490b
 6f6:	0005                	c.nop	1
 6f8:	1900                	addi	s0,sp,176
 6fa:	0e030113          	addi	sp,t1,224
 6fe:	0b3a0b0b          	0xb3a0b0b
 702:	0b39053b          	0xb39053b
 706:	1301                	addi	t1,t1,-32
 708:	0000                	unimp
 70a:	131a                	slli	t1,t1,0x26
 70c:	0b01                	addi	s6,s6,0
 70e:	3b0b3a0b          	0x3b0b3a0b
 712:	3905                	jal	342 <printf_putch+0x44>
 714:	0013010b          	0x13010b
 718:	1b00                	addi	s0,sp,432
 71a:	0b0b0117          	auipc	sp,0xb0b0
 71e:	0b3a                	slli	s6,s6,0xe
 720:	0b39053b          	0xb39053b
 724:	1301                	addi	t1,t1,-32
 726:	0000                	unimp
 728:	0d1c                	addi	a5,sp,656
 72a:	0300                	addi	s0,sp,384
 72c:	3a0e                	fld	fs4,224(sp)
 72e:	39053b0b          	0x39053b0b
 732:	0013490b          	0x13490b
 736:	1d00                	addi	s0,sp,688
 738:	0e030013          	addi	zero,t1,224
 73c:	193c                	addi	a5,sp,184
 73e:	0000                	unimp
 740:	151e                	slli	a0,a0,0x27
 742:	2701                	jal	e42 <main+0x1d2>
 744:	0119                	addi	sp,sp,6
 746:	1f000013          	li	zero,496
 74a:	0034                	addi	a3,sp,8
 74c:	0b3a0e03          	lb	t3,179(s4)
 750:	0b39053b          	0xb39053b
 754:	1349                	addi	t1,t1,-14
 756:	193c193f 21200000 	0x21200000193c193f
 75e:	0000                	unimp
 760:	2100                	fld	fs0,0(a0)
 762:	0034                	addi	a3,sp,8
 764:	0b3a0e03          	lb	t3,179(s4)
 768:	0b390b3b          	0xb390b3b
 76c:	1349                	addi	t1,t1,-14
 76e:	193c193f 26220000 	0x26220000193c193f
 776:	0000                	unimp
 778:	2300                	fld	fs0,0(a4)
 77a:	0104                	addi	s1,sp,128
 77c:	0b3e0e03          	lb	t3,179(t3)
 780:	13490b0b          	0x13490b0b
 784:	0b3a                	slli	s6,s6,0xe
 786:	0b390b3b          	0xb390b3b
 78a:	1301                	addi	t1,t1,-32
 78c:	0000                	unimp
 78e:	2824                	fld	fs1,80(s0)
 790:	0300                	addi	s0,sp,384
 792:	1c0e                	slli	s8,s8,0x23
 794:	2500000b          	0x2500000b
 798:	000d                	c.nop	3
 79a:	0b3a0803          	lb	a6,179(s4)
 79e:	0b39053b          	0xb39053b
 7a2:	1349                	addi	t1,t1,-14
 7a4:	0b38                	addi	a4,sp,408
 7a6:	0000                	unimp
 7a8:	0d26                	slli	s10,s10,0x9
 7aa:	0300                	addi	s0,sp,384
 7ac:	3a08                	fld	fa0,48(a2)
 7ae:	39053b0b          	0x39053b0b
 7b2:	0013490b          	0x13490b
 7b6:	2700                	fld	fs0,8(a4)
 7b8:	012e                	slli	sp,sp,0xb
 7ba:	0e03193f 053b0b3a 	0x53b0b3a0e03193f
 7c2:	0b39                	addi	s6,s6,14
 7c4:	13491927          	0x13491927
 7c8:	0111                	addi	sp,sp,4
 7ca:	0612                	slli	a2,a2,0x4
 7cc:	1840                	addi	s0,sp,52
 7ce:	01194297          	auipc	t0,0x1194
 7d2:	28000013          	li	zero,640
 7d6:	0005                	c.nop	1
 7d8:	0b3a0803          	lb	a6,179(s4)
 7dc:	0b39053b          	0xb39053b
 7e0:	1349                	addi	t1,t1,-14
 7e2:	1702                	slli	a4,a4,0x20
 7e4:	0000                	unimp
 7e6:	3429                	jal	1f0 <machine_trap_entry+0x30>
 7e8:	0300                	addi	s0,sp,384
 7ea:	3a08                	fld	fa0,48(a2)
 7ec:	39053b0b          	0x39053b0b
 7f0:	0213490b          	0x213490b
 7f4:	2a000017          	auipc	zero,0x2a000
 7f8:	011d                	addi	sp,sp,7
 7fa:	1331                	addi	t1,t1,-20
 7fc:	0152                	slli	sp,sp,0x14
 7fe:	1755                	addi	a4,a4,-11
 800:	0b58                	addi	a4,sp,404
 802:	0559                	addi	a0,a0,22
 804:	00000b57          	0xb57
 808:	3100052b          	0x3100052b
 80c:	00170213          	addi	tp,a4,1
 810:	2c00                	fld	fs0,24(s0)
 812:	1755010b          	0x1755010b
 816:	0000                	unimp
 818:	342d                	jal	242 <_start+0x42>
 81a:	3100                	fld	fs0,32(a0)
 81c:	2e000013          	li	zero,736
 820:	0034                	addi	a3,sp,8
 822:	1331                	addi	t1,t1,-20
 824:	1702                	slli	a4,a4,0x20
 826:	0000                	unimp
 828:	31010b2f          	0x31010b2f
 82c:	01175513          	srli	a0,a4,0x11
 830:	30000013          	li	zero,768
 834:	1331010b          	0x1331010b
 838:	0111                	addi	sp,sp,4
 83a:	0612                	slli	a2,a2,0x4
 83c:	1301                	addi	t1,t1,-32
 83e:	0000                	unimp
 840:	0b31                	addi	s6,s6,12
 842:	3101                	jal	442 <vprintfmt.constprop.0+0x1c>
 844:	12011113          	0x12011113
 848:	0006                	c.slli	zero,0x1
 84a:	3200                	fld	fs0,32(a2)
 84c:	0034                	addi	a3,sp,8
 84e:	1331                	addi	t1,t1,-20
 850:	1802                	slli	a6,a6,0x20
 852:	0000                	unimp
 854:	03012e33          	mulhsu	t3,sp,a6
 858:	3a0e                	fld	fs4,224(sp)
 85a:	39053b0b          	0x39053b0b
 85e:	4919270b          	0x4919270b
 862:	010b2013          	slti	zero,s6,16
 866:	34000013          	li	zero,832
 86a:	0005                	c.nop	1
 86c:	0b3a0803          	lb	a6,179(s4)
 870:	0b39053b          	0xb39053b
 874:	1349                	addi	t1,t1,-14
 876:	0000                	unimp
 878:	3435                	jal	2a4 <trap_entry+0x42>
 87a:	0300                	addi	s0,sp,384
 87c:	3a08                	fld	fa0,48(a2)
 87e:	39053b0b          	0x39053b0b
 882:	0013490b          	0x13490b
 886:	3600                	fld	fs0,40(a2)
 888:	1301010b          	0x1301010b
 88c:	0000                	unimp
 88e:	03003437          	lui	s0,0x3003
 892:	3a0e                	fld	fs4,224(sp)
 894:	39053b0b          	0x39053b0b
 898:	0013490b          	0x13490b
 89c:	3800                	fld	fs0,48(s0)
 89e:	0000010b          	0x10b
 8a2:	0100                	addi	s0,sp,128
 8a4:	0111                	addi	sp,sp,4
 8a6:	0e25                	addi	t3,t3,9
 8a8:	0e030b13          	addi	s6,t1,224
 8ac:	17100e1b          	0x17100e1b
 8b0:	0000                	unimp
 8b2:	2402                	fld	fs0,0(sp)
 8b4:	0b00                	addi	s0,sp,400
 8b6:	030b3e0b          	0x30b3e0b
 8ba:	0008                	0x8
 8bc:	0300                	addi	s0,sp,384
 8be:	0024                	addi	s1,sp,8
 8c0:	0b3e0b0b          	0xb3e0b0b
 8c4:	00000e03          	lb	t3,0(zero) # 0 <buf.1936>
 8c8:	1604                	addi	s1,sp,800
 8ca:	0300                	addi	s0,sp,384
 8cc:	3a0e                	fld	fs4,224(sp)
 8ce:	390b3b0b          	0x390b3b0b
 8d2:	0013490b          	0x13490b
 8d6:	0500                	addi	s0,sp,640
 8d8:	0016                	c.slli	zero,0x5
 8da:	0b3a0e03          	lb	t3,179(s4)
 8de:	0b39053b          	0xb39053b
 8e2:	1349                	addi	t1,t1,-14
 8e4:	0000                	unimp
 8e6:	1706                	slli	a4,a4,0x21
 8e8:	0b01                	addi	s6,s6,0
 8ea:	3b0b3a0b          	0x3b0b3a0b
 8ee:	010b390b          	0x10b390b
 8f2:	07000013          	li	zero,112
 8f6:	000d                	c.nop	3
 8f8:	0b3a0e03          	lb	t3,179(s4)
 8fc:	0b390b3b          	0xb390b3b
 900:	1349                	addi	t1,t1,-14
 902:	0000                	unimp
 904:	0108                	addi	a0,sp,128
 906:	4901                	li	s2,0
 908:	00130113          	addi	sp,t1,1
 90c:	0900                	addi	s0,sp,144
 90e:	0021                	c.nop	8
 910:	1349                	addi	t1,t1,-14
 912:	00000b2f          	0xb2f
 916:	130a                	slli	t1,t1,0x22
 918:	0b01                	addi	s6,s6,0
 91a:	3b0b3a0b          	0x3b0b3a0b
 91e:	010b390b          	0x10b390b
 922:	0b000013          	li	zero,176
 926:	000d                	c.nop	3
 928:	0b3a0e03          	lb	t3,179(s4)
 92c:	0b390b3b          	0xb390b3b
 930:	1349                	addi	t1,t1,-14
 932:	0b38                	addi	a4,sp,408
 934:	0000                	unimp
 936:	0f0c                	addi	a1,sp,912
 938:	0b00                	addi	s0,sp,400
 93a:	0d00000b          	0xd00000b
 93e:	0e030113          	addi	sp,t1,224
 942:	0b3a0b0b          	0xb3a0b0b
 946:	0b390b3b          	0xb390b3b
 94a:	1301                	addi	t1,t1,-32
 94c:	0000                	unimp
 94e:	0d0e                	slli	s10,s10,0x3
 950:	0300                	addi	s0,sp,384
 952:	3a08                	fld	fa0,48(a2)
 954:	390b3b0b          	0x390b3b0b
 958:	3813490b          	0x3813490b
 95c:	0f00000b          	0xf00000b
 960:	0b0b000f          	0xb0b000f
 964:	1349                	addi	t1,t1,-14
 966:	0000                	unimp
 968:	1310                	addi	a2,sp,416
 96a:	0301                	addi	t1,t1,0
 96c:	0b0e                	slli	s6,s6,0x3
 96e:	3a05                	jal	29e <trap_entry+0x3c>
 970:	390b3b0b          	0x390b3b0b
 974:	0013010b          	0x13010b
 978:	1100                	addi	s0,sp,160
 97a:	000d                	c.nop	3
 97c:	0b3a0e03          	lb	t3,179(s4)
 980:	0b390b3b          	0xb390b3b
 984:	1349                	addi	t1,t1,-14
 986:	0538                	addi	a4,sp,648
 988:	0000                	unimp
 98a:	1512                	slli	a0,a0,0x24
 98c:	2700                	fld	fs0,8(a4)
 98e:	0019                	c.nop	6
 990:	1300                	addi	s0,sp,416
 992:	0115                	addi	sp,sp,5
 994:	13491927          	0x13491927
 998:	1301                	addi	t1,t1,-32
 99a:	0000                	unimp
 99c:	0514                	addi	a3,sp,640
 99e:	4900                	lw	s0,16(a0)
 9a0:	15000013          	li	zero,336
 9a4:	0026                	c.slli	zero,0x9
 9a6:	1349                	addi	t1,t1,-14
 9a8:	0000                	unimp
 9aa:	1316                	slli	t1,t1,0x25
 9ac:	0301                	addi	t1,t1,0
 9ae:	0b0e                	slli	s6,s6,0x3
 9b0:	3a05                	jal	2e0 <trap_entry+0x7e>
 9b2:	39053b0b          	0x39053b0b
 9b6:	0013010b          	0x13010b
 9ba:	1700                	addi	s0,sp,928
 9bc:	000d                	c.nop	3
 9be:	0b3a0e03          	lb	t3,179(s4)
 9c2:	0b39053b          	0xb39053b
 9c6:	1349                	addi	t1,t1,-14
 9c8:	0b38                	addi	a4,sp,408
 9ca:	0000                	unimp
 9cc:	0d18                	addi	a4,sp,656
 9ce:	0300                	addi	s0,sp,384
 9d0:	3a0e                	fld	fs4,224(sp)
 9d2:	39053b0b          	0x39053b0b
 9d6:	3813490b          	0x3813490b
 9da:	0005                	c.nop	1
 9dc:	1900                	addi	s0,sp,176
 9de:	0e030113          	addi	sp,t1,224
 9e2:	0b3a0b0b          	0xb3a0b0b
 9e6:	0b39053b          	0xb39053b
 9ea:	1301                	addi	t1,t1,-32
 9ec:	0000                	unimp
 9ee:	131a                	slli	t1,t1,0x26
 9f0:	0b01                	addi	s6,s6,0
 9f2:	3b0b3a0b          	0x3b0b3a0b
 9f6:	3905                	jal	626 <vprintfmt.constprop.0+0x200>
 9f8:	0013010b          	0x13010b
 9fc:	1b00                	addi	s0,sp,432
 9fe:	0b0b0117          	auipc	sp,0xb0b0
 a02:	0b3a                	slli	s6,s6,0xe
 a04:	0b39053b          	0xb39053b
 a08:	1301                	addi	t1,t1,-32
 a0a:	0000                	unimp
 a0c:	0d1c                	addi	a5,sp,656
 a0e:	0300                	addi	s0,sp,384
 a10:	3a0e                	fld	fs4,224(sp)
 a12:	39053b0b          	0x39053b0b
 a16:	0013490b          	0x13490b
 a1a:	1d00                	addi	s0,sp,688
 a1c:	0e030013          	addi	zero,t1,224
 a20:	193c                	addi	a5,sp,184
 a22:	0000                	unimp
 a24:	151e                	slli	a0,a0,0x27
 a26:	2701                	jal	1126 <main+0x4b6>
 a28:	0119                	addi	sp,sp,6
 a2a:	1f000013          	li	zero,496
 a2e:	0034                	addi	a3,sp,8
 a30:	0b3a0e03          	lb	t3,179(s4)
 a34:	0b39053b          	0xb39053b
 a38:	1349                	addi	t1,t1,-14
 a3a:	193c193f 21200000 	0x21200000193c193f
 a42:	0000                	unimp
 a44:	2100                	fld	fs0,0(a0)
 a46:	0034                	addi	a3,sp,8
 a48:	0b3a0e03          	lb	t3,179(s4)
 a4c:	0b390b3b          	0xb390b3b
 a50:	1349                	addi	t1,t1,-14
 a52:	193c193f 26220000 	0x26220000193c193f
 a5a:	0000                	unimp
 a5c:	2300                	fld	fs0,0(a4)
 a5e:	0104                	addi	s1,sp,128
 a60:	0b3e0e03          	lb	t3,179(t3)
 a64:	13490b0b          	0x13490b0b
 a68:	0b3a                	slli	s6,s6,0xe
 a6a:	0b390b3b          	0xb390b3b
 a6e:	1301                	addi	t1,t1,-32
 a70:	0000                	unimp
 a72:	2824                	fld	fs1,80(s0)
 a74:	0300                	addi	s0,sp,384
 a76:	1c0e                	slli	s8,s8,0x23
 a78:	2500000b          	0x2500000b
 a7c:	0034                	addi	a3,sp,8
 a7e:	0b3a1347          	fmsub.d	ft6,fs4,fs3,ft1,rtz
 a82:	0b39053b          	0xb39053b
 a86:	1802                	slli	a6,a6,0x20
 a88:	0000                	unimp
	...

Disassembly of section .debug_loc:

00000000 <.debug_loc>:
       0:	0000                	unimp
       2:	0000                	unimp
       4:	000c                	0xc
       6:	0000                	unimp
       8:	0006                	c.slli	zero,0x1
       a:	935a                	add	t1,t1,s6
       c:	5b04                	lw	s1,48(a4)
       e:	000c0493          	mv	s1,s8
      12:	0000                	unimp
      14:	0458                	addi	a4,sp,516
      16:	0000                	unimp
      18:	0006                	c.slli	zero,0x1
      1a:	0af503f3          	0xaf503f3
      1e:	9f2c                	0x9f2c
	...
      2c:	0024                	addi	s1,sp,8
      2e:	0000                	unimp
      30:	0006                	c.slli	zero,0x1
      32:	935c                	0x935c
      34:	5d04                	lw	s1,56(a0)
      36:	00240493          	addi	s1,s0,2 # 3003002 <__C_STACK_TOP__+0x2ff3002>
      3a:	0000                	unimp
      3c:	0458                	addi	a4,sp,516
      3e:	0000                	unimp
      40:	0006                	c.slli	zero,0x1
      42:	0cf503f3          	0xcf503f3
      46:	9f2c                	0x9f2c
	...
      54:	0008                	0x8
      56:	0000                	unimp
      58:	0002                	c.slli64	zero
      5a:	9f30                	0x9f30
      5c:	0008                	0x8
      5e:	0000                	unimp
      60:	001c                	0x1c
      62:	0000                	unimp
      64:	ff090003          	lb	zero,-16(s2) # ff0 <main+0x380>
      68:	1c9f 0000 5800      	0x580000001c9f
      6e:	0004                	0x4
      70:	0100                	addi	s0,sp,128
      72:	6100                	flw	fs0,0(a0)
	...
      80:	000c                	0xc
      82:	0000                	unimp
      84:	0006                	c.slli	zero,0x1
      86:	935a                	add	t1,t1,s6
      88:	5b04                	lw	s1,48(a4)
      8a:	00180493          	addi	s1,a6,1 # 590b5523 <__C_STACK_TOP__+0x590a5523>
      8e:	0000                	unimp
      90:	001c                	0x1c
      92:	0000                	unimp
      94:	0006                	c.slli	zero,0x1
      96:	935a                	add	t1,t1,s6
      98:	5b04                	lw	s1,48(a4)
      9a:	00000493          	li	s1,0
	...
      a6:	0000                	unimp
      a8:	0024                	addi	s1,sp,8
      aa:	0000                	unimp
      ac:	0006                	c.slli	zero,0x1
      ae:	935c                	0x935c
      b0:	5d04                	lw	s1,56(a0)
      b2:	00300493          	li	s1,3
      b6:	0000                	unimp
      b8:	0044                	addi	s1,sp,4
      ba:	0000                	unimp
      bc:	0006                	c.slli	zero,0x1
      be:	935c                	0x935c
      c0:	5d04                	lw	s1,56(a0)
      c2:	00440493          	addi	s1,s0,4
      c6:	0000                	unimp
      c8:	0048                	addi	a0,sp,4
      ca:	0000                	unimp
      cc:	0006                	c.slli	zero,0x1
      ce:	9356                	add	t1,t1,s5
      d0:	5d04                	lw	s1,56(a0)
      d2:	00480493          	addi	s1,a6,4
      d6:	0000                	unimp
      d8:	0064                	addi	s1,sp,12
      da:	0000                	unimp
      dc:	0006                	c.slli	zero,0x1
      de:	9356                	add	t1,t1,s5
      e0:	5e04                	lw	s1,56(a2)
      e2:	01280493          	addi	s1,a6,18
      e6:	0000                	unimp
      e8:	0130                	addi	a2,sp,136
      ea:	0000                	unimp
      ec:	0006                	c.slli	zero,0x1
      ee:	9356                	add	t1,t1,s5
      f0:	5e04                	lw	s1,56(a2)
      f2:	013c0493          	addi	s1,s8,19
      f6:	0000                	unimp
      f8:	0144                	addi	s1,sp,132
      fa:	0000                	unimp
      fc:	0006                	c.slli	zero,0x1
      fe:	9356                	add	t1,t1,s5
     100:	5e04                	lw	s1,56(a2)
     102:	01440493          	addi	s1,s0,20
     106:	0000                	unimp
     108:	014c                	addi	a1,sp,132
     10a:	0000                	unimp
     10c:	0006                	c.slli	zero,0x1
     10e:	935c                	0x935c
     110:	5e04                	lw	s1,56(a2)
     112:	02900493          	li	s1,41
     116:	0000                	unimp
     118:	02a8                	addi	a0,sp,328
     11a:	0000                	unimp
     11c:	0006                	c.slli	zero,0x1
     11e:	9356                	add	t1,t1,s5
     120:	5d04                	lw	s1,56(a0)
     122:	02a80493          	addi	s1,a6,42
     126:	0000                	unimp
     128:	02dc                	addi	a5,sp,324
     12a:	0000                	unimp
     12c:	0006                	c.slli	zero,0x1
     12e:	935c                	0x935c
     130:	5d04                	lw	s1,56(a0)
     132:	02f00493          	li	s1,47
     136:	0000                	unimp
     138:	02f4                	addi	a3,sp,332
     13a:	0000                	unimp
     13c:	0006                	c.slli	zero,0x1
     13e:	9356                	add	t1,t1,s5
     140:	5d04                	lw	s1,56(a0)
     142:	02f40493          	addi	s1,s0,47
     146:	0000                	unimp
     148:	030c                	addi	a1,sp,384
     14a:	0000                	unimp
     14c:	0006                	c.slli	zero,0x1
     14e:	935c                	0x935c
     150:	5d04                	lw	s1,56(a0)
     152:	00000493          	li	s1,0
     156:	0000                	unimp
     158:	0000                	unimp
     15a:	0000                	unimp
     15c:	010c                	addi	a1,sp,128
     15e:	0000                	unimp
     160:	011c                	addi	a5,sp,128
     162:	0000                	unimp
     164:	0006                	c.slli	zero,0x1
     166:	935a                	add	t1,t1,s6
     168:	5b04                	lw	s1,48(a4)
     16a:	02ec0493          	addi	s1,s8,46
     16e:	0000                	unimp
     170:	02f0                	addi	a2,sp,332
     172:	0000                	unimp
     174:	0006                	c.slli	zero,0x1
     176:	935f 6004 0493      	0x4936004935f
     17c:	0454                	addi	a3,sp,516
     17e:	0000                	unimp
     180:	0458                	addi	a4,sp,516
     182:	0000                	unimp
     184:	0006                	c.slli	zero,0x1
     186:	935a                	add	t1,t1,s6
     188:	5b04                	lw	s1,48(a4)
     18a:	00000493          	li	s1,0
     18e:	0000                	unimp
     190:	0000                	unimp
     192:	0000                	unimp
     194:	0030                	addi	a2,sp,8
     196:	0000                	unimp
     198:	010c                	addi	a1,sp,128
     19a:	0000                	unimp
     19c:	0006                	c.slli	zero,0x1
     19e:	2ef2                	fld	ft9,280(sp)
     1a0:	000c                	0xc
     1a2:	0000                	unimp
     1a4:	0128                	addi	a0,sp,136
     1a6:	0000                	unimp
     1a8:	0458                	addi	a4,sp,516
     1aa:	0000                	unimp
     1ac:	0006                	c.slli	zero,0x1
     1ae:	2ef2                	fld	ft9,280(sp)
     1b0:	000c                	0xc
	...
     1ba:	0000                	unimp
     1bc:	0030                	addi	a2,sp,8
     1be:	0000                	unimp
     1c0:	0044                	addi	s1,sp,4
     1c2:	0000                	unimp
     1c4:	0006                	c.slli	zero,0x1
     1c6:	935c                	0x935c
     1c8:	5d04                	lw	s1,56(a0)
     1ca:	00440493          	addi	s1,s0,4
     1ce:	0000                	unimp
     1d0:	0048                	addi	a0,sp,4
     1d2:	0000                	unimp
     1d4:	0006                	c.slli	zero,0x1
     1d6:	9356                	add	t1,t1,s5
     1d8:	5d04                	lw	s1,56(a0)
     1da:	00480493          	addi	s1,a6,4
     1de:	0000                	unimp
     1e0:	0064                	addi	s1,sp,12
     1e2:	0000                	unimp
     1e4:	0006                	c.slli	zero,0x1
     1e6:	9356                	add	t1,t1,s5
     1e8:	5e04                	lw	s1,56(a2)
     1ea:	01280493          	addi	s1,a6,18
     1ee:	0000                	unimp
     1f0:	0130                	addi	a2,sp,136
     1f2:	0000                	unimp
     1f4:	0006                	c.slli	zero,0x1
     1f6:	9356                	add	t1,t1,s5
     1f8:	5e04                	lw	s1,56(a2)
     1fa:	013c0493          	addi	s1,s8,19
     1fe:	0000                	unimp
     200:	0144                	addi	s1,sp,132
     202:	0000                	unimp
     204:	0006                	c.slli	zero,0x1
     206:	9356                	add	t1,t1,s5
     208:	5e04                	lw	s1,56(a2)
     20a:	01440493          	addi	s1,s0,20
     20e:	0000                	unimp
     210:	014c                	addi	a1,sp,132
     212:	0000                	unimp
     214:	0006                	c.slli	zero,0x1
     216:	935c                	0x935c
     218:	5e04                	lw	s1,56(a2)
     21a:	02900493          	li	s1,41
     21e:	0000                	unimp
     220:	02a8                	addi	a0,sp,328
     222:	0000                	unimp
     224:	0006                	c.slli	zero,0x1
     226:	9356                	add	t1,t1,s5
     228:	5d04                	lw	s1,56(a0)
     22a:	02a80493          	addi	s1,a6,42
     22e:	0000                	unimp
     230:	02dc                	addi	a5,sp,324
     232:	0000                	unimp
     234:	0006                	c.slli	zero,0x1
     236:	935c                	0x935c
     238:	5d04                	lw	s1,56(a0)
     23a:	02f00493          	li	s1,47
     23e:	0000                	unimp
     240:	02f4                	addi	a3,sp,332
     242:	0000                	unimp
     244:	0006                	c.slli	zero,0x1
     246:	9356                	add	t1,t1,s5
     248:	5d04                	lw	s1,56(a0)
     24a:	02f40493          	addi	s1,s0,47
     24e:	0000                	unimp
     250:	030c                	addi	a1,sp,384
     252:	0000                	unimp
     254:	0006                	c.slli	zero,0x1
     256:	935c                	0x935c
     258:	5d04                	lw	s1,56(a0)
     25a:	00000493          	li	s1,0
     25e:	0000                	unimp
     260:	0000                	unimp
     262:	0000                	unimp
     264:	0034                	addi	a3,sp,8
     266:	0000                	unimp
     268:	0044                	addi	s1,sp,4
     26a:	0000                	unimp
     26c:	0001                	nop
     26e:	445c                	lw	a5,12(s0)
     270:	0000                	unimp
     272:	0c00                	addi	s0,sp,528
     274:	0001                	nop
     276:	0100                	addi	s0,sp,128
     278:	5600                	lw	s0,40(a2)
     27a:	0128                	addi	a0,sp,136
     27c:	0000                	unimp
     27e:	0144                	addi	s1,sp,132
     280:	0000                	unimp
     282:	0001                	nop
     284:	4456                	lw	s0,84(sp)
     286:	0001                	nop
     288:	4800                	lw	s0,16(s0)
     28a:	0001                	nop
     28c:	0100                	addi	s0,sp,128
     28e:	5c00                	lw	s0,56(s0)
     290:	0148                	addi	a0,sp,132
     292:	0000                	unimp
     294:	02a8                	addi	a0,sp,328
     296:	0000                	unimp
     298:	0001                	nop
     29a:	a856                	fsd	fs5,16(sp)
     29c:	0002                	c.slli64	zero
     29e:	f000                	fsw	fs0,32(s0)
     2a0:	0002                	c.slli64	zero
     2a2:	0100                	addi	s0,sp,128
     2a4:	5c00                	lw	s0,56(s0)
     2a6:	02f0                	addi	a2,sp,332
     2a8:	0000                	unimp
     2aa:	02f4                	addi	a3,sp,332
     2ac:	0000                	unimp
     2ae:	0001                	nop
     2b0:	f456                	fsw	fs5,40(sp)
     2b2:	0002                	c.slli64	zero
     2b4:	2400                	fld	fs0,8(s0)
     2b6:	0004                	0x4
     2b8:	0100                	addi	s0,sp,128
     2ba:	5c00                	lw	s0,56(s0)
	...
     2c4:	0038                	addi	a4,sp,8
     2c6:	0000                	unimp
     2c8:	0048                	addi	a0,sp,4
     2ca:	0000                	unimp
     2cc:	0001                	nop
     2ce:	485d                	li	a6,23
     2d0:	0000                	unimp
     2d2:	6400                	flw	fs0,8(s0)
     2d4:	0000                	unimp
     2d6:	0100                	addi	s0,sp,128
     2d8:	5e00                	lw	s0,56(a2)
     2da:	0128                	addi	a0,sp,136
     2dc:	0000                	unimp
     2de:	0130                	addi	a2,sp,136
     2e0:	0000                	unimp
     2e2:	0001                	nop
     2e4:	3c5e                	fld	fs8,496(sp)
     2e6:	0001                	nop
     2e8:	5c00                	lw	s0,56(s0)
     2ea:	0001                	nop
     2ec:	0100                	addi	s0,sp,128
     2ee:	5e00                	lw	s0,56(a2)
     2f0:	01f0                	addi	a2,sp,204
     2f2:	0000                	unimp
     2f4:	01f8                	addi	a4,sp,204
     2f6:	0000                	unimp
     2f8:	0001                	nop
     2fa:	905e                	c.add	zero,s7
     2fc:	0002                	c.slli64	zero
     2fe:	dc00                	sw	s0,56(s0)
     300:	0002                	c.slli64	zero
     302:	0100                	addi	s0,sp,128
     304:	5d00                	lw	s0,56(a0)
     306:	02f0                	addi	a2,sp,332
     308:	0000                	unimp
     30a:	030c                	addi	a1,sp,384
     30c:	0000                	unimp
     30e:	0001                	nop
     310:	105d                	c.nop	-9
     312:	58000003          	lb	zero,1408(zero) # 580 <vprintfmt.constprop.0+0x15a>
     316:	0004                	0x4
     318:	0100                	addi	s0,sp,128
     31a:	5d00                	lw	s0,56(a0)
	...
     324:	003c                	addi	a5,sp,8
     326:	0000                	unimp
     328:	0094                	addi	a3,sp,64
     32a:	0000                	unimp
     32c:	0001                	nop
     32e:	945a                	add	s0,s0,s6
     330:	0000                	unimp
     332:	d800                	sw	s0,48(s0)
     334:	0000                	unimp
     336:	0100                	addi	s0,sp,128
     338:	5f00                	lw	s0,56(a4)
     33a:	0104                	addi	s1,sp,128
     33c:	0000                	unimp
     33e:	010c                	addi	a1,sp,128
     340:	0000                	unimp
     342:	0001                	nop
     344:	285f 0001 7c00      	0x7c000001285f
     34a:	0001                	nop
     34c:	0100                	addi	s0,sp,128
     34e:	5a00                	lw	s0,48(a2)
     350:	01ec                	addi	a1,sp,204
     352:	0000                	unimp
     354:	01f0                	addi	a2,sp,204
     356:	0000                	unimp
     358:	0001                	nop
     35a:	f05f 0001 1800      	0x18000001f05f
     360:	0002                	c.slli64	zero
     362:	0100                	addi	s0,sp,128
     364:	5a00                	lw	s0,48(a2)
     366:	0290                	addi	a2,sp,320
     368:	0000                	unimp
     36a:	02e0                	addi	s0,sp,332
     36c:	0000                	unimp
     36e:	0001                	nop
     370:	e45a                	fsw	fs6,8(sp)
     372:	0002                	c.slli64	zero
     374:	f000                	fsw	fs0,32(s0)
     376:	0002                	c.slli64	zero
     378:	0100                	addi	s0,sp,128
     37a:	5f00                	lw	s0,56(a4)
     37c:	02f0                	addi	a2,sp,332
     37e:	0000                	unimp
     380:	043c                	addi	a5,sp,520
     382:	0000                	unimp
     384:	0001                	nop
     386:	445a                	lw	s0,148(sp)
     388:	0004                	0x4
     38a:	4c00                	lw	s0,24(s0)
     38c:	0004                	0x4
     38e:	0100                	addi	s0,sp,128
     390:	5e00                	lw	s0,56(a2)
	...
     39a:	0090                	addi	a2,sp,64
     39c:	0000                	unimp
     39e:	00ac                	addi	a1,sp,72
     3a0:	0000                	unimp
     3a2:	0001                	nop
     3a4:	7c60                	flw	fs0,124(s0)
     3a6:	0001                	nop
     3a8:	9400                	0x9400
     3aa:	0001                	nop
     3ac:	0100                	addi	s0,sp,128
     3ae:	5b00                	lw	s0,48(a4)
     3b0:	0224                	addi	s1,sp,264
     3b2:	0000                	unimp
     3b4:	0260                	addi	s0,sp,268
     3b6:	0000                	unimp
     3b8:	0001                	nop
     3ba:	8c6d                	and	s0,s0,a1
     3bc:	0002                	c.slli64	zero
     3be:	9000                	0x9000
     3c0:	0002                	c.slli64	zero
     3c2:	0100                	addi	s0,sp,128
     3c4:	5b00                	lw	s0,48(a4)
     3c6:	02e4                	addi	s1,sp,332
     3c8:	0000                	unimp
     3ca:	02f0                	addi	a2,sp,332
     3cc:	0000                	unimp
     3ce:	0001                	nop
     3d0:	3860                	fld	fs0,240(s0)
     3d2:	78000003          	lb	zero,1920(zero) # 780 <vprintfmt.constprop.0+0x35a>
     3d6:	01000003          	lb	zero,16(zero) # 10 <buf.1936+0x10>
     3da:	6000                	flw	fs0,0(s0)
     3dc:	03bc                	addi	a5,sp,456
     3de:	0000                	unimp
     3e0:	0440                	addi	s0,sp,516
     3e2:	0000                	unimp
     3e4:	0001                	nop
     3e6:	0004445b          	0x4445b
     3ea:	5400                	lw	s0,40(s0)
     3ec:	0004                	0x4
     3ee:	0100                	addi	s0,sp,128
     3f0:	5b00                	lw	s0,48(a4)
	...
     3fa:	020c                	addi	a1,sp,256
     3fc:	0000                	unimp
     3fe:	0290                	addi	a2,sp,320
     400:	0000                	unimp
     402:	0001                	nop
     404:	386e                	fld	fa6,248(sp)
     406:	40000003          	lb	zero,1024(zero) # 400 <STACK_SIZE>
     40a:	01000003          	lb	zero,16(zero) # 10 <buf.1936+0x10>
     40e:	5f00                	lw	s0,56(a4)
	...
     418:	02d4                	addi	a3,sp,324
     41a:	0000                	unimp
     41c:	02e4                	addi	s1,sp,332
     41e:	0000                	unimp
     420:	0002                	c.slli64	zero
     422:	9f31                	0x9f31
     424:	03bc                	addi	a5,sp,456
     426:	0000                	unimp
     428:	03cc                	addi	a1,sp,452
     42a:	0000                	unimp
     42c:	0001                	nop
     42e:	006c                	addi	a1,sp,12
     430:	0000                	unimp
     432:	0000                	unimp
     434:	0000                	unimp
     436:	e400                	fsw	fs0,8(s0)
     438:	0002                	c.slli64	zero
     43a:	f000                	fsw	fs0,32(s0)
     43c:	0002                	c.slli64	zero
     43e:	0200                	addi	s0,sp,256
     440:	3000                	fld	fs0,32(s0)
     442:	349f 0004 5800      	0x58000004349f
     448:	0004                	0x4
     44a:	0200                	addi	s0,sp,256
     44c:	3000                	fld	fs0,32(s0)
     44e:	009f 0000 0000      	0x9f
     454:	0000                	unimp
     456:	0400                	addi	s0,sp,512
     458:	0002                	c.slli64	zero
     45a:	1400                	addi	s0,sp,544
     45c:	0002                	c.slli64	zero
     45e:	0100                	addi	s0,sp,128
     460:	6d00                	flw	fs0,24(a0)
     462:	0214                	addi	a3,sp,256
     464:	0000                	unimp
     466:	021c                	addi	a5,sp,256
     468:	0000                	unimp
     46a:	007d000b          	0x7d000b
     46e:	0194                	addi	a3,sp,192
     470:	ff08                	fsw	fa0,56(a4)
     472:	7e1a                	flw	ft8,164(sp)
     474:	2200                	fld	fs0,0(a2)
     476:	049f 0003 5800      	0x58000003049f
     47c:	0004                	0x4
     47e:	0100                	addi	s0,sp,128
     480:	6e00                	flw	fs0,24(a2)
	...
     48a:	007c                	addi	a5,sp,12
     48c:	0000                	unimp
     48e:	010c                	addi	a1,sp,128
     490:	0000                	unimp
     492:	0001                	nop
     494:	746c                	flw	fa1,108(s0)
     496:	0001                	nop
     498:	f000                	fsw	fs0,32(s0)
     49a:	0001                	nop
     49c:	0100                	addi	s0,sp,128
     49e:	6c00                	flw	fs0,24(s0)
     4a0:	0204                	addi	s1,sp,256
     4a2:	0000                	unimp
     4a4:	0290                	addi	a2,sp,320
     4a6:	0000                	unimp
     4a8:	0001                	nop
     4aa:	c86c                	sw	a1,84(s0)
     4ac:	0002                	c.slli64	zero
     4ae:	f000                	fsw	fs0,32(s0)
     4b0:	0002                	c.slli64	zero
     4b2:	0100                	addi	s0,sp,128
     4b4:	6d00                	flw	fs0,24(a0)
     4b6:	0304                	addi	s1,sp,384
     4b8:	0000                	unimp
     4ba:	0458                	addi	a4,sp,516
     4bc:	0000                	unimp
     4be:	0001                	nop
     4c0:	006d                	c.nop	27
     4c2:	0000                	unimp
     4c4:	0000                	unimp
     4c6:	0000                	unimp
     4c8:	5000                	lw	s0,32(s0)
     4ca:	0000                	unimp
     4cc:	8c00                	0x8c00
     4ce:	0000                	unimp
     4d0:	0100                	addi	s0,sp,128
     4d2:	5600                	lw	s0,40(a2)
     4d4:	008c                	addi	a1,sp,64
     4d6:	0000                	unimp
     4d8:	0098                	addi	a4,sp,64
     4da:	0000                	unimp
     4dc:	0001                	nop
     4de:	285c                	fld	fa5,144(s0)
     4e0:	0001                	nop
     4e2:	3c00                	fld	fs0,56(s0)
     4e4:	0001                	nop
     4e6:	0100                	addi	s0,sp,128
     4e8:	5600                	lw	s0,40(a2)
	...
     4f2:	0064                	addi	s1,sp,12
     4f4:	0000                	unimp
     4f6:	00a8                	addi	a0,sp,72
     4f8:	0000                	unimp
     4fa:	0001                	nop
     4fc:	005e                	c.slli	zero,0x17
     4fe:	0000                	unimp
     500:	0000                	unimp
     502:	0000                	unimp
     504:	9800                	0x9800
     506:	0000                	unimp
     508:	0400                	addi	s0,sp,512
     50a:	0001                	nop
     50c:	0100                	addi	s0,sp,128
     50e:	5c00                	lw	s0,56(s0)
	...
     518:	00a4                	addi	s1,sp,72
     51a:	0000                	unimp
     51c:	00e8                	addi	a0,sp,76
     51e:	0000                	unimp
     520:	0001                	nop
     522:	e85a                	fsw	fs6,16(sp)
     524:	0000                	unimp
     526:	0400                	addi	s0,sp,512
     528:	0001                	nop
     52a:	0700                	addi	s0,sp,896
     52c:	7600                	flw	fs0,40(a2)
     52e:	4000                	lw	s0,0(s0)
     530:	4024                	lw	s1,64(s0)
     532:	9f25                	0x9f25
	...
     53c:	00e0                	addi	s0,sp,76
     53e:	0000                	unimp
     540:	00e4                	addi	s1,sp,76
     542:	0000                	unimp
     544:	0001                	nop
     546:	005e                	c.slli	zero,0x17
     548:	0000                	unimp
     54a:	0000                	unimp
     54c:	0000                	unimp
     54e:	a400                	fsd	fs0,8(s0)
     550:	0000                	unimp
     552:	b000                	fsd	fs0,32(s0)
     554:	0000                	unimp
     556:	0100                	addi	s0,sp,128
     558:	5d00                	lw	s0,56(a0)
     55a:	00b8                	addi	a4,sp,72
     55c:	0000                	unimp
     55e:	00e0                	addi	s0,sp,76
     560:	0000                	unimp
     562:	0001                	nop
     564:	005e                	c.slli	zero,0x17
     566:	0000                	unimp
     568:	0000                	unimp
     56a:	0000                	unimp
     56c:	d400                	sw	s0,40(s0)
     56e:	0000                	unimp
     570:	ec00                	fsw	fs0,24(s0)
     572:	0000                	unimp
     574:	0100                	addi	s0,sp,128
     576:	5d00                	lw	s0,56(a0)
     578:	00ec                	addi	a1,sp,76
     57a:	0000                	unimp
     57c:	0104                	addi	s1,sp,128
     57e:	0000                	unimp
     580:	0001                	nop
     582:	005f 0000 0000      	0x5f
     588:	0000                	unimp
     58a:	b800                	fsd	fs0,48(s0)
     58c:	0000                	unimp
     58e:	e400                	fsw	fs0,8(s0)
     590:	0000                	unimp
     592:	0100                	addi	s0,sp,128
     594:	6000                	flw	fs0,0(s0)
     596:	00e4                	addi	s1,sp,76
     598:	0000                	unimp
     59a:	0104                	addi	s1,sp,128
     59c:	0000                	unimp
     59e:	0001                	nop
     5a0:	005e                	c.slli	zero,0x17
     5a2:	0000                	unimp
     5a4:	0000                	unimp
     5a6:	0000                	unimp
     5a8:	4800                	lw	s0,16(s0)
     5aa:	0001                	nop
     5ac:	7c00                	flw	fs0,56(s0)
     5ae:	0001                	nop
     5b0:	0100                	addi	s0,sp,128
     5b2:	5600                	lw	s0,40(a2)
     5b4:	01f0                	addi	a2,sp,204
     5b6:	0000                	unimp
     5b8:	0208                	addi	a0,sp,256
     5ba:	0000                	unimp
     5bc:	0001                	nop
     5be:	0056                	c.slli	zero,0x15
     5c0:	0000                	unimp
     5c2:	0000                	unimp
     5c4:	0000                	unimp
     5c6:	5c00                	lw	s0,56(s0)
     5c8:	0001                	nop
     5ca:	7c00                	flw	fs0,56(s0)
     5cc:	0001                	nop
     5ce:	0100                	addi	s0,sp,128
     5d0:	5e00                	lw	s0,56(a2)
     5d2:	0204                	addi	s1,sp,256
     5d4:	0000                	unimp
     5d6:	0234                	addi	a3,sp,264
     5d8:	0000                	unimp
     5da:	0001                	nop
     5dc:	005e                	c.slli	zero,0x17
     5de:	0000                	unimp
     5e0:	0000                	unimp
     5e2:	0000                	unimp
     5e4:	8000                	0x8000
     5e6:	0001                	nop
     5e8:	f000                	fsw	fs0,32(s0)
     5ea:	0001                	nop
     5ec:	0100                	addi	s0,sp,128
     5ee:	5d00                	lw	s0,56(a0)
	...
     5f8:	0188                	addi	a0,sp,192
     5fa:	0000                	unimp
     5fc:	01d0                	addi	a2,sp,196
     5fe:	0000                	unimp
     600:	0001                	nop
     602:	d05a                	sw	s6,32(sp)
     604:	0001                	nop
     606:	f000                	fsw	fs0,32(s0)
     608:	0001                	nop
     60a:	0700                	addi	s0,sp,896
     60c:	7600                	flw	fs0,40(a2)
     60e:	4000                	lw	s0,0(s0)
     610:	4024                	lw	s1,64(s0)
     612:	9f25                	0x9f25
	...
     61c:	0194                	addi	a3,sp,192
     61e:	0000                	unimp
     620:	01a0                	addi	s0,sp,200
     622:	0000                	unimp
     624:	0001                	nop
     626:	0000005b          	0x5b
     62a:	0000                	unimp
     62c:	0000                	unimp
     62e:	c800                	sw	s0,16(s0)
     630:	0001                	nop
     632:	cc00                	sw	s0,24(s0)
     634:	0001                	nop
     636:	0100                	addi	s0,sp,128
     638:	5b00                	lw	s0,48(a4)
	...
     642:	0190                	addi	a2,sp,192
     644:	0000                	unimp
     646:	0198                	addi	a4,sp,192
     648:	0000                	unimp
     64a:	0001                	nop
     64c:	a05e                	fsd	fs7,0(sp)
     64e:	0001                	nop
     650:	b800                	fsd	fs0,48(s0)
     652:	0001                	nop
     654:	0100                	addi	s0,sp,128
     656:	5e00                	lw	s0,56(a2)
     658:	01b8                	addi	a4,sp,200
     65a:	0000                	unimp
     65c:	01c8                	addi	a0,sp,196
     65e:	0000                	unimp
     660:	0001                	nop
     662:	0000005b          	0x5b
     666:	0000                	unimp
     668:	0000                	unimp
     66a:	bc00                	fsd	fs0,56(s0)
     66c:	0001                	nop
     66e:	d400                	sw	s0,40(s0)
     670:	0001                	nop
     672:	0100                	addi	s0,sp,128
     674:	5e00                	lw	s0,56(a2)
     676:	01d4                	addi	a3,sp,196
     678:	0000                	unimp
     67a:	01f0                	addi	a2,sp,204
     67c:	0000                	unimp
     67e:	0001                	nop
     680:	005f 0000 0000      	0x5f
     686:	0000                	unimp
     688:	a000                	fsd	fs0,0(s0)
     68a:	0001                	nop
     68c:	b800                	fsd	fs0,48(s0)
     68e:	0001                	nop
     690:	0100                	addi	s0,sp,128
     692:	5b00                	lw	s0,48(a4)
     694:	01cc                	addi	a1,sp,196
     696:	0000                	unimp
     698:	01f0                	addi	a2,sp,204
     69a:	0000                	unimp
     69c:	0001                	nop
     69e:	0000005b          	0x5b
     6a2:	0000                	unimp
     6a4:	0000                	unimp
     6a6:	2400                	fld	fs0,8(s0)
     6a8:	0002                	c.slli64	zero
     6aa:	9000                	0x9000
     6ac:	0002                	c.slli64	zero
     6ae:	0100                	addi	s0,sp,128
     6b0:	5a00                	lw	s0,48(a2)
	...
     6ba:	022c                	addi	a1,sp,264
     6bc:	0000                	unimp
     6be:	0274                	addi	a3,sp,268
     6c0:	0000                	unimp
     6c2:	0001                	nop
     6c4:	0002745b          	0x2745b
     6c8:	9000                	0x9000
     6ca:	0002                	c.slli64	zero
     6cc:	0700                	addi	s0,sp,896
     6ce:	7600                	flw	fs0,40(a2)
     6d0:	4000                	lw	s0,0(s0)
     6d2:	4024                	lw	s1,64(s0)
     6d4:	9f25                	0x9f25
	...
     6de:	0234                	addi	a3,sp,264
     6e0:	0000                	unimp
     6e2:	0238                	addi	a4,sp,264
     6e4:	0000                	unimp
     6e6:	0001                	nop
     6e8:	385d                	jal	ffffff9e <__C_STACK_TOP__+0xfffeff9e>
     6ea:	0002                	c.slli64	zero
     6ec:	4400                	lw	s0,8(s0)
     6ee:	0002                	c.slli64	zero
     6f0:	0c00                	addi	s0,sp,528
     6f2:	8e00                	0x8e00
     6f4:	f700                	fsw	fs0,40(a4)
     6f6:	7a25                	lui	s4,0xfffe9
     6f8:	f700                	fsw	fs0,40(a4)
     6fa:	1b25                	addi	s6,s6,-23
     6fc:	449f00f7          	0x449f00f7
     700:	0002                	c.slli64	zero
     702:	5000                	lw	s0,32(s0)
     704:	0002                	c.slli64	zero
     706:	0e00                	addi	s0,sp,784
     708:	8e00                	0x8e00
     70a:	f700                	fsw	fs0,40(a4)
     70c:	7a25                	lui	s4,0xfffe9
     70e:	f700                	fsw	fs0,40(a4)
     710:	1b25                	addi	s6,s6,-23
     712:	1c3100f7          	0x1c3100f7
     716:	509f 0002 5400      	0x54000002509f
     71c:	0002                	c.slli64	zero
     71e:	0e00                	addi	s0,sp,784
     720:	8e00                	0x8e00
     722:	f700                	fsw	fs0,40(a4)
     724:	7a25                	lui	s4,0xfffe9
     726:	f700                	fsw	fs0,40(a4)
     728:	1b25                	addi	s6,s6,-23
     72a:	1c3200f7          	0x1c3200f7
     72e:	009f 0000 0000      	0x9f
     734:	0000                	unimp
     736:	6800                	flw	fs0,16(s0)
     738:	0002                	c.slli64	zero
     73a:	7000                	flw	fs0,32(s0)
     73c:	0002                	c.slli64	zero
     73e:	0100                	addi	s0,sp,128
     740:	5c00                	lw	s0,56(s0)
	...
     74a:	0234                	addi	a3,sp,264
     74c:	0000                	unimp
     74e:	023c                	addi	a5,sp,264
     750:	0000                	unimp
     752:	0001                	nop
     754:	3c5e                	fld	fs8,496(sp)
     756:	0002                	c.slli64	zero
     758:	4000                	lw	s0,0(s0)
     75a:	0002                	c.slli64	zero
     75c:	0600                	addi	s0,sp,768
     75e:	8e00                	0x8e00
     760:	7a00                	flw	fs0,48(a2)
     762:	1d00                	addi	s0,sp,688
     764:	409f 0002 5800      	0x58000002409f
     76a:	0002                	c.slli64	zero
     76c:	0100                	addi	s0,sp,128
     76e:	5e00                	lw	s0,56(a2)
     770:	0258                	addi	a4,sp,260
     772:	0000                	unimp
     774:	0268                	addi	a0,sp,268
     776:	0000                	unimp
     778:	0001                	nop
     77a:	005c                	addi	a5,sp,4
     77c:	0000                	unimp
     77e:	0000                	unimp
     780:	0000                	unimp
     782:	5c00                	lw	s0,56(s0)
     784:	0002                	c.slli64	zero
     786:	6c00                	flw	fs0,24(s0)
     788:	0002                	c.slli64	zero
     78a:	0100                	addi	s0,sp,128
     78c:	5e00                	lw	s0,56(a2)
     78e:	0274                	addi	a3,sp,268
     790:	0000                	unimp
     792:	0290                	addi	a2,sp,320
     794:	0000                	unimp
     796:	0001                	nop
     798:	0000005b          	0x5b
     79c:	0000                	unimp
     79e:	0000                	unimp
     7a0:	3800                	fld	fs0,48(s0)
     7a2:	0002                	c.slli64	zero
     7a4:	7000                	flw	fs0,32(s0)
     7a6:	0002                	c.slli64	zero
     7a8:	0100                	addi	s0,sp,128
     7aa:	5d00                	lw	s0,56(a0)
     7ac:	0270                	addi	a2,sp,268
     7ae:	0000                	unimp
     7b0:	0290                	addi	a2,sp,320
     7b2:	0000                	unimp
     7b4:	0001                	nop
     7b6:	005c                	addi	a5,sp,4
     7b8:	0000                	unimp
     7ba:	0000                	unimp
     7bc:	0000                	unimp
     7be:	9400                	0x9400
     7c0:	0002                	c.slli64	zero
     7c2:	dc00                	sw	s0,56(s0)
     7c4:	0002                	c.slli64	zero
     7c6:	0100                	addi	s0,sp,128
     7c8:	5d00                	lw	s0,56(a0)
     7ca:	02f0                	addi	a2,sp,332
     7cc:	0000                	unimp
     7ce:	030c                	addi	a1,sp,384
     7d0:	0000                	unimp
     7d2:	0001                	nop
     7d4:	005d                	c.nop	23
     7d6:	0000                	unimp
     7d8:	0000                	unimp
     7da:	0000                	unimp
     7dc:	a800                	fsd	fs0,16(s0)
     7de:	0002                	c.slli64	zero
     7e0:	f000                	fsw	fs0,32(s0)
     7e2:	0002                	c.slli64	zero
     7e4:	0100                	addi	s0,sp,128
     7e6:	5e00                	lw	s0,56(a2)
     7e8:	0304                	addi	s1,sp,384
     7ea:	0000                	unimp
     7ec:	0308                	addi	a0,sp,384
     7ee:	0000                	unimp
     7f0:	0001                	nop
     7f2:	005e                	c.slli	zero,0x17
     7f4:	0000                	unimp
     7f6:	0000                	unimp
     7f8:	0000                	unimp
     7fa:	d800                	sw	s0,48(s0)
     7fc:	0002                	c.slli64	zero
     7fe:	e400                	fsw	fs0,8(s0)
     800:	0002                	c.slli64	zero
     802:	0100                	addi	s0,sp,128
     804:	5f00                	lw	s0,56(a4)
	...
     80e:	0414                	addi	a3,sp,512
     810:	0000                	unimp
     812:	0428                	addi	a0,sp,520
     814:	0000                	unimp
     816:	0001                	nop
     818:	305e                	fld	ft0,496(sp)
     81a:	0004                	0x4
     81c:	3400                	fld	fs0,40(s0)
     81e:	0004                	0x4
     820:	0100                	addi	s0,sp,128
     822:	5c00                	lw	s0,56(s0)
     824:	0434                	addi	a3,sp,520
     826:	0000                	unimp
     828:	0438                	addi	a4,sp,520
     82a:	0000                	unimp
     82c:	0001                	nop
     82e:	005e                	c.slli	zero,0x17
     830:	0000                	unimp
     832:	0000                	unimp
     834:	0000                	unimp
     836:	3c00                	fld	fs0,56(s0)
     838:	d4000003          	lb	zero,-704(zero) # fffffd40 <__C_STACK_TOP__+0xfffefd40>
     83c:	01000003          	lb	zero,16(zero) # 10 <buf.1936+0x10>
     840:	5e00                	lw	s0,56(a2)
     842:	03d4                	addi	a3,sp,452
     844:	0000                	unimp
     846:	0458                	addi	a4,sp,516
     848:	0000                	unimp
     84a:	0005                	c.nop	1
     84c:	007d                	c.nop	31
     84e:	2540                	fld	fs0,136(a0)
     850:	009f 0000 0000      	0x9f
     856:	0000                	unimp
     858:	3c00                	fld	fs0,56(s0)
     85a:	8c000003          	lb	zero,-1856(zero) # fffff8c0 <__C_STACK_TOP__+0xfffef8c0>
     85e:	01000003          	lb	zero,16(zero) # 10 <buf.1936+0x10>
     862:	5b00                	lw	s0,48(a4)
     864:	038c                	addi	a1,sp,448
     866:	0000                	unimp
     868:	0458                	addi	a4,sp,516
     86a:	0000                	unimp
     86c:	007d0007          	0x7d0007
     870:	2440                	fld	fs0,136(s0)
     872:	2540                	fld	fs0,136(a0)
     874:	009f 0000 0000      	0x9f
     87a:	0000                	unimp
     87c:	4000                	lw	s0,0(s0)
     87e:	5c000003          	lb	zero,1472(zero) # 5c0 <vprintfmt.constprop.0+0x19a>
     882:	01000003          	lb	zero,16(zero) # 10 <buf.1936+0x10>
     886:	5f00                	lw	s0,56(a4)
     888:	035c                	addi	a5,sp,388
     88a:	0000                	unimp
     88c:	03b4                	addi	a3,sp,456
     88e:	0000                	unimp
     890:	0001                	nop
     892:	006c                	addi	a1,sp,12
     894:	0000                	unimp
     896:	0000                	unimp
     898:	0000                	unimp
     89a:	8000                	0x8000
     89c:	9c000003          	lb	zero,-1600(zero) # fffff9c0 <__C_STACK_TOP__+0xfffef9c0>
     8a0:	01000003          	lb	zero,16(zero) # 10 <buf.1936+0x10>
     8a4:	5600                	lw	s0,40(a2)
     8a6:	039c                	addi	a5,sp,448
     8a8:	0000                	unimp
     8aa:	03c0                	addi	s0,sp,452
     8ac:	0000                	unimp
     8ae:	0001                	nop
     8b0:	005f 0000 0000      	0x5f
     8b6:	0000                	unimp
     8b8:	3c00                	fld	fs0,56(s0)
     8ba:	44000003          	lb	zero,1088(zero) # 440 <vprintfmt.constprop.0+0x1a>
     8be:	01000003          	lb	zero,16(zero) # 10 <buf.1936+0x10>
     8c2:	6c00                	flw	fs0,24(s0)
     8c4:	034c                	addi	a1,sp,388
     8c6:	0000                	unimp
     8c8:	0358                	addi	a4,sp,388
     8ca:	0000                	unimp
     8cc:	0001                	nop
     8ce:	5c56                	lw	s8,116(sp)
     8d0:	80000003          	lb	zero,-2048(zero) # fffff800 <__C_STACK_TOP__+0xfffef800>
     8d4:	01000003          	lb	zero,16(zero) # 10 <buf.1936+0x10>
     8d8:	5600                	lw	s0,40(a2)
	...
     8e2:	0374                	addi	a3,sp,396
     8e4:	0000                	unimp
     8e6:	0384                	addi	s1,sp,448
     8e8:	0000                	unimp
     8ea:	0001                	nop
     8ec:	00038c6f          	jal	s8,388ec <__C_STACK_TOP__+0x288ec>
     8f0:	9800                	0x9800
     8f2:	01000003          	lb	zero,16(zero) # 10 <buf.1936+0x10>
     8f6:	6f00                	flw	fs0,24(a4)
     8f8:	039c                	addi	a5,sp,448
     8fa:	0000                	unimp
     8fc:	03b0                	addi	a2,sp,456
     8fe:	0000                	unimp
     900:	0001                	nop
     902:	0003b06f          	j	3b902 <__C_STACK_TOP__+0x2b902>
     906:	4000                	lw	s0,0(s0)
     908:	0004                	0x4
     90a:	0100                	addi	s0,sp,128
     90c:	5b00                	lw	s0,48(a4)
	...
     916:	034c                	addi	a1,sp,388
     918:	0000                	unimp
     91a:	0374                	addi	a3,sp,396
     91c:	0000                	unimp
     91e:	0001                	nop
     920:	0003746f          	jal	s0,37920 <__C_STACK_TOP__+0x27920>
     924:	8c00                	0x8c00
     926:	06000003          	lb	zero,96(zero) # 60 <buflen.1937+0x20>
     92a:	7b00                	flw	fs0,48(a4)
     92c:	7f00                	flw	fs0,56(a4)
     92e:	1e00                	addi	s0,sp,816
     930:	8c9f 0003 b000      	0xb00000038c9f
     936:	01000003          	lb	zero,16(zero) # 10 <buf.1936+0x10>
     93a:	5b00                	lw	s0,48(a4)
     93c:	03b0                	addi	a2,sp,456
     93e:	0000                	unimp
     940:	03c4                	addi	s1,sp,452
     942:	0000                	unimp
     944:	000a                	c.slli	zero,0x2
     946:	007d                	c.nop	31
     948:	2440                	fld	fs0,136(s0)
     94a:	2540                	fld	fs0,136(a0)
     94c:	0076                	c.slli	zero,0x1d
     94e:	9f1e                	add	t5,t5,t2
	...
     958:	03d4                	addi	a3,sp,452
     95a:	0000                	unimp
     95c:	0410                	addi	a2,sp,512
     95e:	0000                	unimp
     960:	0001                	nop
     962:	005e                	c.slli	zero,0x17
     964:	0000                	unimp
     966:	0000                	unimp
     968:	0000                	unimp
     96a:	ec00                	fsw	fs0,24(s0)
     96c:	08000003          	lb	zero,128(zero) # 80 <buflen.1937+0x40>
     970:	0004                	0x4
     972:	0100                	addi	s0,sp,128
     974:	6000                	flw	fs0,0(s0)
     976:	0408                	addi	a0,sp,512
     978:	0000                	unimp
     97a:	0410                	addi	a2,sp,512
     97c:	0000                	unimp
     97e:	0008                	0x8
     980:	007e                	c.slli	zero,0x1f
     982:	2540                	fld	fs0,136(a0)
     984:	0076                	c.slli	zero,0x1d
     986:	9f22                	add	t5,t5,s0
	...
     990:	03d8                	addi	a4,sp,452
     992:	0000                	unimp
     994:	03f8                	addi	a4,sp,460
     996:	0000                	unimp
     998:	0001                	nop
     99a:	005f 0000 0000      	0x5f
     9a0:	0000                	unimp
     9a2:	e000                	fsw	fs0,0(s0)
     9a4:	fc000003          	lb	zero,-64(zero) # ffffffc0 <__C_STACK_TOP__+0xfffeffc0>
     9a8:	01000003          	lb	zero,16(zero) # 10 <buf.1936+0x10>
     9ac:	6c00                	flw	fs0,24(s0)
	...
     9b6:	03c4                	addi	s1,sp,452
     9b8:	0000                	unimp
     9ba:	03dc                	addi	a5,sp,452
     9bc:	0000                	unimp
     9be:	0001                	nop
     9c0:	0056                	c.slli	zero,0x15
     9c2:	0000                	unimp
     9c4:	0000                	unimp
     9c6:	0000                	unimp
     9c8:	d000                	sw	s0,32(s0)
     9ca:	d8000003          	lb	zero,-640(zero) # fffffd80 <__C_STACK_TOP__+0xfffefd80>
     9ce:	01000003          	lb	zero,16(zero) # 10 <buf.1936+0x10>
     9d2:	5f00                	lw	s0,56(a4)
     9d4:	03d8                	addi	a4,sp,452
     9d6:	0000                	unimp
     9d8:	0404                	addi	s1,sp,512
     9da:	0000                	unimp
     9dc:	0006                	c.slli	zero,0x1
     9de:	007c7f8f          	0x7c7f8f
     9e2:	9f1a                	add	t5,t5,t1
     9e4:	0404                	addi	s1,sp,512
     9e6:	0000                	unimp
     9e8:	0424                	addi	s1,sp,520
     9ea:	0000                	unimp
     9ec:	0006                	c.slli	zero,0x1
     9ee:	007c                	addi	a5,sp,12
     9f0:	007f                	0x7f
     9f2:	9f1a                	add	t5,t5,t1
	...
     9fc:	03cc                	addi	a1,sp,452
     9fe:	0000                	unimp
     a00:	03e0                	addi	s0,sp,460
     a02:	0000                	unimp
     a04:	0001                	nop
     a06:	006c                	addi	a1,sp,12
     a08:	0000                	unimp
     a0a:	0000                	unimp
     a0c:	0000                	unimp
     a0e:	2400                	fld	fs0,8(s0)
     a10:	0004                	0x4
     a12:	3400                	fld	fs0,40(s0)
     a14:	0004                	0x4
     a16:	0100                	addi	s0,sp,128
     a18:	5c00                	lw	s0,56(s0)
	...
     a22:	0438                	addi	a4,sp,520
     a24:	0000                	unimp
     a26:	044c                	addi	a1,sp,516
     a28:	0000                	unimp
     a2a:	0001                	nop
     a2c:	005e                	c.slli	zero,0x17
	...
     a36:	0000                	unimp
     a38:	6800                	flw	fs0,16(s0)
     a3a:	0000                	unimp
     a3c:	0600                	addi	s0,sp,768
     a3e:	5a00                	lw	s0,48(a2)
     a40:	935b0493          	addi	s1,s6,-1739
     a44:	6804                	flw	fs1,16(s0)
     a46:	0000                	unimp
     a48:	f400                	fsw	fs0,40(s0)
     a4a:	0000                	unimp
     a4c:	0600                	addi	s0,sp,768
     a4e:	f300                	fsw	fs0,32(a4)
     a50:	250af503          	0x250af503
     a54:	f49f 0000 4c00      	0x4c000000f49f
     a5a:	0001                	nop
     a5c:	0600                	addi	s0,sp,768
     a5e:	5a00                	lw	s0,48(a2)
     a60:	935b0493          	addi	s1,s6,-1739
     a64:	4c04                	lw	s1,24(s0)
     a66:	0001                	nop
     a68:	dc00                	sw	s0,56(s0)
     a6a:	0001                	nop
     a6c:	0600                	addi	s0,sp,768
     a6e:	f300                	fsw	fs0,32(a4)
     a70:	250af503          	0x250af503
     a74:	dc9f 0001 0400      	0x4000001dc9f
     a7a:	0002                	c.slli64	zero
     a7c:	0600                	addi	s0,sp,768
     a7e:	5a00                	lw	s0,48(a2)
     a80:	935b0493          	addi	s1,s6,-1739
     a84:	0404                	addi	s1,sp,512
     a86:	0002                	c.slli64	zero
     a88:	9c00                	0x9c00
     a8a:	0002                	c.slli64	zero
     a8c:	0600                	addi	s0,sp,768
     a8e:	f300                	fsw	fs0,32(a4)
     a90:	250af503          	0x250af503
     a94:	9c9f 0002 e400      	0xe40000029c9f
     a9a:	0002                	c.slli64	zero
     a9c:	0600                	addi	s0,sp,768
     a9e:	5a00                	lw	s0,48(a2)
     aa0:	935b0493          	addi	s1,s6,-1739
     aa4:	e404                	fsw	fs1,8(s0)
     aa6:	0002                	c.slli64	zero
     aa8:	ec00                	fsw	fs0,24(s0)
     aaa:	0002                	c.slli64	zero
     aac:	0600                	addi	s0,sp,768
     aae:	f300                	fsw	fs0,32(a4)
     ab0:	250af503          	0x250af503
     ab4:	ec9f 0002 1400      	0x14000002ec9f
     aba:	0004                	0x4
     abc:	0600                	addi	s0,sp,768
     abe:	5a00                	lw	s0,48(a2)
     ac0:	935b0493          	addi	s1,s6,-1739
     ac4:	1404                	addi	s1,sp,544
     ac6:	0004                	0x4
     ac8:	2800                	fld	fs0,16(s0)
     aca:	0004                	0x4
     acc:	0600                	addi	s0,sp,768
     ace:	f300                	fsw	fs0,32(a4)
     ad0:	250af503          	0x250af503
     ad4:	289f 0004 3400      	0x34000004289f
     ada:	0004                	0x4
     adc:	0600                	addi	s0,sp,768
     ade:	5a00                	lw	s0,48(a2)
     ae0:	935b0493          	addi	s1,s6,-1739
     ae4:	0004                	0x4
	...
     aee:	0000                	unimp
     af0:	7000                	flw	fs0,32(s0)
     af2:	0000                	unimp
     af4:	0600                	addi	s0,sp,768
     af6:	5c00                	lw	s0,56(s0)
     af8:	935d0493          	addi	s1,s10,-1739 # 2fffa51 <__C_STACK_TOP__+0x2fefa51>
     afc:	7004                	flw	fs1,32(s0)
     afe:	0000                	unimp
     b00:	f400                	fsw	fs0,40(s0)
     b02:	0000                	unimp
     b04:	0600                	addi	s0,sp,768
     b06:	f300                	fsw	fs0,32(a4)
     b08:	250cf503          	0x250cf503
     b0c:	f49f 0000 4c00      	0x4c000000f49f
     b12:	0001                	nop
     b14:	0600                	addi	s0,sp,768
     b16:	5c00                	lw	s0,56(s0)
     b18:	935d0493          	addi	s1,s10,-1739
     b1c:	4c04                	lw	s1,24(s0)
     b1e:	0001                	nop
     b20:	dc00                	sw	s0,56(s0)
     b22:	0001                	nop
     b24:	0600                	addi	s0,sp,768
     b26:	f300                	fsw	fs0,32(a4)
     b28:	250cf503          	0x250cf503
     b2c:	dc9f 0001 1c00      	0x1c000001dc9f
     b32:	0002                	c.slli64	zero
     b34:	0600                	addi	s0,sp,768
     b36:	5c00                	lw	s0,56(s0)
     b38:	935d0493          	addi	s1,s10,-1739
     b3c:	1c04                	addi	s1,sp,560
     b3e:	0002                	c.slli64	zero
     b40:	9c00                	0x9c00
     b42:	0002                	c.slli64	zero
     b44:	0600                	addi	s0,sp,768
     b46:	f300                	fsw	fs0,32(a4)
     b48:	250cf503          	0x250cf503
     b4c:	9c9f 0002 3400      	0x340000029c9f
     b52:	06000003          	lb	zero,96(zero) # 60 <buflen.1937+0x20>
     b56:	5c00                	lw	s0,56(s0)
     b58:	935d0493          	addi	s1,s10,-1739
     b5c:	3404                	fld	fs1,40(s0)
     b5e:	28000003          	lb	zero,640(zero) # 280 <trap_entry+0x1e>
     b62:	0004                	0x4
     b64:	0600                	addi	s0,sp,768
     b66:	f300                	fsw	fs0,32(a4)
     b68:	250cf503          	0x250cf503
     b6c:	289f 0004 3400      	0x34000004289f
     b72:	0004                	0x4
     b74:	0600                	addi	s0,sp,768
     b76:	5c00                	lw	s0,56(s0)
     b78:	935d0493          	addi	s1,s10,-1739
     b7c:	0004                	0x4
	...
     b86:	0000                	unimp
     b88:	d400                	sw	s0,40(s0)
     b8a:	0001                	nop
     b8c:	0200                	addi	s0,sp,256
     b8e:	3000                	fld	fs0,32(s0)
     b90:	dc9f 0001 3400      	0x34000001dc9f
     b96:	0004                	0x4
     b98:	0200                	addi	s0,sp,256
     b9a:	3000                	fld	fs0,32(s0)
     b9c:	009f 0000 0000      	0x9f
     ba2:	0000                	unimp
     ba4:	0000                	unimp
     ba6:	0000                	unimp
     ba8:	2400                	fld	fs0,8(s0)
     baa:	0000                	unimp
     bac:	0600                	addi	s0,sp,768
     bae:	5c00                	lw	s0,56(s0)
     bb0:	935d0493          	addi	s1,s10,-1739
     bb4:	2404                	fld	fs1,8(s0)
     bb6:	0000                	unimp
     bb8:	3400                	fld	fs0,40(s0)
     bba:	0000                	unimp
     bbc:	0600                	addi	s0,sp,768
     bbe:	5c00                	lw	s0,56(s0)
     bc0:	93610493          	addi	s1,sp,-1738 # b0b0334 <__C_STACK_TOP__+0xb0a0334>
     bc4:	f404                	fsw	fs1,40(s0)
     bc6:	0000                	unimp
     bc8:	f800                	fsw	fs0,48(s0)
     bca:	0000                	unimp
     bcc:	0600                	addi	s0,sp,768
     bce:	5c00                	lw	s0,56(s0)
     bd0:	93610493          	addi	s1,sp,-1738
     bd4:	0804                	addi	s1,sp,16
     bd6:	0001                	nop
     bd8:	1000                	addi	s0,sp,32
     bda:	0001                	nop
     bdc:	0600                	addi	s0,sp,768
     bde:	5c00                	lw	s0,56(s0)
     be0:	935d0493          	addi	s1,s10,-1739
     be4:	1004                	addi	s1,sp,32
     be6:	0001                	nop
     be8:	2800                	fld	fs0,16(s0)
     bea:	0001                	nop
     bec:	0600                	addi	s0,sp,768
     bee:	5c00                	lw	s0,56(s0)
     bf0:	93610493          	addi	s1,sp,-1738
     bf4:	dc04                	sw	s1,56(s0)
     bf6:	0001                	nop
     bf8:	e400                	fsw	fs0,8(s0)
     bfa:	0001                	nop
     bfc:	0600                	addi	s0,sp,768
     bfe:	5c00                	lw	s0,56(s0)
     c00:	93610493          	addi	s1,sp,-1738
     c04:	9c04                	0x9c04
     c06:	0002                	c.slli64	zero
     c08:	0800                	addi	s0,sp,16
     c0a:	06000003          	lb	zero,96(zero) # 60 <buflen.1937+0x20>
     c0e:	5c00                	lw	s0,56(s0)
     c10:	935d0493          	addi	s1,s10,-1739
     c14:	0804                	addi	s1,sp,16
     c16:	18000003          	lb	zero,384(zero) # 180 <SIM_STOP+0x88>
     c1a:	06000003          	lb	zero,96(zero) # 60 <buflen.1937+0x20>
     c1e:	5c00                	lw	s0,56(s0)
     c20:	93610493          	addi	s1,sp,-1738
     c24:	2804                	fld	fs1,16(s0)
     c26:	0004                	0x4
     c28:	3400                	fld	fs0,40(s0)
     c2a:	0004                	0x4
     c2c:	0600                	addi	s0,sp,768
     c2e:	5c00                	lw	s0,56(s0)
     c30:	935d0493          	addi	s1,s10,-1739
     c34:	0004                	0x4
	...
     c3e:	0000                	unimp
     c40:	6000                	flw	fs0,0(s0)
     c42:	0000                	unimp
     c44:	0600                	addi	s0,sp,768
     c46:	5a00                	lw	s0,48(a2)
     c48:	935b0493          	addi	s1,s6,-1739
     c4c:	f404                	fsw	fs1,40(s0)
     c4e:	0000                	unimp
     c50:	4c00                	lw	s0,24(s0)
     c52:	0001                	nop
     c54:	0600                	addi	s0,sp,768
     c56:	5600                	lw	s0,40(a2)
     c58:	935b0493          	addi	s1,s6,-1739
     c5c:	dc04                	sw	s1,56(s0)
     c5e:	0001                	nop
     c60:	f800                	fsw	fs0,48(s0)
     c62:	0001                	nop
     c64:	0600                	addi	s0,sp,768
     c66:	5600                	lw	s0,40(a2)
     c68:	935b0493          	addi	s1,s6,-1739
     c6c:	f804                	fsw	fs1,48(s0)
     c6e:	0001                	nop
     c70:	fc00                	fsw	fs0,56(s0)
     c72:	0001                	nop
     c74:	0600                	addi	s0,sp,768
     c76:	5600                	lw	s0,40(a2)
     c78:	935f0493          	addi	s1,t5,-1739 # 67737 <__C_STACK_TOP__+0x57737>
     c7c:	fc04                	fsw	fs1,56(s0)
     c7e:	0001                	nop
     c80:	0400                	addi	s0,sp,512
     c82:	0002                	c.slli64	zero
     c84:	0600                	addi	s0,sp,768
     c86:	5a00                	lw	s0,48(a2)
     c88:	935f0493          	addi	s1,t5,-1739
     c8c:	9c04                	0x9c04
     c8e:	0002                	c.slli64	zero
     c90:	b400                	fsd	fs0,40(s0)
     c92:	0002                	c.slli64	zero
     c94:	0600                	addi	s0,sp,768
     c96:	5600                	lw	s0,40(a2)
     c98:	935b0493          	addi	s1,s6,-1739
     c9c:	b404                	fsd	fs1,40(s0)
     c9e:	0002                	c.slli64	zero
     ca0:	ec00                	fsw	fs0,24(s0)
     ca2:	0002                	c.slli64	zero
     ca4:	0600                	addi	s0,sp,768
     ca6:	5600                	lw	s0,40(a2)
     ca8:	935f0493          	addi	s1,t5,-1739
     cac:	ec04                	fsw	fs1,24(s0)
     cae:	0002                	c.slli64	zero
     cb0:	f000                	fsw	fs0,32(s0)
     cb2:	0002                	c.slli64	zero
     cb4:	0600                	addi	s0,sp,768
     cb6:	5600                	lw	s0,40(a2)
     cb8:	935b0493          	addi	s1,s6,-1739
     cbc:	f004                	fsw	fs1,32(s0)
     cbe:	0002                	c.slli64	zero
     cc0:	1c00                	addi	s0,sp,560
     cc2:	06000003          	lb	zero,96(zero) # 60 <buflen.1937+0x20>
     cc6:	5600                	lw	s0,40(a2)
     cc8:	935f0493          	addi	s1,t5,-1739
     ccc:	2804                	fld	fs1,16(s0)
     cce:	0004                	0x4
     cd0:	2c00                	fld	fs0,24(s0)
     cd2:	0004                	0x4
     cd4:	0600                	addi	s0,sp,768
     cd6:	5600                	lw	s0,40(a2)
     cd8:	935b0493          	addi	s1,s6,-1739
     cdc:	2c04                	fld	fs1,24(s0)
     cde:	0004                	0x4
     ce0:	3400                	fld	fs0,40(s0)
     ce2:	0004                	0x4
     ce4:	0600                	addi	s0,sp,768
     ce6:	5600                	lw	s0,40(a2)
     ce8:	935f0493          	addi	s1,t5,-1739
     cec:	0004                	0x4
     cee:	0000                	unimp
     cf0:	0000                	unimp
     cf2:	0000                	unimp
     cf4:	0800                	addi	s0,sp,16
     cf6:	0000                	unimp
     cf8:	5000                	lw	s0,32(s0)
     cfa:	0000                	unimp
     cfc:	0100                	addi	s0,sp,128
     cfe:	5c00                	lw	s0,56(s0)
     d00:	0050                	addi	a2,sp,4
     d02:	0000                	unimp
     d04:	005c                	addi	a5,sp,4
     d06:	0000                	unimp
     d08:	0009                	c.nop	2
     d0a:	007c                	addi	a5,sp,12
     d0c:	007e                	c.slli	zero,0x1f
     d0e:	ff08                	fsw	fa0,56(a4)
     d10:	241a                	fld	fs0,384(sp)
     d12:	5c9f 0000 ec00      	0xec0000005c9f
     d18:	0000                	unimp
     d1a:	0100                	addi	s0,sp,128
     d1c:	6000                	flw	fs0,0(s0)
     d1e:	00f4                	addi	a3,sp,76
     d20:	0000                	unimp
     d22:	0110                	addi	a2,sp,128
     d24:	0000                	unimp
     d26:	0001                	nop
     d28:	105c                	addi	a5,sp,36
     d2a:	0001                	nop
     d2c:	1400                	addi	s0,sp,544
     d2e:	0001                	nop
     d30:	0b00                	addi	s0,sp,400
     d32:	3100                	fld	fs0,32(a0)
     d34:	007c2cf7          	0x7c2cf7
     d38:	f71b2cf7          	0xf71b2cf7
     d3c:	9f00                	0x9f00
     d3e:	0114                	addi	a3,sp,128
     d40:	0000                	unimp
     d42:	01d4                	addi	a3,sp,196
     d44:	0000                	unimp
     d46:	0001                	nop
     d48:	dc60                	sw	s0,124(s0)
     d4a:	0001                	nop
     d4c:	f000                	fsw	fs0,32(s0)
     d4e:	0001                	nop
     d50:	0100                	addi	s0,sp,128
     d52:	6000                	flw	fs0,0(s0)
     d54:	01f0                	addi	a2,sp,204
     d56:	0000                	unimp
     d58:	01f4                	addi	a3,sp,204
     d5a:	0000                	unimp
     d5c:	0009                	c.nop	2
     d5e:	0080                	addi	s0,sp,64
     d60:	007e                	c.slli	zero,0x1f
     d62:	ff08                	fsw	fa0,56(a4)
     d64:	241a                	fld	fs0,384(sp)
     d66:	f49f 0001 9c00      	0x9c000001f49f
     d6c:	0002                	c.slli64	zero
     d6e:	0100                	addi	s0,sp,128
     d70:	6000                	flw	fs0,0(s0)
     d72:	029c                	addi	a5,sp,320
     d74:	0000                	unimp
     d76:	03c8                	addi	a0,sp,452
     d78:	0000                	unimp
     d7a:	0001                	nop
     d7c:	285c                	fld	fa5,144(s0)
     d7e:	0004                	0x4
     d80:	3400                	fld	fs0,40(s0)
     d82:	0004                	0x4
     d84:	0100                	addi	s0,sp,128
     d86:	5c00                	lw	s0,56(s0)
	...
     d90:	000c                	0xc
     d92:	0000                	unimp
     d94:	0024                	addi	s1,sp,8
     d96:	0000                	unimp
     d98:	0001                	nop
     d9a:	245d                	jal	1040 <main+0x3d0>
     d9c:	0000                	unimp
     d9e:	3400                	fld	fs0,40(s0)
     da0:	0000                	unimp
     da2:	0100                	addi	s0,sp,128
     da4:	6100                	flw	fs0,0(a0)
     da6:	00f4                	addi	a3,sp,76
     da8:	0000                	unimp
     daa:	00f8                	addi	a4,sp,76
     dac:	0000                	unimp
     dae:	0001                	nop
     db0:	0861                	addi	a6,a6,24
     db2:	0001                	nop
     db4:	1000                	addi	s0,sp,32
     db6:	0001                	nop
     db8:	0100                	addi	s0,sp,128
     dba:	5d00                	lw	s0,56(a0)
     dbc:	0110                	addi	a2,sp,128
     dbe:	0000                	unimp
     dc0:	0128                	addi	a0,sp,136
     dc2:	0000                	unimp
     dc4:	0001                	nop
     dc6:	dc61                	beqz	s0,d9e <main+0x12e>
     dc8:	0001                	nop
     dca:	e400                	fsw	fs0,8(s0)
     dcc:	0001                	nop
     dce:	0100                	addi	s0,sp,128
     dd0:	6100                	flw	fs0,0(a0)
     dd2:	029c                	addi	a5,sp,320
     dd4:	0000                	unimp
     dd6:	0308                	addi	a0,sp,384
     dd8:	0000                	unimp
     dda:	0001                	nop
     ddc:	085d                	addi	a6,a6,23
     dde:	0c000003          	lb	zero,192(zero) # c0 <buflen.1937+0x80>
     de2:	01000003          	lb	zero,16(zero) # 10 <buf.1936+0x10>
     de6:	6100                	flw	fs0,0(a0)
     de8:	030c                	addi	a1,sp,384
     dea:	0000                	unimp
     dec:	03d4                	addi	a3,sp,452
     dee:	0000                	unimp
     df0:	0001                	nop
     df2:	285d                	jal	ea8 <main+0x238>
     df4:	0004                	0x4
     df6:	3400                	fld	fs0,40(s0)
     df8:	0004                	0x4
     dfa:	0100                	addi	s0,sp,128
     dfc:	5d00                	lw	s0,56(a0)
	...
     e06:	0010                	0x10
     e08:	0000                	unimp
     e0a:	0064                	addi	s1,sp,12
     e0c:	0000                	unimp
     e0e:	0001                	nop
     e10:	645a                	flw	fs0,148(sp)
     e12:	0000                	unimp
     e14:	b400                	fsd	fs0,40(s0)
     e16:	0000                	unimp
     e18:	0100                	addi	s0,sp,128
     e1a:	5600                	lw	s0,40(a2)
     e1c:	00f4                	addi	a3,sp,76
     e1e:	0000                	unimp
     e20:	019c                	addi	a5,sp,192
     e22:	0000                	unimp
     e24:	0001                	nop
     e26:	dc56                	sw	s5,56(sp)
     e28:	0001                	nop
     e2a:	fc00                	fsw	fs0,56(s0)
     e2c:	0001                	nop
     e2e:	0100                	addi	s0,sp,128
     e30:	5600                	lw	s0,40(a2)
     e32:	01fc                	addi	a5,sp,204
     e34:	0000                	unimp
     e36:	0204                	addi	s1,sp,256
     e38:	0000                	unimp
     e3a:	0001                	nop
     e3c:	105a                	c.slli	zero,0x36
     e3e:	0002                	c.slli64	zero
     e40:	2400                	fld	fs0,8(s0)
     e42:	01000003          	lb	zero,16(zero) # 10 <buf.1936+0x10>
     e46:	5600                	lw	s0,40(a2)
     e48:	0324                	addi	s1,sp,392
     e4a:	0000                	unimp
     e4c:	0334                	addi	a3,sp,392
     e4e:	0000                	unimp
     e50:	0001                	nop
     e52:	345a                	fld	fs0,432(sp)
     e54:	14000003          	lb	zero,320(zero) # 140 <SIM_STOP+0x48>
     e58:	0004                	0x4
     e5a:	0600                	addi	s0,sp,768
     e5c:	7a00                	flw	fs0,48(a2)
     e5e:	7b00                	flw	fs0,48(a4)
     e60:	2400                	fld	fs0,8(s0)
     e62:	289f 0004 3400      	0x34000004289f
     e68:	0004                	0x4
     e6a:	0100                	addi	s0,sp,128
     e6c:	5600                	lw	s0,40(a2)
	...
     e76:	0010                	0x10
     e78:	0000                	unimp
     e7a:	007c                	addi	a5,sp,12
     e7c:	0000                	unimp
     e7e:	0001                	nop
     e80:	0000f45b          	0xf45b
     e84:	4800                	lw	s0,16(s0)
     e86:	0001                	nop
     e88:	0100                	addi	s0,sp,128
     e8a:	5b00                	lw	s0,48(a4)
     e8c:	0148                	addi	a0,sp,132
     e8e:	0000                	unimp
     e90:	0164                	addi	s1,sp,140
     e92:	0000                	unimp
     e94:	0001                	nop
     e96:	dc5f 0001 f800      	0xf8000001dc5f
     e9c:	0001                	nop
     e9e:	0100                	addi	s0,sp,128
     ea0:	5b00                	lw	s0,48(a4)
     ea2:	01f8                	addi	a4,sp,204
     ea4:	0000                	unimp
     ea6:	0208                	addi	a0,sp,256
     ea8:	0000                	unimp
     eaa:	0001                	nop
     eac:	105f 0002 5800      	0x58000002105f
     eb2:	0002                	c.slli64	zero
     eb4:	0100                	addi	s0,sp,128
     eb6:	6100                	flw	fs0,0(a0)
     eb8:	0298                	addi	a4,sp,320
     eba:	0000                	unimp
     ebc:	029c                	addi	a5,sp,320
     ebe:	0000                	unimp
     ec0:	0001                	nop
     ec2:	9c5f 0002 b400      	0xb40000029c5f
     ec8:	0002                	c.slli64	zero
     eca:	0100                	addi	s0,sp,128
     ecc:	5b00                	lw	s0,48(a4)
     ece:	02b4                	addi	a3,sp,328
     ed0:	0000                	unimp
     ed2:	02ec                	addi	a1,sp,332
     ed4:	0000                	unimp
     ed6:	0001                	nop
     ed8:	ec5f 0002 f000      	0xf0000002ec5f
     ede:	0002                	c.slli64	zero
     ee0:	0100                	addi	s0,sp,128
     ee2:	5b00                	lw	s0,48(a4)
     ee4:	02f0                	addi	a2,sp,332
     ee6:	0000                	unimp
     ee8:	031c                	addi	a5,sp,384
     eea:	0000                	unimp
     eec:	0001                	nop
     eee:	345f 0003 b400      	0xb4000003345f
     ef4:	01000003          	lb	zero,16(zero) # 10 <buf.1936+0x10>
     ef8:	5600                	lw	s0,40(a2)
     efa:	03b4                	addi	a3,sp,456
     efc:	0000                	unimp
     efe:	0400                	addi	s0,sp,512
     f00:	0000                	unimp
     f02:	0001                	nop
     f04:	285f 0004 2c00      	0x2c000004285f
     f0a:	0004                	0x4
     f0c:	0100                	addi	s0,sp,128
     f0e:	5b00                	lw	s0,48(a4)
     f10:	042c                	addi	a1,sp,520
     f12:	0000                	unimp
     f14:	0434                	addi	a3,sp,520
     f16:	0000                	unimp
     f18:	0001                	nop
     f1a:	005f 0000 0000      	0x5f
     f20:	0000                	unimp
     f22:	f800                	fsw	fs0,48(s0)
     f24:	0001                	nop
     f26:	2000                	fld	fs0,0(s0)
     f28:	0002                	c.slli64	zero
     f2a:	0100                	addi	s0,sp,128
     f2c:	5b00                	lw	s0,48(a4)
     f2e:	0334                	addi	a3,sp,392
     f30:	0000                	unimp
     f32:	0338                	addi	a4,sp,392
     f34:	0000                	unimp
     f36:	0001                	nop
     f38:	005e                	c.slli	zero,0x17
     f3a:	0000                	unimp
     f3c:	0000                	unimp
     f3e:	0000                	unimp
     f40:	ec00                	fsw	fs0,24(s0)
     f42:	0000                	unimp
     f44:	f400                	fsw	fs0,40(s0)
     f46:	0000                	unimp
     f48:	0100                	addi	s0,sp,128
     f4a:	5e00                	lw	s0,56(a2)
     f4c:	03b4                	addi	a3,sp,456
     f4e:	0000                	unimp
     f50:	0428                	addi	a0,sp,520
     f52:	0000                	unimp
     f54:	0001                	nop
     f56:	005e                	c.slli	zero,0x17
     f58:	0000                	unimp
     f5a:	0000                	unimp
     f5c:	0000                	unimp
     f5e:	4800                	lw	s0,16(s0)
     f60:	0001                	nop
     f62:	4c00                	lw	s0,24(s0)
     f64:	0001                	nop
     f66:	0200                	addi	s0,sp,256
     f68:	3100                	fld	fs0,32(a0)
     f6a:	4c9f 0001 d400      	0xd40000014c9f
     f70:	0001                	nop
     f72:	0100                	addi	s0,sp,128
     f74:	5b00                	lw	s0,48(a4)
     f76:	0298                	addi	a4,sp,320
     f78:	0000                	unimp
     f7a:	029c                	addi	a5,sp,320
     f7c:	0000                	unimp
     f7e:	0001                	nop
     f80:	0000005b          	0x5b
     f84:	0000                	unimp
     f86:	0000                	unimp
     f88:	f000                	fsw	fs0,32(s0)
     f8a:	0001                	nop
     f8c:	0000                	unimp
     f8e:	0002                	c.slli64	zero
     f90:	0100                	addi	s0,sp,128
     f92:	5d00                	lw	s0,56(a0)
     f94:	0300                	addi	s0,sp,384
     f96:	0000                	unimp
     f98:	0320                	addi	s0,sp,392
     f9a:	0000                	unimp
     f9c:	0001                	nop
     f9e:	0060                	addi	s0,sp,12
     fa0:	0000                	unimp
     fa2:	0000                	unimp
     fa4:	0000                	unimp
     fa6:	4c00                	lw	s0,24(s0)
     fa8:	0000                	unimp
     faa:	6c00                	flw	fs0,24(s0)
     fac:	0000                	unimp
     fae:	0100                	addi	s0,sp,128
     fb0:	5e00                	lw	s0,56(a2)
     fb2:	0140                	addi	s0,sp,132
     fb4:	0000                	unimp
     fb6:	014c                	addi	a1,sp,132
     fb8:	0000                	unimp
     fba:	0001                	nop
     fbc:	f05e                	fsw	fs7,32(sp)
     fbe:	0001                	nop
     fc0:	0c00                	addi	s0,sp,528
     fc2:	0002                	c.slli64	zero
     fc4:	0100                	addi	s0,sp,128
     fc6:	5e00                	lw	s0,56(a2)
     fc8:	02d4                	addi	a3,sp,324
     fca:	0000                	unimp
     fcc:	02ec                	addi	a1,sp,332
     fce:	0000                	unimp
     fd0:	0001                	nop
     fd2:	0003005b          	0x3005b
     fd6:	1c00                	addi	s0,sp,560
     fd8:	0004                	0x4
     fda:	0100                	addi	s0,sp,128
     fdc:	5b00                	lw	s0,48(a4)
	...
     fe6:	0020                	addi	s0,sp,8
     fe8:	0000                	unimp
     fea:	0050                	addi	a2,sp,4
     fec:	0000                	unimp
     fee:	0001                	nop
     ff0:	505c                	lw	a5,36(s0)
     ff2:	0000                	unimp
     ff4:	5c00                	lw	s0,56(s0)
     ff6:	0000                	unimp
     ff8:	0900                	addi	s0,sp,144
     ffa:	7c00                	flw	fs0,56(s0)
     ffc:	7e00                	flw	fs0,56(a2)
     ffe:	0800                	addi	s0,sp,16
    1000:	1aff                	0x1aff
    1002:	9f24                	0x9f24
    1004:	005c                	addi	a5,sp,4
    1006:	0000                	unimp
    1008:	00ec                	addi	a1,sp,76
    100a:	0000                	unimp
    100c:	0001                	nop
    100e:	f460                	fsw	fs0,108(s0)
    1010:	0000                	unimp
    1012:	0800                	addi	s0,sp,16
    1014:	0001                	nop
    1016:	0100                	addi	s0,sp,128
    1018:	5c00                	lw	s0,56(s0)
	...
    1022:	0034                	addi	a3,sp,8
    1024:	0000                	unimp
    1026:	0044                	addi	s1,sp,4
    1028:	0000                	unimp
    102a:	0001                	nop
    102c:	005d                	c.nop	23
    102e:	0000                	unimp
    1030:	0000                	unimp
    1032:	0000                	unimp
    1034:	6800                	flw	fs0,16(s0)
    1036:	0000                	unimp
    1038:	cc00                	sw	s0,24(s0)
    103a:	0000                	unimp
    103c:	0100                	addi	s0,sp,128
    103e:	5a00                	lw	s0,48(a2)
    1040:	00cc                	addi	a1,sp,68
    1042:	0000                	unimp
    1044:	00ec                	addi	a1,sp,76
    1046:	0000                	unimp
    1048:	0005                	c.nop	1
    104a:	0080                	addi	s0,sp,64
    104c:	2540                	fld	fs0,136(a0)
    104e:	009f 0000 0000      	0x9f
    1054:	0000                	unimp
    1056:	7400                	flw	fs0,40(s0)
    1058:	0000                	unimp
    105a:	ec00                	fsw	fs0,24(s0)
    105c:	0000                	unimp
    105e:	0100                	addi	s0,sp,128
    1060:	5c00                	lw	s0,56(s0)
	...
    106a:	007c                	addi	a5,sp,12
    106c:	0000                	unimp
    106e:	0098                	addi	a4,sp,64
    1070:	0000                	unimp
    1072:	0001                	nop
    1074:	0000985b          	0x985b
    1078:	e800                	fsw	fs0,16(s0)
    107a:	0000                	unimp
    107c:	0100                	addi	s0,sp,128
    107e:	5e00                	lw	s0,56(a2)
	...
    1088:	00bc                	addi	a5,sp,72
    108a:	0000                	unimp
    108c:	00d8                	addi	a4,sp,68
    108e:	0000                	unimp
    1090:	0001                	nop
    1092:	d85d                	beqz	s0,1048 <main+0x3d8>
    1094:	0000                	unimp
    1096:	ec00                	fsw	fs0,24(s0)
    1098:	0000                	unimp
    109a:	0100                	addi	s0,sp,128
    109c:	5a00                	lw	s0,48(a2)
	...
    10a6:	0074                	addi	a3,sp,12
    10a8:	0000                	unimp
    10aa:	0080                	addi	s0,sp,64
    10ac:	0000                	unimp
    10ae:	0001                	nop
    10b0:	885e                	mv	a6,s7
    10b2:	0000                	unimp
    10b4:	9400                	0x9400
    10b6:	0000                	unimp
    10b8:	0100                	addi	s0,sp,128
    10ba:	5d00                	lw	s0,56(a0)
    10bc:	0098                	addi	a4,sp,64
    10be:	0000                	unimp
    10c0:	00bc                	addi	a5,sp,72
    10c2:	0000                	unimp
    10c4:	0001                	nop
    10c6:	005d                	c.nop	23
    10c8:	0000                	unimp
    10ca:	0000                	unimp
    10cc:	0000                	unimp
    10ce:	b000                	fsd	fs0,32(s0)
    10d0:	0000                	unimp
    10d2:	c000                	sw	s0,0(s0)
    10d4:	0000                	unimp
    10d6:	0100                	addi	s0,sp,128
    10d8:	5f00                	lw	s0,56(a4)
    10da:	00c8                	addi	a0,sp,68
    10dc:	0000                	unimp
    10de:	00d4                	addi	a3,sp,68
    10e0:	0000                	unimp
    10e2:	0001                	nop
    10e4:	0056                	c.slli	zero,0x15
    10e6:	0000                	unimp
    10e8:	0000                	unimp
    10ea:	0000                	unimp
    10ec:	8800                	0x8800
    10ee:	0000                	unimp
    10f0:	b000                	fsd	fs0,32(s0)
    10f2:	0000                	unimp
    10f4:	0100                	addi	s0,sp,128
    10f6:	5f00                	lw	s0,56(a4)
    10f8:	00b0                	addi	a2,sp,72
    10fa:	0000                	unimp
    10fc:	00c8                	addi	a0,sp,68
    10fe:	0000                	unimp
    1100:	0006                	c.slli	zero,0x1
    1102:	007c                	addi	a5,sp,12
    1104:	9f1e007b          	0x9f1e007b
    1108:	00c8                	addi	a0,sp,68
    110a:	0000                	unimp
    110c:	00ec                	addi	a1,sp,76
    110e:	0000                	unimp
    1110:	0001                	nop
    1112:	0000005b          	0x5b
    1116:	0000                	unimp
    1118:	0000                	unimp
    111a:	f400                	fsw	fs0,40(s0)
    111c:	24000003          	lb	zero,576(zero) # 240 <_start+0x40>
    1120:	0004                	0x4
    1122:	0100                	addi	s0,sp,128
    1124:	6100                	flw	fs0,0(a0)
	...
    112e:	03f4                	addi	a3,sp,460
    1130:	0000                	unimp
    1132:	0408                	addi	a0,sp,512
    1134:	0000                	unimp
    1136:	0010                	0x10
    1138:	008c                	addi	a1,sp,64
    113a:	ff0a                	fsw	ft2,188(sp)
    113c:	1aff                	0x1aff
    113e:	007d                	c.nop	31
    1140:	ff0a                	fsw	ft2,188(sp)
    1142:	1aff                	0x1aff
    1144:	2440                	fld	fs0,136(s0)
    1146:	9f22                	add	t5,t5,s0
    1148:	0408                	addi	a0,sp,512
    114a:	0000                	unimp
    114c:	0410                	addi	a2,sp,512
    114e:	0000                	unimp
    1150:	0015                	c.nop	5
    1152:	008c                	addi	a1,sp,64
    1154:	ff0a                	fsw	ft2,188(sp)
    1156:	1aff                	0x1aff
    1158:	008c                	addi	a1,sp,64
    115a:	2540                	fld	fs0,136(a0)
    115c:	0076                	c.slli	zero,0x1d
    115e:	0a22                	slli	s4,s4,0x8
    1160:	ffff                	0xffff
    1162:	401a                	0x401a
    1164:	2224                	fld	fs1,64(a2)
    1166:	009f 0000 0000      	0x9f
    116c:	0000                	unimp
    116e:	3400                	fld	fs0,40(s0)
    1170:	78000003          	lb	zero,1920(zero) # 780 <vprintfmt.constprop.0+0x35a>
    1174:	01000003          	lb	zero,16(zero) # 10 <buf.1936+0x10>
    1178:	6d00                	flw	fs0,24(a0)
    117a:	0378                	addi	a4,sp,396
    117c:	0000                	unimp
    117e:	03d4                	addi	a3,sp,452
    1180:	0000                	unimp
    1182:	0005                	c.nop	1
    1184:	007d                	c.nop	31
    1186:	2540                	fld	fs0,136(a0)
    1188:	009f 0000 0000      	0x9f
    118e:	0000                	unimp
    1190:	3400                	fld	fs0,40(s0)
    1192:	7c000003          	lb	zero,1984(zero) # 7c0 <vprintfmt.constprop.0+0x39a>
    1196:	01000003          	lb	zero,16(zero) # 10 <buf.1936+0x10>
    119a:	5f00                	lw	s0,56(a4)
    119c:	037c                	addi	a5,sp,396
    119e:	0000                	unimp
    11a0:	03d4                	addi	a3,sp,452
    11a2:	0000                	unimp
    11a4:	007d0007          	0x7d0007
    11a8:	2440                	fld	fs0,136(s0)
    11aa:	2540                	fld	fs0,136(a0)
    11ac:	009f 0000 0000      	0x9f
    11b2:	0000                	unimp
    11b4:	3800                	fld	fs0,48(s0)
    11b6:	54000003          	lb	zero,1344(zero) # 540 <vprintfmt.constprop.0+0x11a>
    11ba:	01000003          	lb	zero,16(zero) # 10 <buf.1936+0x10>
    11be:	5e00                	lw	s0,56(a2)
    11c0:	0354                	addi	a3,sp,388
    11c2:	0000                	unimp
    11c4:	03a8                	addi	a0,sp,456
    11c6:	0000                	unimp
    11c8:	0001                	nop
    11ca:	006c                	addi	a1,sp,12
    11cc:	0000                	unimp
    11ce:	0000                	unimp
    11d0:	0000                	unimp
    11d2:	7000                	flw	fs0,32(s0)
    11d4:	94000003          	lb	zero,-1728(zero) # fffff940 <__C_STACK_TOP__+0xfffef940>
    11d8:	01000003          	lb	zero,16(zero) # 10 <buf.1936+0x10>
    11dc:	6000                	flw	fs0,0(s0)
    11de:	0394                	addi	a3,sp,448
    11e0:	0000                	unimp
    11e2:	03b4                	addi	a3,sp,456
    11e4:	0000                	unimp
    11e6:	0001                	nop
    11e8:	005e                	c.slli	zero,0x17
    11ea:	0000                	unimp
    11ec:	0000                	unimp
    11ee:	0000                	unimp
    11f0:	3400                	fld	fs0,40(s0)
    11f2:	3c000003          	lb	zero,960(zero) # 3c0 <printf_putch+0xc2>
    11f6:	01000003          	lb	zero,16(zero) # 10 <buf.1936+0x10>
    11fa:	6100                	flw	fs0,0(a0)
    11fc:	0344                	addi	s1,sp,388
    11fe:	0000                	unimp
    1200:	0350                	addi	a2,sp,388
    1202:	0000                	unimp
    1204:	0001                	nop
    1206:	5060                	lw	s0,100(s0)
    1208:	54000003          	lb	zero,1344(zero) # 540 <vprintfmt.constprop.0+0x11a>
    120c:	08000003          	lb	zero,128(zero) # 80 <buflen.1937+0x40>
    1210:	7600                	flw	fs0,40(a2)
    1212:	4000                	lw	s0,0(s0)
    1214:	8125                	srli	a0,a0,0x9
    1216:	2100                	fld	fs0,0(a0)
    1218:	549f 0003 7000      	0x70000003549f
    121e:	01000003          	lb	zero,16(zero) # 10 <buf.1936+0x10>
    1222:	6000                	flw	fs0,0(s0)
	...
    122c:	036c                	addi	a1,sp,396
    122e:	0000                	unimp
    1230:	0374                	addi	a3,sp,396
    1232:	0000                	unimp
    1234:	0001                	nop
    1236:	8461                	srai	s0,s0,0x18
    1238:	90000003          	lb	zero,-1792(zero) # fffff900 <__C_STACK_TOP__+0xfffef900>
    123c:	01000003          	lb	zero,16(zero) # 10 <buf.1936+0x10>
    1240:	5f00                	lw	s0,56(a4)
    1242:	0390                	addi	a2,sp,448
    1244:	0000                	unimp
    1246:	0394                	addi	a3,sp,448
    1248:	0000                	unimp
    124a:	000a                	c.slli	zero,0x2
    124c:	0076                	c.slli	zero,0x1d
    124e:	2440                	fld	fs0,136(s0)
    1250:	2540                	fld	fs0,136(a0)
    1252:	0081                	addi	ra,ra,0
    1254:	9f21                	0x9f21
    1256:	0394                	addi	a3,sp,448
    1258:	0000                	unimp
    125a:	0400                	addi	s0,sp,512
    125c:	0000                	unimp
    125e:	0001                	nop
    1260:	005f 0000 0000      	0x5f
    1266:	0000                	unimp
    1268:	4400                	lw	s0,8(s0)
    126a:	78000003          	lb	zero,1920(zero) # 780 <vprintfmt.constprop.0+0x35a>
    126e:	01000003          	lb	zero,16(zero) # 10 <buf.1936+0x10>
    1272:	6e00                	flw	fs0,24(a2)
    1274:	0378                	addi	a4,sp,396
    1276:	0000                	unimp
    1278:	03b0                	addi	a2,sp,456
    127a:	0000                	unimp
    127c:	0001                	nop
    127e:	b06d                	j	b28 <putchar+0x20>
    1280:	b8000003          	lb	zero,-1152(zero) # fffffb80 <__C_STACK_TOP__+0xfffefb80>
    1284:	0a000003          	lb	zero,160(zero) # a0 <buflen.1937+0x60>
    1288:	7d00                	flw	fs0,56(a0)
    128a:	4000                	lw	s0,0(s0)
    128c:	4024                	lw	s1,64(s0)
    128e:	8025                	srli	s0,s0,0x9
    1290:	1e00                	addi	s0,sp,816
    1292:	009f 0000 0000      	0x9f
    1298:	0000                	unimp
    129a:	cc00                	sw	s0,24(s0)
    129c:	10000003          	lb	zero,256(zero) # 100 <SIM_STOP+0x8>
    12a0:	0004                	0x4
    12a2:	0100                	addi	s0,sp,128
    12a4:	6c00                	flw	fs0,24(s0)
	...
    12ae:	03cc                	addi	a1,sp,452
    12b0:	0000                	unimp
    12b2:	03d8                	addi	a4,sp,452
    12b4:	0000                	unimp
    12b6:	0006                	c.slli	zero,0x1
    12b8:	0076                	c.slli	zero,0x1d
    12ba:	007c                	addi	a5,sp,12
    12bc:	9f1e                	add	t5,t5,t2
    12be:	03d8                	addi	a4,sp,452
    12c0:	0000                	unimp
    12c2:	03dc                	addi	a5,sp,452
    12c4:	0000                	unimp
    12c6:	0001                	nop
    12c8:	dc56                	sw	s5,56(sp)
    12ca:	e4000003          	lb	zero,-448(zero) # fffffe40 <__C_STACK_TOP__+0xfffefe40>
    12ce:	09000003          	lb	zero,144(zero) # 90 <buflen.1937+0x50>
    12d2:	8d00                	0x8d00
    12d4:	7e7f                	0x7e7f
    12d6:	1a00                	addi	s0,sp,304
    12d8:	007c                	addi	a5,sp,12
    12da:	9f1e                	add	t5,t5,t2
    12dc:	03e4                	addi	s1,sp,460
    12de:	0000                	unimp
    12e0:	0408                	addi	a0,sp,512
    12e2:	0000                	unimp
    12e4:	0001                	nop
    12e6:	085d                	addi	a6,a6,23
    12e8:	0004                	0x4
    12ea:	1000                	addi	s0,sp,32
    12ec:	0004                	0x4
    12ee:	0800                	addi	s0,sp,16
    12f0:	8c00                	0x8c00
    12f2:	4000                	lw	s0,0(s0)
    12f4:	7625                	lui	a2,0xfffe9
    12f6:	2200                	fld	fs0,0(a2)
    12f8:	009f 0000 0000      	0x9f
    12fe:	0000                	unimp
    1300:	d000                	sw	s0,32(s0)
    1302:	28000003          	lb	zero,640(zero) # 280 <trap_entry+0x1e>
    1306:	0004                	0x4
    1308:	0100                	addi	s0,sp,128
    130a:	6000                	flw	fs0,0(s0)
	...
    1314:	03e4                	addi	s1,sp,460
    1316:	0000                	unimp
    1318:	03f4                	addi	a3,sp,460
    131a:	0000                	unimp
    131c:	0001                	nop
    131e:	0061                	c.nop	24
    1320:	0000                	unimp
    1322:	0000                	unimp
    1324:	0000                	unimp
    1326:	bc00                	fsd	fs0,56(s0)
    1328:	d8000003          	lb	zero,-640(zero) # fffffd80 <__C_STACK_TOP__+0xfffefd80>
    132c:	01000003          	lb	zero,16(zero) # 10 <buf.1936+0x10>
    1330:	5600                	lw	s0,40(a2)
    1332:	03d8                	addi	a4,sp,452
    1334:	0000                	unimp
    1336:	0404                	addi	s1,sp,512
    1338:	0000                	unimp
    133a:	0006                	c.slli	zero,0x1
    133c:	7f8d                	lui	t6,0xfffe3
    133e:	007e                	c.slli	zero,0x1f
    1340:	9f1a                	add	t5,t5,t1
    1342:	0404                	addi	s1,sp,512
    1344:	0000                	unimp
    1346:	0420                	addi	s0,sp,520
    1348:	0000                	unimp
    134a:	0006                	c.slli	zero,0x1
    134c:	007e                	c.slli	zero,0x1f
    134e:	007f                	0x7f
    1350:	9f1a                	add	t5,t5,t1
    1352:	0420                	addi	s0,sp,520
    1354:	0000                	unimp
    1356:	0424                	addi	s1,sp,520
    1358:	0000                	unimp
    135a:	0006                	c.slli	zero,0x1
    135c:	7f8d                	lui	t6,0xfffe3
    135e:	007e                	c.slli	zero,0x1f
    1360:	9f1a                	add	t5,t5,t1
    1362:	0424                	addi	s1,sp,520
    1364:	0000                	unimp
    1366:	0428                	addi	a0,sp,520
    1368:	0000                	unimp
    136a:	0006                	c.slli	zero,0x1
    136c:	017e                	slli	sp,sp,0x1f
    136e:	7f8d                	lui	t6,0xfffe3
    1370:	9f1a                	add	t5,t5,t1
	...
    137a:	03c4                	addi	s1,sp,452
    137c:	0000                	unimp
    137e:	03d0                	addi	a2,sp,452
    1380:	0000                	unimp
    1382:	0001                	nop
    1384:	0060                	addi	s0,sp,12
    1386:	0000                	unimp
    1388:	0000                	unimp
    138a:	0000                	unimp
    138c:	c000                	sw	s0,0(s0)
    138e:	e4000003          	lb	zero,-448(zero) # fffffe40 <__C_STACK_TOP__+0xfffefe40>
    1392:	01000003          	lb	zero,16(zero) # 10 <buf.1936+0x10>
    1396:	6100                	flw	fs0,0(a0)
    1398:	03e4                	addi	s1,sp,460
    139a:	0000                	unimp
    139c:	0424                	addi	s1,sp,520
    139e:	0000                	unimp
    13a0:	0005                	c.nop	1
    13a2:	007e                	c.slli	zero,0x1f
    13a4:	2540                	fld	fs0,136(a0)
    13a6:	249f 0004 2800      	0x28000004249f
    13ac:	0004                	0x4
    13ae:	0500                	addi	s0,sp,640
    13b0:	7e00                	flw	fs0,56(a2)
    13b2:	4001                	c.li	zero,0
    13b4:	9f25                	0x9f25
	...
    13be:	03c8                	addi	a0,sp,452
    13c0:	0000                	unimp
    13c2:	03f0                	addi	a2,sp,460
    13c4:	0000                	unimp
    13c6:	0001                	nop
    13c8:	005c                	addi	a5,sp,4
    13ca:	0000                	unimp
    13cc:	0000                	unimp
    13ce:	0000                	unimp
    13d0:	1400                	addi	s0,sp,544
    13d2:	0001                	nop
    13d4:	d400                	sw	s0,40(s0)
    13d6:	0001                	nop
    13d8:	0100                	addi	s0,sp,128
    13da:	6000                	flw	fs0,0(s0)
    13dc:	01dc                	addi	a5,sp,196
    13de:	0000                	unimp
    13e0:	01f0                	addi	a2,sp,204
    13e2:	0000                	unimp
    13e4:	0001                	nop
    13e6:	f060                	fsw	fs0,100(s0)
    13e8:	0001                	nop
    13ea:	f400                	fsw	fs0,40(s0)
    13ec:	0001                	nop
    13ee:	0900                	addi	s0,sp,144
    13f0:	8000                	0x8000
    13f2:	7e00                	flw	fs0,56(a2)
    13f4:	0800                	addi	s0,sp,16
    13f6:	1aff                	0x1aff
    13f8:	9f24                	0x9f24
    13fa:	01f4                	addi	a3,sp,204
    13fc:	0000                	unimp
    13fe:	029c                	addi	a5,sp,320
    1400:	0000                	unimp
    1402:	0001                	nop
    1404:	0060                	addi	s0,sp,12
    1406:	0000                	unimp
    1408:	0000                	unimp
    140a:	0000                	unimp
    140c:	2800                	fld	fs0,16(s0)
    140e:	0001                	nop
    1410:	4c00                	lw	s0,24(s0)
    1412:	0001                	nop
    1414:	0100                	addi	s0,sp,128
    1416:	6100                	flw	fs0,0(a0)
    1418:	01f0                	addi	a2,sp,204
    141a:	0000                	unimp
    141c:	0210                	addi	a2,sp,256
    141e:	0000                	unimp
    1420:	0001                	nop
    1422:	0061                	c.nop	24
    1424:	0000                	unimp
    1426:	0000                	unimp
    1428:	0000                	unimp
    142a:	5000                	lw	s0,32(s0)
    142c:	0001                	nop
    142e:	d400                	sw	s0,40(s0)
    1430:	0001                	nop
    1432:	0100                	addi	s0,sp,128
    1434:	5c00                	lw	s0,56(s0)
	...
    143e:	0158                	addi	a4,sp,132
    1440:	0000                	unimp
    1442:	01b0                	addi	a2,sp,200
    1444:	0000                	unimp
    1446:	0001                	nop
    1448:	b061                	j	cd0 <main+0x60>
    144a:	0001                	nop
    144c:	d400                	sw	s0,40(s0)
    144e:	0001                	nop
    1450:	0700                	addi	s0,sp,896
    1452:	8000                	0x8000
    1454:	4000                	lw	s0,0(s0)
    1456:	4024                	lw	s1,64(s0)
    1458:	9f25                	0x9f25
	...
    1462:	0164                	addi	s1,sp,140
    1464:	0000                	unimp
    1466:	0180                	addi	s0,sp,192
    1468:	0000                	unimp
    146a:	0001                	nop
    146c:	805f 0001 d000      	0xd0000001805f
    1472:	0001                	nop
    1474:	0100                	addi	s0,sp,128
    1476:	5e00                	lw	s0,56(a2)
	...
    1480:	01a4                	addi	s1,sp,200
    1482:	0000                	unimp
    1484:	01c0                	addi	s0,sp,196
    1486:	0000                	unimp
    1488:	0001                	nop
    148a:	c05d                	beqz	s0,1530 <_strtol_l.isra.0+0xc4>
    148c:	0001                	nop
    148e:	d400                	sw	s0,40(s0)
    1490:	0001                	nop
    1492:	0100                	addi	s0,sp,128
    1494:	5a00                	lw	s0,48(a2)
	...
    149e:	0160                	addi	s0,sp,140
    14a0:	0000                	unimp
    14a2:	0168                	addi	a0,sp,140
    14a4:	0000                	unimp
    14a6:	0001                	nop
    14a8:	705e                	flw	ft0,244(sp)
    14aa:	0001                	nop
    14ac:	7c00                	flw	fs0,56(s0)
    14ae:	0001                	nop
    14b0:	0100                	addi	s0,sp,128
    14b2:	5d00                	lw	s0,56(a0)
    14b4:	0180                	addi	s0,sp,192
    14b6:	0000                	unimp
    14b8:	01a4                	addi	s1,sp,200
    14ba:	0000                	unimp
    14bc:	0001                	nop
    14be:	005d                	c.nop	23
    14c0:	0000                	unimp
    14c2:	0000                	unimp
    14c4:	0000                	unimp
    14c6:	9800                	0x9800
    14c8:	0001                	nop
    14ca:	a800                	fsd	fs0,16(s0)
    14cc:	0001                	nop
    14ce:	0100                	addi	s0,sp,128
    14d0:	5f00                	lw	s0,56(a4)
    14d2:	01b0                	addi	a2,sp,200
    14d4:	0000                	unimp
    14d6:	01bc                	addi	a5,sp,200
    14d8:	0000                	unimp
    14da:	0001                	nop
    14dc:	0056                	c.slli	zero,0x15
    14de:	0000                	unimp
    14e0:	0000                	unimp
    14e2:	0000                	unimp
    14e4:	7000                	flw	fs0,32(s0)
    14e6:	0001                	nop
    14e8:	b000                	fsd	fs0,32(s0)
    14ea:	0001                	nop
    14ec:	0100                	addi	s0,sp,128
    14ee:	5a00                	lw	s0,48(a2)
    14f0:	01b0                	addi	a2,sp,200
    14f2:	0000                	unimp
    14f4:	01d4                	addi	a3,sp,196
    14f6:	0000                	unimp
    14f8:	0001                	nop
    14fa:	0061                	c.nop	24
    14fc:	0000                	unimp
    14fe:	0000                	unimp
    1500:	0000                	unimp
    1502:	1000                	addi	s0,sp,32
    1504:	0002                	c.slli64	zero
    1506:	9c00                	0x9c00
    1508:	0002                	c.slli64	zero
    150a:	0100                	addi	s0,sp,128
    150c:	5a00                	lw	s0,48(a2)
	...
    1516:	0218                	addi	a4,sp,256
    1518:	0000                	unimp
    151a:	026c                	addi	a1,sp,268
    151c:	0000                	unimp
    151e:	0001                	nop
    1520:	6c5f 0002 9c00      	0x9c0000026c5f
    1526:	0002                	c.slli64	zero
    1528:	0700                	addi	s0,sp,896
    152a:	8000                	0x8000
    152c:	4000                	lw	s0,0(s0)
    152e:	4024                	lw	s1,64(s0)
    1530:	9f25                	0x9f25
	...
    153a:	0220                	addi	s0,sp,264
    153c:	0000                	unimp
    153e:	023c                	addi	a5,sp,264
    1540:	0000                	unimp
    1542:	0001                	nop
    1544:	00023c5b          	0x23c5b
    1548:	9c00                	0x9c00
    154a:	0002                	c.slli64	zero
    154c:	0100                	addi	s0,sp,128
    154e:	5c00                	lw	s0,56(s0)
	...
    1558:	0260                	addi	s0,sp,268
    155a:	0000                	unimp
    155c:	027c                	addi	a5,sp,268
    155e:	0000                	unimp
    1560:	0001                	nop
    1562:	7c5d                	lui	s8,0xffff7
    1564:	0002                	c.slli64	zero
    1566:	9c00                	0x9c00
    1568:	0002                	c.slli64	zero
    156a:	0100                	addi	s0,sp,128
    156c:	5e00                	lw	s0,56(a2)
	...
    1576:	0218                	addi	a4,sp,256
    1578:	0000                	unimp
    157a:	0224                	addi	s1,sp,264
    157c:	0000                	unimp
    157e:	0001                	nop
    1580:	2c5e                	fld	fs8,464(sp)
    1582:	0002                	c.slli64	zero
    1584:	3800                	fld	fs0,48(s0)
    1586:	0002                	c.slli64	zero
    1588:	0100                	addi	s0,sp,128
    158a:	5e00                	lw	s0,56(a2)
    158c:	023c                	addi	a5,sp,264
    158e:	0000                	unimp
    1590:	0250                	addi	a2,sp,260
    1592:	0000                	unimp
    1594:	0001                	nop
    1596:	505e                	0x505e
    1598:	0002                	c.slli64	zero
    159a:	6000                	flw	fs0,0(s0)
    159c:	0002                	c.slli64	zero
    159e:	0100                	addi	s0,sp,128
    15a0:	5d00                	lw	s0,56(a0)
	...
    15aa:	0254                	addi	a3,sp,260
    15ac:	0000                	unimp
    15ae:	0264                	addi	s1,sp,268
    15b0:	0000                	unimp
    15b2:	0001                	nop
    15b4:	6c5e                	flw	fs8,212(sp)
    15b6:	0002                	c.slli64	zero
    15b8:	7800                	flw	fs0,48(s0)
    15ba:	0002                	c.slli64	zero
    15bc:	0100                	addi	s0,sp,128
    15be:	5f00                	lw	s0,56(a4)
    15c0:	027c                	addi	a5,sp,268
    15c2:	0000                	unimp
    15c4:	029c                	addi	a5,sp,320
    15c6:	0000                	unimp
    15c8:	0001                	nop
    15ca:	005f 0000 0000      	0x5f
    15d0:	0000                	unimp
    15d2:	2c00                	fld	fs0,24(s0)
    15d4:	0002                	c.slli64	zero
    15d6:	5000                	lw	s0,32(s0)
    15d8:	0002                	c.slli64	zero
    15da:	0100                	addi	s0,sp,128
    15dc:	5d00                	lw	s0,56(a0)
    15de:	0250                	addi	a2,sp,260
    15e0:	0000                	unimp
    15e2:	0268                	addi	a0,sp,268
    15e4:	0000                	unimp
    15e6:	0006                	c.slli	zero,0x1
    15e8:	007f                	0x7f
    15ea:	9f1e007b          	0x9f1e007b
    15ee:	0268                	addi	a0,sp,268
    15f0:	0000                	unimp
    15f2:	0294                	addi	a3,sp,320
    15f4:	0000                	unimp
    15f6:	0001                	nop
    15f8:	0002945b          	0x2945b
    15fc:	9c00                	0x9c00
    15fe:	0002                	c.slli64	zero
    1600:	0a00                	addi	s0,sp,272
    1602:	8000                	0x8000
    1604:	4000                	lw	s0,0(s0)
    1606:	4024                	lw	s1,64(s0)
    1608:	7d25                	lui	s10,0xfffe9
    160a:	1e00                	addi	s0,sp,816
    160c:	009f 0000 0000      	0x9f
    1612:	0000                	unimp
    1614:	a000                	fsd	fs0,0(s0)
    1616:	0002                	c.slli64	zero
    1618:	0800                	addi	s0,sp,16
    161a:	01000003          	lb	zero,16(zero) # 10 <buf.1936+0x10>
    161e:	5d00                	lw	s0,56(a0)
    1620:	0308                	addi	a0,sp,384
    1622:	0000                	unimp
    1624:	0318                	addi	a4,sp,384
    1626:	0000                	unimp
    1628:	0001                	nop
    162a:	0061                	c.nop	24
    162c:	0000                	unimp
    162e:	0000                	unimp
    1630:	0000                	unimp
    1632:	b400                	fsd	fs0,40(s0)
    1634:	0002                	c.slli64	zero
    1636:	dc00                	sw	s0,56(s0)
    1638:	0002                	c.slli64	zero
    163a:	0100                	addi	s0,sp,128
    163c:	5e00                	lw	s0,56(a2)
    163e:	0300                	addi	s0,sp,384
    1640:	0000                	unimp
    1642:	0304                	addi	s1,sp,384
    1644:	0000                	unimp
    1646:	0001                	nop
    1648:	005e                	c.slli	zero,0x17
	...
    1652:	0000                	unimp
    1654:	7000                	flw	fs0,32(s0)
    1656:	0000                	unimp
    1658:	0600                	addi	s0,sp,768
    165a:	5a00                	lw	s0,48(a2)
    165c:	935b0493          	addi	s1,s6,-1739
    1660:	7004                	flw	fs1,32(s0)
    1662:	0000                	unimp
    1664:	e000                	fsw	fs0,0(s0)
    1666:	0000                	unimp
    1668:	0600                	addi	s0,sp,768
    166a:	f300                	fsw	fs0,32(a4)
    166c:	250af503          	0x250af503
    1670:	e09f 0000 3400      	0x34000000e09f
    1676:	0001                	nop
    1678:	0600                	addi	s0,sp,768
    167a:	5a00                	lw	s0,48(a2)
    167c:	935b0493          	addi	s1,s6,-1739
    1680:	3404                	fld	fs1,40(s0)
    1682:	0001                	nop
    1684:	a800                	fsd	fs0,16(s0)
    1686:	0001                	nop
    1688:	0600                	addi	s0,sp,768
    168a:	f300                	fsw	fs0,32(a4)
    168c:	250af503          	0x250af503
    1690:	a89f 0001 d000      	0xd0000001a89f
    1696:	0001                	nop
    1698:	0600                	addi	s0,sp,768
    169a:	5a00                	lw	s0,48(a2)
    169c:	935b0493          	addi	s1,s6,-1739
    16a0:	d004                	sw	s1,32(s0)
    16a2:	0001                	nop
    16a4:	4800                	lw	s0,16(s0)
    16a6:	0002                	c.slli64	zero
    16a8:	0600                	addi	s0,sp,768
    16aa:	f300                	fsw	fs0,32(a4)
    16ac:	250af503          	0x250af503
    16b0:	489f 0002 9800      	0x98000002489f
    16b6:	0002                	c.slli64	zero
    16b8:	0600                	addi	s0,sp,768
    16ba:	5a00                	lw	s0,48(a2)
    16bc:	935b0493          	addi	s1,s6,-1739
    16c0:	9804                	0x9804
    16c2:	0002                	c.slli64	zero
    16c4:	a800                	fsd	fs0,16(s0)
    16c6:	0002                	c.slli64	zero
    16c8:	0600                	addi	s0,sp,768
    16ca:	f300                	fsw	fs0,32(a4)
    16cc:	250af503          	0x250af503
    16d0:	a89f 0002 f400      	0xf4000002a89f
    16d6:	0002                	c.slli64	zero
    16d8:	0600                	addi	s0,sp,768
    16da:	5a00                	lw	s0,48(a2)
    16dc:	935b0493          	addi	s1,s6,-1739
    16e0:	f404                	fsw	fs1,40(s0)
    16e2:	0002                	c.slli64	zero
    16e4:	1000                	addi	s0,sp,32
    16e6:	0004                	0x4
    16e8:	0600                	addi	s0,sp,768
    16ea:	f300                	fsw	fs0,32(a4)
    16ec:	250af503          	0x250af503
    16f0:	009f 0000 0000      	0x9f
    16f6:	0000                	unimp
    16f8:	0000                	unimp
    16fa:	0000                	unimp
    16fc:	6800                	flw	fs0,16(s0)
    16fe:	0000                	unimp
    1700:	0600                	addi	s0,sp,768
    1702:	5c00                	lw	s0,56(s0)
    1704:	935d0493          	addi	s1,s10,-1739 # fffe8935 <__C_STACK_TOP__+0xfffd8935>
    1708:	6804                	flw	fs1,16(s0)
    170a:	0000                	unimp
    170c:	e000                	fsw	fs0,0(s0)
    170e:	0000                	unimp
    1710:	0600                	addi	s0,sp,768
    1712:	f300                	fsw	fs0,32(a4)
    1714:	250cf503          	0x250cf503
    1718:	e09f 0000 fc00      	0xfc000000e09f
    171e:	0000                	unimp
    1720:	0600                	addi	s0,sp,768
    1722:	5c00                	lw	s0,56(s0)
    1724:	935d0493          	addi	s1,s10,-1739
    1728:	fc04                	fsw	fs1,56(s0)
    172a:	0000                	unimp
    172c:	4800                	lw	s0,16(s0)
    172e:	0002                	c.slli64	zero
    1730:	0600                	addi	s0,sp,768
    1732:	f300                	fsw	fs0,32(a4)
    1734:	250cf503          	0x250cf503
    1738:	489f 0002 f000      	0xf0000002489f
    173e:	0002                	c.slli64	zero
    1740:	0600                	addi	s0,sp,768
    1742:	5c00                	lw	s0,56(s0)
    1744:	935d0493          	addi	s1,s10,-1739
    1748:	f004                	fsw	fs1,32(s0)
    174a:	0002                	c.slli64	zero
    174c:	1000                	addi	s0,sp,32
    174e:	0004                	0x4
    1750:	0600                	addi	s0,sp,768
    1752:	f300                	fsw	fs0,32(a4)
    1754:	250cf503          	0x250cf503
    1758:	009f 0000 0000      	0x9f
    175e:	0000                	unimp
    1760:	a400                	fsd	fs0,8(s0)
    1762:	0002                	c.slli64	zero
    1764:	a800                	fsd	fs0,16(s0)
    1766:	0002                	c.slli64	zero
    1768:	0600                	addi	s0,sp,768
    176a:	5f00                	lw	s0,56(a4)
    176c:	93600493          	li	s1,-1738
    1770:	0004                	0x4
	...
    177a:	0000                	unimp
    177c:	dc00                	sw	s0,56(s0)
    177e:	0000                	unimp
    1780:	0600                	addi	s0,sp,768
    1782:	f200                	fsw	fs0,32(a2)
    1784:	30ba                	fld	ft1,424(sp)
    1786:	0000                	unimp
    1788:	e000                	fsw	fs0,0(s0)
    178a:	0000                	unimp
    178c:	0c00                	addi	s0,sp,528
    178e:	0004                	0x4
    1790:	0600                	addi	s0,sp,768
    1792:	f200                	fsw	fs0,32(a2)
    1794:	30ba                	fld	ft1,424(sp)
	...
    17a2:	0000                	unimp
    17a4:	1800                	addi	s0,sp,48
    17a6:	0000                	unimp
    17a8:	0600                	addi	s0,sp,768
    17aa:	5c00                	lw	s0,56(s0)
    17ac:	935d0493          	addi	s1,s10,-1739
    17b0:	1804                	addi	s1,sp,48
    17b2:	0000                	unimp
    17b4:	3400                	fld	fs0,40(s0)
    17b6:	0000                	unimp
    17b8:	0600                	addi	s0,sp,768
    17ba:	5c00                	lw	s0,56(s0)
    17bc:	935e0493          	addi	s1,t3,-1739
    17c0:	e004                	fsw	fs1,0(s0)
    17c2:	0000                	unimp
    17c4:	e800                	fsw	fs0,16(s0)
    17c6:	0000                	unimp
    17c8:	0600                	addi	s0,sp,768
    17ca:	5c00                	lw	s0,56(s0)
    17cc:	935e0493          	addi	s1,t3,-1739
    17d0:	f404                	fsw	fs1,40(s0)
    17d2:	0000                	unimp
    17d4:	fc00                	fsw	fs0,56(s0)
    17d6:	0000                	unimp
    17d8:	0600                	addi	s0,sp,768
    17da:	5c00                	lw	s0,56(s0)
    17dc:	935e0493          	addi	s1,t3,-1739
    17e0:	fc04                	fsw	fs1,56(s0)
    17e2:	0000                	unimp
    17e4:	0000                	unimp
    17e6:	0001                	nop
    17e8:	0600                	addi	s0,sp,768
    17ea:	6100                	flw	fs0,0(a0)
    17ec:	935e0493          	addi	s1,t3,-1739
    17f0:	4804                	lw	s1,16(s0)
    17f2:	0002                	c.slli64	zero
    17f4:	c400                	sw	s0,8(s0)
    17f6:	0002                	c.slli64	zero
    17f8:	0600                	addi	s0,sp,768
    17fa:	5c00                	lw	s0,56(s0)
    17fc:	935d0493          	addi	s1,s10,-1739
    1800:	0004                	0x4
	...
    180a:	0000                	unimp
    180c:	5400                	lw	s0,40(s0)
    180e:	0000                	unimp
    1810:	0600                	addi	s0,sp,768
    1812:	5a00                	lw	s0,48(a2)
    1814:	935b0493          	addi	s1,s6,-1739
    1818:	5404                	lw	s1,40(s0)
    181a:	0000                	unimp
    181c:	6000                	flw	fs0,0(s0)
    181e:	0000                	unimp
    1820:	0600                	addi	s0,sp,768
    1822:	5a00                	lw	s0,48(a2)
    1824:	93600493          	li	s1,-1738
    1828:	e004                	fsw	fs1,0(s0)
    182a:	0000                	unimp
    182c:	3400                	fld	fs0,40(s0)
    182e:	0001                	nop
    1830:	0600                	addi	s0,sp,768
    1832:	5a00                	lw	s0,48(a2)
    1834:	935b0493          	addi	s1,s6,-1739
    1838:	a804                	fsd	fs1,16(s0)
    183a:	0001                	nop
    183c:	d000                	sw	s0,32(s0)
    183e:	0001                	nop
    1840:	0600                	addi	s0,sp,768
    1842:	5a00                	lw	s0,48(a2)
    1844:	935b0493          	addi	s1,s6,-1739
    1848:	4804                	lw	s1,16(s0)
    184a:	0002                	c.slli64	zero
    184c:	9400                	0x9400
    184e:	0002                	c.slli64	zero
    1850:	0600                	addi	s0,sp,768
    1852:	5a00                	lw	s0,48(a2)
    1854:	935b0493          	addi	s1,s6,-1739
    1858:	9404                	0x9404
    185a:	0002                	c.slli64	zero
    185c:	9800                	0x9800
    185e:	0002                	c.slli64	zero
    1860:	0600                	addi	s0,sp,768
    1862:	5a00                	lw	s0,48(a2)
    1864:	93600493          	li	s1,-1738
    1868:	a804                	fsd	fs1,16(s0)
    186a:	0002                	c.slli64	zero
    186c:	d800                	sw	s0,48(s0)
    186e:	0002                	c.slli64	zero
    1870:	0600                	addi	s0,sp,768
    1872:	5a00                	lw	s0,48(a2)
    1874:	935b0493          	addi	s1,s6,-1739
    1878:	0004                	0x4
    187a:	0000                	unimp
    187c:	0000                	unimp
    187e:	0000                	unimp
    1880:	0400                	addi	s0,sp,512
    1882:	0000                	unimp
    1884:	5c00                	lw	s0,56(s0)
    1886:	0000                	unimp
    1888:	0100                	addi	s0,sp,128
    188a:	5c00                	lw	s0,56(s0)
    188c:	005c                	addi	a5,sp,4
    188e:	0000                	unimp
    1890:	00dc                	addi	a5,sp,68
    1892:	0000                	unimp
    1894:	0001                	nop
    1896:	e061                	bnez	s0,1956 <strcmp+0x17a>
    1898:	0000                	unimp
    189a:	fc00                	fsw	fs0,56(s0)
    189c:	0000                	unimp
    189e:	0100                	addi	s0,sp,128
    18a0:	5c00                	lw	s0,56(s0)
    18a2:	00fc                	addi	a5,sp,76
    18a4:	0000                	unimp
    18a6:	0248                	addi	a0,sp,260
    18a8:	0000                	unimp
    18aa:	0001                	nop
    18ac:	4861                	li	a6,24
    18ae:	0002                	c.slli64	zero
    18b0:	dc00                	sw	s0,56(s0)
    18b2:	01000003          	lb	zero,16(zero) # 10 <buf.1936+0x10>
    18b6:	5c00                	lw	s0,56(s0)
	...
    18c0:	0008                	0x8
    18c2:	0000                	unimp
    18c4:	0018                	0x18
    18c6:	0000                	unimp
    18c8:	0001                	nop
    18ca:	185d                	addi	a6,a6,-9
    18cc:	0000                	unimp
    18ce:	3400                	fld	fs0,40(s0)
    18d0:	0000                	unimp
    18d2:	0100                	addi	s0,sp,128
    18d4:	5e00                	lw	s0,56(a2)
    18d6:	00e0                	addi	s0,sp,76
    18d8:	0000                	unimp
    18da:	00e8                	addi	a0,sp,76
    18dc:	0000                	unimp
    18de:	0001                	nop
    18e0:	f45e                	fsw	fs7,40(sp)
    18e2:	0000                	unimp
    18e4:	1400                	addi	s0,sp,544
    18e6:	0001                	nop
    18e8:	0100                	addi	s0,sp,128
    18ea:	5e00                	lw	s0,56(a2)
    18ec:	01a8                	addi	a0,sp,200
    18ee:	0000                	unimp
    18f0:	01b0                	addi	a2,sp,200
    18f2:	0000                	unimp
    18f4:	0001                	nop
    18f6:	485e                	lw	a6,212(sp)
    18f8:	0002                	c.slli64	zero
    18fa:	c400                	sw	s0,8(s0)
    18fc:	0002                	c.slli64	zero
    18fe:	0100                	addi	s0,sp,128
    1900:	5d00                	lw	s0,56(a0)
    1902:	02c8                	addi	a0,sp,324
    1904:	0000                	unimp
    1906:	040c                	addi	a1,sp,512
    1908:	0000                	unimp
    190a:	0001                	nop
    190c:	005d                	c.nop	23
    190e:	0000                	unimp
    1910:	0000                	unimp
    1912:	0000                	unimp
    1914:	0c00                	addi	s0,sp,528
    1916:	0000                	unimp
    1918:	6400                	flw	fs0,8(s0)
    191a:	0000                	unimp
    191c:	0100                	addi	s0,sp,128
    191e:	5a00                	lw	s0,48(a2)
    1920:	0064                	addi	s1,sp,12
    1922:	0000                	unimp
    1924:	00a8                	addi	a0,sp,72
    1926:	0000                	unimp
    1928:	0001                	nop
    192a:	d45f 0000 dc00      	0xdc000000d45f
    1930:	0000                	unimp
    1932:	0100                	addi	s0,sp,128
    1934:	5f00                	lw	s0,56(a4)
    1936:	00e0                	addi	s0,sp,76
    1938:	0000                	unimp
    193a:	0134                	addi	a3,sp,136
    193c:	0000                	unimp
    193e:	0001                	nop
    1940:	a45a                	fsd	fs6,8(sp)
    1942:	0001                	nop
    1944:	a800                	fsd	fs0,16(s0)
    1946:	0001                	nop
    1948:	0100                	addi	s0,sp,128
    194a:	5f00                	lw	s0,56(a4)
    194c:	01a8                	addi	a0,sp,200
    194e:	0000                	unimp
    1950:	01d0                	addi	a2,sp,196
    1952:	0000                	unimp
    1954:	0001                	nop
    1956:	485a                	lw	a6,148(sp)
    1958:	0002                	c.slli64	zero
    195a:	9800                	0x9800
    195c:	0002                	c.slli64	zero
    195e:	0100                	addi	s0,sp,128
    1960:	5a00                	lw	s0,48(a2)
    1962:	029c                	addi	a5,sp,320
    1964:	0000                	unimp
    1966:	02a8                	addi	a0,sp,328
    1968:	0000                	unimp
    196a:	0001                	nop
    196c:	a85f 0002 f400      	0xf4000002a85f
    1972:	01000003          	lb	zero,16(zero) # 10 <buf.1936+0x10>
    1976:	5a00                	lw	s0,48(a2)
    1978:	03fc                	addi	a5,sp,460
    197a:	0000                	unimp
    197c:	0404                	addi	s1,sp,512
    197e:	0000                	unimp
    1980:	0001                	nop
    1982:	005e                	c.slli	zero,0x17
    1984:	0000                	unimp
    1986:	0000                	unimp
    1988:	0000                	unimp
    198a:	1000                	addi	s0,sp,32
    198c:	0000                	unimp
    198e:	5400                	lw	s0,40(s0)
    1990:	0000                	unimp
    1992:	0100                	addi	s0,sp,128
    1994:	5b00                	lw	s0,48(a4)
    1996:	0054                	addi	a3,sp,4
    1998:	0000                	unimp
    199a:	007c                	addi	a5,sp,12
    199c:	0000                	unimp
    199e:	0001                	nop
    19a0:	e060                	fsw	fs0,68(s0)
    19a2:	0000                	unimp
    19a4:	4c00                	lw	s0,24(s0)
    19a6:	0001                	nop
    19a8:	0100                	addi	s0,sp,128
    19aa:	5b00                	lw	s0,48(a4)
    19ac:	01a8                	addi	a0,sp,200
    19ae:	0000                	unimp
    19b0:	01d8                	addi	a4,sp,196
    19b2:	0000                	unimp
    19b4:	0001                	nop
    19b6:	0001d85b          	0x1d85b
    19ba:	dc00                	sw	s0,56(s0)
    19bc:	0001                	nop
    19be:	0100                	addi	s0,sp,128
    19c0:	6000                	flw	fs0,0(s0)
    19c2:	01dc                	addi	a5,sp,196
    19c4:	0000                	unimp
    19c6:	0218                	addi	a4,sp,256
    19c8:	0000                	unimp
    19ca:	0001                	nop
    19cc:	446c                	lw	a1,76(s0)
    19ce:	0002                	c.slli64	zero
    19d0:	9400                	0x9400
    19d2:	0002                	c.slli64	zero
    19d4:	0100                	addi	s0,sp,128
    19d6:	5b00                	lw	s0,48(a4)
    19d8:	0294                	addi	a3,sp,320
    19da:	0000                	unimp
    19dc:	02a8                	addi	a0,sp,328
    19de:	0000                	unimp
    19e0:	0001                	nop
    19e2:	a860                	fsd	fs0,208(s0)
    19e4:	0002                	c.slli64	zero
    19e6:	d800                	sw	s0,48(s0)
    19e8:	0002                	c.slli64	zero
    19ea:	0100                	addi	s0,sp,128
    19ec:	5b00                	lw	s0,48(a4)
    19ee:	02f0                	addi	a2,sp,332
    19f0:	0000                	unimp
    19f2:	0348                	addi	a0,sp,388
    19f4:	0000                	unimp
    19f6:	0001                	nop
    19f8:	7c5f 0003 f800      	0xf80000037c5f
    19fe:	01000003          	lb	zero,16(zero) # 10 <buf.1936+0x10>
    1a02:	5b00                	lw	s0,48(a4)
    1a04:	03fc                	addi	a5,sp,460
    1a06:	0000                	unimp
    1a08:	040c                	addi	a1,sp,512
    1a0a:	0000                	unimp
    1a0c:	0001                	nop
    1a0e:	0000005b          	0x5b
    1a12:	0000                	unimp
    1a14:	0000                	unimp
    1a16:	c400                	sw	s0,8(s0)
    1a18:	0001                	nop
    1a1a:	ec00                	fsw	fs0,24(s0)
    1a1c:	0001                	nop
    1a1e:	0100                	addi	s0,sp,128
    1a20:	5e00                	lw	s0,56(a2)
    1a22:	02f0                	addi	a2,sp,332
    1a24:	0000                	unimp
    1a26:	02f8                	addi	a4,sp,332
    1a28:	0000                	unimp
    1a2a:	0001                	nop
    1a2c:	005e                	c.slli	zero,0x17
    1a2e:	0000                	unimp
    1a30:	0000                	unimp
    1a32:	0000                	unimp
    1a34:	8c00                	0x8c00
    1a36:	0002                	c.slli64	zero
    1a38:	9c00                	0x9c00
    1a3a:	0002                	c.slli64	zero
    1a3c:	0200                	addi	s0,sp,256
    1a3e:	3100                	fld	fs0,32(a0)
    1a40:	009f 0000 0000      	0x9f
    1a46:	0000                	unimp
    1a48:	9c00                	0x9c00
    1a4a:	0002                	c.slli64	zero
    1a4c:	a800                	fsd	fs0,16(s0)
    1a4e:	0002                	c.slli64	zero
    1a50:	0200                	addi	s0,sp,256
    1a52:	3000                	fld	fs0,32(s0)
    1a54:	ec9f 0003 0c00      	0xc000003ec9f
    1a5a:	0004                	0x4
    1a5c:	0200                	addi	s0,sp,256
    1a5e:	3000                	fld	fs0,32(s0)
    1a60:	009f 0000 0000      	0x9f
    1a66:	0000                	unimp
    1a68:	bc00                	fsd	fs0,56(s0)
    1a6a:	0001                	nop
    1a6c:	cc00                	sw	s0,24(s0)
    1a6e:	0001                	nop
    1a70:	0100                	addi	s0,sp,128
    1a72:	6c00                	flw	fs0,24(s0)
    1a74:	02bc                	addi	a5,sp,328
    1a76:	0000                	unimp
    1a78:	0410                	addi	a2,sp,512
    1a7a:	0000                	unimp
    1a7c:	0001                	nop
    1a7e:	006d                	c.nop	27
    1a80:	0000                	unimp
    1a82:	0000                	unimp
    1a84:	0000                	unimp
    1a86:	4c00                	lw	s0,24(s0)
    1a88:	0000                	unimp
    1a8a:	dc00                	sw	s0,56(s0)
    1a8c:	0000                	unimp
    1a8e:	0100                	addi	s0,sp,128
    1a90:	5600                	lw	s0,40(a2)
    1a92:	012c                	addi	a1,sp,136
    1a94:	0000                	unimp
    1a96:	01a8                	addi	a0,sp,200
    1a98:	0000                	unimp
    1a9a:	0001                	nop
    1a9c:	bc56                	fsd	fs5,56(sp)
    1a9e:	0001                	nop
    1aa0:	4800                	lw	s0,16(s0)
    1aa2:	0002                	c.slli64	zero
    1aa4:	0100                	addi	s0,sp,128
    1aa6:	5600                	lw	s0,40(a2)
    1aa8:	0280                	addi	s0,sp,320
    1aaa:	0000                	unimp
    1aac:	02a8                	addi	a0,sp,328
    1aae:	0000                	unimp
    1ab0:	0001                	nop
    1ab2:	bc6c                	fsd	fa1,248(s0)
    1ab4:	0002                	c.slli64	zero
    1ab6:	0c00                	addi	s0,sp,528
    1ab8:	0004                	0x4
    1aba:	0100                	addi	s0,sp,128
    1abc:	6c00                	flw	fs0,24(s0)
	...
    1ac6:	0020                	addi	s0,sp,8
    1ac8:	0000                	unimp
    1aca:	0068                	addi	a0,sp,12
    1acc:	0000                	unimp
    1ace:	0001                	nop
    1ad0:	e05c                	fsw	fa5,4(s0)
    1ad2:	0000                	unimp
    1ad4:	f400                	fsw	fs0,40(s0)
    1ad6:	0000                	unimp
    1ad8:	0100                	addi	s0,sp,128
    1ada:	5c00                	lw	s0,56(s0)
	...
    1ae4:	0034                	addi	a3,sp,8
    1ae6:	0000                	unimp
    1ae8:	006c                	addi	a1,sp,12
    1aea:	0000                	unimp
    1aec:	0001                	nop
    1aee:	005e                	c.slli	zero,0x17
    1af0:	0000                	unimp
    1af2:	0000                	unimp
    1af4:	0000                	unimp
    1af6:	6800                	flw	fs0,16(s0)
    1af8:	0000                	unimp
    1afa:	d400                	sw	s0,40(s0)
    1afc:	0000                	unimp
    1afe:	0100                	addi	s0,sp,128
    1b00:	5c00                	lw	s0,56(s0)
	...
    1b0a:	0074                	addi	a3,sp,12
    1b0c:	0000                	unimp
    1b0e:	00b8                	addi	a4,sp,72
    1b10:	0000                	unimp
    1b12:	0001                	nop
    1b14:	b85a                	fsd	fs6,48(sp)
    1b16:	0000                	unimp
    1b18:	d400                	sw	s0,40(s0)
    1b1a:	0000                	unimp
    1b1c:	0700                	addi	s0,sp,896
    1b1e:	8100                	0x8100
    1b20:	4000                	lw	s0,0(s0)
    1b22:	4024                	lw	s1,64(s0)
    1b24:	9f25                	0x9f25
	...
    1b2e:	00b0                	addi	a2,sp,72
    1b30:	0000                	unimp
    1b32:	00b4                	addi	a3,sp,72
    1b34:	0000                	unimp
    1b36:	0001                	nop
    1b38:	005d                	c.nop	23
    1b3a:	0000                	unimp
    1b3c:	0000                	unimp
    1b3e:	0000                	unimp
    1b40:	7400                	flw	fs0,40(s0)
    1b42:	0000                	unimp
    1b44:	8000                	0x8000
    1b46:	0000                	unimp
    1b48:	0100                	addi	s0,sp,128
    1b4a:	5e00                	lw	s0,56(a2)
    1b4c:	0088                	addi	a0,sp,64
    1b4e:	0000                	unimp
    1b50:	00b0                	addi	a2,sp,72
    1b52:	0000                	unimp
    1b54:	0001                	nop
    1b56:	005d                	c.nop	23
    1b58:	0000                	unimp
    1b5a:	0000                	unimp
    1b5c:	0000                	unimp
    1b5e:	a400                	fsd	fs0,8(s0)
    1b60:	0000                	unimp
    1b62:	bc00                	fsd	fs0,56(s0)
    1b64:	0000                	unimp
    1b66:	0100                	addi	s0,sp,128
    1b68:	5e00                	lw	s0,56(a2)
    1b6a:	00bc                	addi	a5,sp,72
    1b6c:	0000                	unimp
    1b6e:	00d4                	addi	a3,sp,68
    1b70:	0000                	unimp
    1b72:	0001                	nop
    1b74:	005f 0000 0000      	0x5f
    1b7a:	0000                	unimp
    1b7c:	8800                	0x8800
    1b7e:	0000                	unimp
    1b80:	b400                	fsd	fs0,40(s0)
    1b82:	0000                	unimp
    1b84:	0100                	addi	s0,sp,128
    1b86:	6000                	flw	fs0,0(s0)
    1b88:	00b4                	addi	a3,sp,72
    1b8a:	0000                	unimp
    1b8c:	00d4                	addi	a3,sp,68
    1b8e:	0000                	unimp
    1b90:	0001                	nop
    1b92:	005d                	c.nop	23
	...
    1b9c:	0001                	nop
    1b9e:	3400                	fld	fs0,40(s0)
    1ba0:	0001                	nop
    1ba2:	0100                	addi	s0,sp,128
    1ba4:	6100                	flw	fs0,0(a0)
    1ba6:	01a8                	addi	a0,sp,200
    1ba8:	0000                	unimp
    1baa:	01c0                	addi	s0,sp,196
    1bac:	0000                	unimp
    1bae:	0001                	nop
    1bb0:	0061                	c.nop	24
    1bb2:	0000                	unimp
    1bb4:	0000                	unimp
    1bb6:	0000                	unimp
    1bb8:	1400                	addi	s0,sp,544
    1bba:	0001                	nop
    1bbc:	3400                	fld	fs0,40(s0)
    1bbe:	0001                	nop
    1bc0:	0100                	addi	s0,sp,128
    1bc2:	5e00                	lw	s0,56(a2)
    1bc4:	01bc                	addi	a5,sp,200
    1bc6:	0000                	unimp
    1bc8:	01c4                	addi	s1,sp,196
    1bca:	0000                	unimp
    1bcc:	0001                	nop
    1bce:	005e                	c.slli	zero,0x17
    1bd0:	0000                	unimp
    1bd2:	0000                	unimp
    1bd4:	0000                	unimp
    1bd6:	3800                	fld	fs0,48(s0)
    1bd8:	0001                	nop
    1bda:	a800                	fsd	fs0,16(s0)
    1bdc:	0001                	nop
    1bde:	0100                	addi	s0,sp,128
    1be0:	5e00                	lw	s0,56(a2)
	...
    1bea:	0140                	addi	s0,sp,132
    1bec:	0000                	unimp
    1bee:	0188                	addi	a0,sp,192
    1bf0:	0000                	unimp
    1bf2:	0001                	nop
    1bf4:	885a                	mv	a6,s6
    1bf6:	0001                	nop
    1bf8:	a800                	fsd	fs0,16(s0)
    1bfa:	0001                	nop
    1bfc:	0700                	addi	s0,sp,896
    1bfe:	8100                	0x8100
    1c00:	4000                	lw	s0,0(s0)
    1c02:	4024                	lw	s1,64(s0)
    1c04:	9f25                	0x9f25
	...
    1c0e:	014c                	addi	a1,sp,132
    1c10:	0000                	unimp
    1c12:	0158                	addi	a4,sp,132
    1c14:	0000                	unimp
    1c16:	0001                	nop
    1c18:	0000005b          	0x5b
    1c1c:	0000                	unimp
    1c1e:	0000                	unimp
    1c20:	8000                	0x8000
    1c22:	0001                	nop
    1c24:	8400                	0x8400
    1c26:	0001                	nop
    1c28:	0100                	addi	s0,sp,128
    1c2a:	5b00                	lw	s0,48(a4)
	...
    1c34:	0148                	addi	a0,sp,132
    1c36:	0000                	unimp
    1c38:	0150                	addi	a2,sp,132
    1c3a:	0000                	unimp
    1c3c:	0001                	nop
    1c3e:	585d                	li	a6,-9
    1c40:	0001                	nop
    1c42:	7000                	flw	fs0,32(s0)
    1c44:	0001                	nop
    1c46:	0100                	addi	s0,sp,128
    1c48:	5d00                	lw	s0,56(a0)
    1c4a:	0170                	addi	a2,sp,140
    1c4c:	0000                	unimp
    1c4e:	0180                	addi	s0,sp,192
    1c50:	0000                	unimp
    1c52:	0001                	nop
    1c54:	0000005b          	0x5b
    1c58:	0000                	unimp
    1c5a:	0000                	unimp
    1c5c:	7400                	flw	fs0,40(s0)
    1c5e:	0001                	nop
    1c60:	8c00                	0x8c00
    1c62:	0001                	nop
    1c64:	0100                	addi	s0,sp,128
    1c66:	5d00                	lw	s0,56(a0)
    1c68:	018c                	addi	a1,sp,192
    1c6a:	0000                	unimp
    1c6c:	01a8                	addi	a0,sp,200
    1c6e:	0000                	unimp
    1c70:	0001                	nop
    1c72:	005f 0000 0000      	0x5f
    1c78:	0000                	unimp
    1c7a:	5800                	lw	s0,48(s0)
    1c7c:	0001                	nop
    1c7e:	7000                	flw	fs0,32(s0)
    1c80:	0001                	nop
    1c82:	0100                	addi	s0,sp,128
    1c84:	5b00                	lw	s0,48(a4)
    1c86:	0184                	addi	s1,sp,192
    1c88:	0000                	unimp
    1c8a:	01a8                	addi	a0,sp,200
    1c8c:	0000                	unimp
    1c8e:	0001                	nop
    1c90:	0000005b          	0x5b
    1c94:	0000                	unimp
    1c96:	0000                	unimp
    1c98:	dc00                	sw	s0,56(s0)
    1c9a:	0001                	nop
    1c9c:	4800                	lw	s0,16(s0)
    1c9e:	0002                	c.slli64	zero
    1ca0:	0100                	addi	s0,sp,128
    1ca2:	5a00                	lw	s0,48(a2)
	...
    1cac:	01e4                	addi	s1,sp,204
    1cae:	0000                	unimp
    1cb0:	022c                	addi	a1,sp,264
    1cb2:	0000                	unimp
    1cb4:	0001                	nop
    1cb6:	00022c5b          	0x22c5b
    1cba:	4800                	lw	s0,16(s0)
    1cbc:	0002                	c.slli64	zero
    1cbe:	0700                	addi	s0,sp,896
    1cc0:	8100                	0x8100
    1cc2:	4000                	lw	s0,0(s0)
    1cc4:	4024                	lw	s1,64(s0)
    1cc6:	9f25                	0x9f25
	...
    1cd0:	01ec                	addi	a1,sp,204
    1cd2:	0000                	unimp
    1cd4:	01f8                	addi	a4,sp,204
    1cd6:	0000                	unimp
    1cd8:	0001                	nop
    1cda:	005e                	c.slli	zero,0x17
    1cdc:	0000                	unimp
    1cde:	0000                	unimp
    1ce0:	0000                	unimp
    1ce2:	2000                	fld	fs0,0(s0)
    1ce4:	0002                	c.slli64	zero
    1ce6:	2800                	fld	fs0,16(s0)
    1ce8:	0002                	c.slli64	zero
    1cea:	0100                	addi	s0,sp,128
    1cec:	5c00                	lw	s0,56(s0)
	...
    1cf6:	01e4                	addi	s1,sp,204
    1cf8:	0000                	unimp
    1cfa:	01f0                	addi	a2,sp,204
    1cfc:	0000                	unimp
    1cfe:	0001                	nop
    1d00:	f85d                	bnez	s0,1cb6 <__moddi3+0x30e>
    1d02:	0001                	nop
    1d04:	1000                	addi	s0,sp,32
    1d06:	0002                	c.slli64	zero
    1d08:	0100                	addi	s0,sp,128
    1d0a:	5d00                	lw	s0,56(a0)
    1d0c:	0210                	addi	a2,sp,256
    1d0e:	0000                	unimp
    1d10:	0220                	addi	s0,sp,264
    1d12:	0000                	unimp
    1d14:	0001                	nop
    1d16:	005c                	addi	a5,sp,4
    1d18:	0000                	unimp
    1d1a:	0000                	unimp
    1d1c:	0000                	unimp
    1d1e:	1400                	addi	s0,sp,544
    1d20:	0002                	c.slli64	zero
    1d22:	2400                	fld	fs0,8(s0)
    1d24:	0002                	c.slli64	zero
    1d26:	0100                	addi	s0,sp,128
    1d28:	5d00                	lw	s0,56(a0)
    1d2a:	022c                	addi	a1,sp,264
    1d2c:	0000                	unimp
    1d2e:	0248                	addi	a0,sp,260
    1d30:	0000                	unimp
    1d32:	0001                	nop
    1d34:	0000005b          	0x5b
    1d38:	0000                	unimp
    1d3a:	0000                	unimp
    1d3c:	f800                	fsw	fs0,48(s0)
    1d3e:	0001                	nop
    1d40:	2800                	fld	fs0,16(s0)
    1d42:	0002                	c.slli64	zero
    1d44:	0100                	addi	s0,sp,128
    1d46:	5e00                	lw	s0,56(a2)
    1d48:	0228                	addi	a0,sp,264
    1d4a:	0000                	unimp
    1d4c:	0248                	addi	a0,sp,260
    1d4e:	0000                	unimp
    1d50:	0001                	nop
    1d52:	005c                	addi	a5,sp,4
    1d54:	0000                	unimp
    1d56:	0000                	unimp
    1d58:	0000                	unimp
    1d5a:	4c00                	lw	s0,24(s0)
    1d5c:	0002                	c.slli64	zero
    1d5e:	c400                	sw	s0,8(s0)
    1d60:	0002                	c.slli64	zero
    1d62:	0100                	addi	s0,sp,128
    1d64:	5d00                	lw	s0,56(a0)
	...
    1d6e:	0260                	addi	s0,sp,268
    1d70:	0000                	unimp
    1d72:	02a8                	addi	a0,sp,328
    1d74:	0000                	unimp
    1d76:	0001                	nop
    1d78:	bc5e                	fsd	fs7,56(sp)
    1d7a:	0002                	c.slli64	zero
    1d7c:	c000                	sw	s0,0(s0)
    1d7e:	0002                	c.slli64	zero
    1d80:	0100                	addi	s0,sp,128
    1d82:	5e00                	lw	s0,56(a2)
	...
    1d8c:	0290                	addi	a2,sp,320
    1d8e:	0000                	unimp
    1d90:	029c                	addi	a5,sp,320
    1d92:	0000                	unimp
    1d94:	0001                	nop
    1d96:	005f 0000 0000      	0x5f
    1d9c:	0000                	unimp
    1d9e:	b400                	fsd	fs0,40(s0)
    1da0:	0c000003          	lb	zero,192(zero) # c0 <buflen.1937+0x80>
    1da4:	0004                	0x4
    1da6:	0100                	addi	s0,sp,128
    1da8:	5600                	lw	s0,40(a2)
	...
    1db2:	03cc                	addi	a1,sp,452
    1db4:	0000                	unimp
    1db6:	03e0                	addi	s0,sp,460
    1db8:	0000                	unimp
    1dba:	0001                	nop
    1dbc:	e85e                	fsw	fs7,16(sp)
    1dbe:	ec000003          	lb	zero,-320(zero) # fffffec0 <__C_STACK_TOP__+0xfffefec0>
    1dc2:	01000003          	lb	zero,16(zero) # 10 <buf.1936+0x10>
    1dc6:	5c00                	lw	s0,56(s0)
    1dc8:	03ec                	addi	a1,sp,460
    1dca:	0000                	unimp
    1dcc:	03f0                	addi	a2,sp,460
    1dce:	0000                	unimp
    1dd0:	0001                	nop
    1dd2:	005e                	c.slli	zero,0x17
    1dd4:	0000                	unimp
    1dd6:	0000                	unimp
    1dd8:	0000                	unimp
    1dda:	f400                	fsw	fs0,40(s0)
    1ddc:	0002                	c.slli64	zero
    1dde:	3800                	fld	fs0,48(s0)
    1de0:	01000003          	lb	zero,16(zero) # 10 <buf.1936+0x10>
    1de4:	6000                	flw	fs0,0(s0)
    1de6:	0338                	addi	a4,sp,392
    1de8:	0000                	unimp
    1dea:	040c                	addi	a1,sp,512
    1dec:	0000                	unimp
    1dee:	0005                	c.nop	1
    1df0:	007d                	c.nop	31
    1df2:	2540                	fld	fs0,136(a0)
    1df4:	009f 0000 0000      	0x9f
    1dfa:	0000                	unimp
    1dfc:	f400                	fsw	fs0,40(s0)
    1dfe:	0002                	c.slli64	zero
    1e00:	3c00                	fld	fs0,56(s0)
    1e02:	01000003          	lb	zero,16(zero) # 10 <buf.1936+0x10>
    1e06:	5b00                	lw	s0,48(a4)
    1e08:	033c                	addi	a5,sp,392
    1e0a:	0000                	unimp
    1e0c:	040c                	addi	a1,sp,512
    1e0e:	0000                	unimp
    1e10:	007d0007          	0x7d0007
    1e14:	2440                	fld	fs0,136(s0)
    1e16:	2540                	fld	fs0,136(a0)
    1e18:	009f 0000 0000      	0x9f
    1e1e:	0000                	unimp
    1e20:	f800                	fsw	fs0,48(s0)
    1e22:	0002                	c.slli64	zero
    1e24:	1400                	addi	s0,sp,544
    1e26:	01000003          	lb	zero,16(zero) # 10 <buf.1936+0x10>
    1e2a:	5e00                	lw	s0,56(a2)
    1e2c:	0314                	addi	a3,sp,384
    1e2e:	0000                	unimp
    1e30:	0368                	addi	a0,sp,396
    1e32:	0000                	unimp
    1e34:	0001                	nop
    1e36:	0056                	c.slli	zero,0x15
    1e38:	0000                	unimp
    1e3a:	0000                	unimp
    1e3c:	0000                	unimp
    1e3e:	3000                	fld	fs0,32(s0)
    1e40:	54000003          	lb	zero,1344(zero) # 540 <vprintfmt.constprop.0+0x11a>
    1e44:	01000003          	lb	zero,16(zero) # 10 <buf.1936+0x10>
    1e48:	6100                	flw	fs0,0(a0)
    1e4a:	0354                	addi	a3,sp,388
    1e4c:	0000                	unimp
    1e4e:	0374                	addi	a3,sp,396
    1e50:	0000                	unimp
    1e52:	0001                	nop
    1e54:	005f 0000 0000      	0x5f
    1e5a:	0000                	unimp
    1e5c:	f400                	fsw	fs0,40(s0)
    1e5e:	0002                	c.slli64	zero
    1e60:	fc00                	fsw	fs0,56(s0)
    1e62:	0002                	c.slli64	zero
    1e64:	0100                	addi	s0,sp,128
    1e66:	5600                	lw	s0,40(a2)
    1e68:	0304                	addi	s1,sp,384
    1e6a:	0000                	unimp
    1e6c:	0310                	addi	a2,sp,384
    1e6e:	0000                	unimp
    1e70:	0001                	nop
    1e72:	1461                	addi	s0,s0,-8
    1e74:	30000003          	lb	zero,768(zero) # 300 <printf_putch+0x2>
    1e78:	01000003          	lb	zero,16(zero) # 10 <buf.1936+0x10>
    1e7c:	6100                	flw	fs0,0(a0)
	...
    1e86:	032c                	addi	a1,sp,392
    1e88:	0000                	unimp
    1e8a:	0334                	addi	a3,sp,392
    1e8c:	0000                	unimp
    1e8e:	0001                	nop
    1e90:	446e                	lw	s0,216(sp)
    1e92:	50000003          	lb	zero,1280(zero) # 500 <vprintfmt.constprop.0+0xda>
    1e96:	01000003          	lb	zero,16(zero) # 10 <buf.1936+0x10>
    1e9a:	5b00                	lw	s0,48(a4)
    1e9c:	0354                	addi	a3,sp,388
    1e9e:	0000                	unimp
    1ea0:	03f8                	addi	a4,sp,460
    1ea2:	0000                	unimp
    1ea4:	0001                	nop
    1ea6:	0000005b          	0x5b
    1eaa:	0000                	unimp
    1eac:	0000                	unimp
    1eae:	0400                	addi	s0,sp,512
    1eb0:	2c000003          	lb	zero,704(zero) # 2c0 <trap_entry+0x5e>
    1eb4:	01000003          	lb	zero,16(zero) # 10 <buf.1936+0x10>
    1eb8:	6e00                	flw	fs0,24(a2)
    1eba:	032c                	addi	a1,sp,392
    1ebc:	0000                	unimp
    1ebe:	0338                	addi	a4,sp,392
    1ec0:	0000                	unimp
    1ec2:	0006                	c.slli	zero,0x1
    1ec4:	007e007b          	0x7e007b
    1ec8:	9f1e                	add	t5,t5,t2
    1eca:	0338                	addi	a4,sp,392
    1ecc:	0000                	unimp
    1ece:	0384                	addi	s1,sp,448
    1ed0:	0000                	unimp
    1ed2:	0001                	nop
    1ed4:	0060                	addi	s0,sp,12
    1ed6:	0000                	unimp
    1ed8:	0000                	unimp
    1eda:	0000                	unimp
    1edc:	8c00                	0x8c00
    1ede:	c8000003          	lb	zero,-896(zero) # fffffc80 <__C_STACK_TOP__+0xfffefc80>
    1ee2:	01000003          	lb	zero,16(zero) # 10 <buf.1936+0x10>
    1ee6:	5e00                	lw	s0,56(a2)
	...
    1ef0:	03a4                	addi	s1,sp,456
    1ef2:	0000                	unimp
    1ef4:	03c0                	addi	s0,sp,452
    1ef6:	0000                	unimp
    1ef8:	0001                	nop
    1efa:	c060                	sw	s0,68(s0)
    1efc:	c8000003          	lb	zero,-896(zero) # fffffc80 <__C_STACK_TOP__+0xfffefc80>
    1f00:	08000003          	lb	zero,128(zero) # 80 <buflen.1937+0x40>
    1f04:	7e00                	flw	fs0,56(a2)
    1f06:	4000                	lw	s0,0(s0)
    1f08:	8125                	srli	a0,a0,0x9
    1f0a:	2200                	fld	fs0,0(a2)
    1f0c:	009f 0000 0000      	0x9f
    1f12:	0000                	unimp
    1f14:	9000                	0x9000
    1f16:	b0000003          	lb	zero,-1280(zero) # fffffb00 <__C_STACK_TOP__+0xfffefb00>
    1f1a:	01000003          	lb	zero,16(zero) # 10 <buf.1936+0x10>
    1f1e:	5f00                	lw	s0,56(a4)
	...
    1f28:	0398                	addi	a4,sp,448
    1f2a:	0000                	unimp
    1f2c:	03b4                	addi	a3,sp,456
    1f2e:	0000                	unimp
    1f30:	0001                	nop
    1f32:	0056                	c.slli	zero,0x15
    1f34:	0000                	unimp
    1f36:	0000                	unimp
    1f38:	0000                	unimp
    1f3a:	7c00                	flw	fs0,56(s0)
    1f3c:	94000003          	lb	zero,-1728(zero) # fffff940 <__C_STACK_TOP__+0xfffef940>
    1f40:	01000003          	lb	zero,16(zero) # 10 <buf.1936+0x10>
    1f44:	6100                	flw	fs0,0(a0)
	...
    1f4e:	0388                	addi	a0,sp,448
    1f50:	0000                	unimp
    1f52:	0390                	addi	a2,sp,448
    1f54:	0000                	unimp
    1f56:	0001                	nop
    1f58:	905f 0003 bc00      	0xbc000003905f
    1f5e:	06000003          	lb	zero,96(zero) # 60 <buflen.1937+0x20>
    1f62:	8e00                	0x8e00
    1f64:	7c7f                	0x7c7f
    1f66:	1a00                	addi	s0,sp,304
    1f68:	bc9f 0003 dc00      	0xdc000003bc9f
    1f6e:	06000003          	lb	zero,96(zero) # 60 <buflen.1937+0x20>
    1f72:	7c00                	flw	fs0,56(s0)
    1f74:	7f00                	flw	fs0,56(a4)
    1f76:	1a00                	addi	s0,sp,304
    1f78:	009f 0000 0000      	0x9f
    1f7e:	0000                	unimp
    1f80:	8000                	0x8000
    1f82:	98000003          	lb	zero,-1664(zero) # fffff980 <__C_STACK_TOP__+0xfffef980>
    1f86:	01000003          	lb	zero,16(zero) # 10 <buf.1936+0x10>
    1f8a:	5600                	lw	s0,40(a2)
	...
    1f94:	03dc                	addi	a5,sp,452
    1f96:	0000                	unimp
    1f98:	03ec                	addi	a1,sp,460
    1f9a:	0000                	unimp
    1f9c:	0001                	nop
    1f9e:	005c                	addi	a5,sp,4
    1fa0:	0000                	unimp
    1fa2:	0000                	unimp
    1fa4:	0000                	unimp
    1fa6:	f000                	fsw	fs0,32(s0)
    1fa8:	04000003          	lb	zero,64(zero) # 40 <buflen.1937>
    1fac:	0004                	0x4
    1fae:	0100                	addi	s0,sp,128
    1fb0:	5e00                	lw	s0,56(a2)
	...

Disassembly of section .debug_aranges:

00000000 <.debug_aranges>:
   0:	001c                	0x1c
   2:	0000                	unimp
   4:	0002                	c.slli64	zero
   6:	0000                	unimp
   8:	0000                	unimp
   a:	0004                	0x4
   c:	0000                	unimp
   e:	0000                	unimp
  10:	19a8                	addi	a0,sp,248
  12:	0000                	unimp
  14:	0458                	addi	a4,sp,516
	...
  1e:	0000                	unimp
  20:	001c                	0x1c
  22:	0000                	unimp
  24:	0002                	c.slli64	zero
  26:	12a1                	addi	t0,t0,-24
  28:	0000                	unimp
  2a:	0004                	0x4
  2c:	0000                	unimp
  2e:	0000                	unimp
  30:	1e00                	addi	s0,sp,816
  32:	0000                	unimp
  34:	0434                	addi	a3,sp,520
	...
  3e:	0000                	unimp
  40:	001c                	0x1c
  42:	0000                	unimp
  44:	0002                	c.slli64	zero
  46:	000024bb          	0x24bb
  4a:	0004                	0x4
  4c:	0000                	unimp
  4e:	0000                	unimp
  50:	2234                	fld	fa3,64(a2)
  52:	0000                	unimp
  54:	0410                	addi	a2,sp,512
	...
  5e:	0000                	unimp
  60:	0014                	0x14
  62:	0000                	unimp
  64:	0002                	c.slli64	zero
  66:	00003733          	snez	a4,zero
  6a:	0004                	0x4
	...

Disassembly of section .debug_ranges:

00000000 <.debug_ranges>:
   0:	0030                	addi	a2,sp,8
   2:	0000                	unimp
   4:	010c                	addi	a1,sp,128
   6:	0000                	unimp
   8:	0128                	addi	a0,sp,136
   a:	0000                	unimp
   c:	0458                	addi	a4,sp,516
	...
  16:	0000                	unimp
  18:	0050                	addi	a2,sp,4
  1a:	0000                	unimp
  1c:	007c                	addi	a5,sp,12
  1e:	0000                	unimp
  20:	0128                	addi	a0,sp,136
  22:	0000                	unimp
  24:	013c                	addi	a5,sp,136
	...
  2e:	0000                	unimp
  30:	0148                	addi	a0,sp,132
  32:	0000                	unimp
  34:	0174                	addi	a3,sp,140
  36:	0000                	unimp
  38:	01f0                	addi	a2,sp,204
  3a:	0000                	unimp
  3c:	0204                	addi	s1,sp,256
	...
  46:	0000                	unimp
  48:	0214                	addi	a3,sp,256
  4a:	0000                	unimp
  4c:	021c                	addi	a5,sp,256
  4e:	0000                	unimp
  50:	0224                	addi	s1,sp,264
  52:	0000                	unimp
  54:	0290                	addi	a2,sp,320
	...
  5e:	0000                	unimp
  60:	0294                	addi	a3,sp,320
  62:	0000                	unimp
  64:	02c8                	addi	a0,sp,324
  66:	0000                	unimp
  68:	02f0                	addi	a2,sp,332
  6a:	0000                	unimp
  6c:	0304                	addi	s1,sp,384
	...
  76:	0000                	unimp
  78:	0314                	addi	a3,sp,384
  7a:	0000                	unimp
  7c:	031c                	addi	a5,sp,384
  7e:	0000                	unimp
  80:	0328                	addi	a0,sp,392
  82:	0000                	unimp
  84:	0334                	addi	a3,sp,392
  86:	0000                	unimp
  88:	033c                	addi	a5,sp,392
  8a:	0000                	unimp
  8c:	03b4                	addi	a3,sp,456
  8e:	0000                	unimp
  90:	03b8                	addi	a4,sp,456
  92:	0000                	unimp
  94:	03bc                	addi	a5,sp,456
	...
  9e:	0000                	unimp
  a0:	03b4                	addi	a3,sp,456
  a2:	0000                	unimp
  a4:	03b8                	addi	a4,sp,456
  a6:	0000                	unimp
  a8:	03bc                	addi	a5,sp,456
  aa:	0000                	unimp
  ac:	0414                	addi	a3,sp,512
	...
  be:	0000                	unimp
  c0:	0004                	0x4
  c2:	0000                	unimp
  c4:	01d4                	addi	a3,sp,196
  c6:	0000                	unimp
  c8:	01dc                	addi	a5,sp,196
  ca:	0000                	unimp
  cc:	0424                	addi	s1,sp,520
  ce:	0000                	unimp
  d0:	0428                	addi	a0,sp,520
  d2:	0000                	unimp
  d4:	0434                	addi	a3,sp,520
	...
  de:	0000                	unimp
  e0:	0020                	addi	s0,sp,8
  e2:	0000                	unimp
  e4:	004c                	addi	a1,sp,4
  e6:	0000                	unimp
  e8:	00f4                	addi	a3,sp,76
  ea:	0000                	unimp
  ec:	0108                	addi	a0,sp,128
	...
  f6:	0000                	unimp
  f8:	00ec                	addi	a1,sp,76
  fa:	0000                	unimp
  fc:	00f4                	addi	a3,sp,76
  fe:	0000                	unimp
 100:	0300                	addi	s0,sp,384
 102:	0000                	unimp
 104:	0424                	addi	s1,sp,520
	...
 10e:	0000                	unimp
 110:	030c                	addi	a1,sp,384
 112:	0000                	unimp
 114:	0310                	addi	a2,sp,384
 116:	0000                	unimp
 118:	0314                	addi	a3,sp,384
 11a:	0000                	unimp
 11c:	0318                	addi	a4,sp,384
 11e:	0000                	unimp
 120:	0324                	addi	s1,sp,392
 122:	0000                	unimp
 124:	0330                	addi	a2,sp,392
 126:	0000                	unimp
 128:	0334                	addi	a3,sp,392
 12a:	0000                	unimp
 12c:	03ac                	addi	a1,sp,456
 12e:	0000                	unimp
 130:	03b0                	addi	a2,sp,456
 132:	0000                	unimp
 134:	03b4                	addi	a3,sp,456
	...
 13e:	0000                	unimp
 140:	03ac                	addi	a1,sp,456
 142:	0000                	unimp
 144:	03b0                	addi	a2,sp,456
 146:	0000                	unimp
 148:	03b4                	addi	a3,sp,456
 14a:	0000                	unimp
 14c:	03f4                	addi	a3,sp,460
 14e:	0000                	unimp
 150:	03fc                	addi	a5,sp,460
 152:	0000                	unimp
 154:	0410                	addi	a2,sp,512
 156:	0000                	unimp
 158:	0414                	addi	a3,sp,512
 15a:	0000                	unimp
 15c:	0418                	addi	a4,sp,512
	...
 166:	0000                	unimp
 168:	0114                	addi	a3,sp,128
 16a:	0000                	unimp
 16c:	0140                	addi	s0,sp,132
 16e:	0000                	unimp
 170:	01dc                	addi	a5,sp,196
 172:	0000                	unimp
 174:	01f0                	addi	a2,sp,204
	...
 17e:	0000                	unimp
 180:	0200                	addi	s0,sp,256
 182:	0000                	unimp
 184:	0204                	addi	s1,sp,256
 186:	0000                	unimp
 188:	0208                	addi	a0,sp,256
 18a:	0000                	unimp
 18c:	020c                	addi	a1,sp,256
 18e:	0000                	unimp
 190:	0210                	addi	a2,sp,256
 192:	0000                	unimp
 194:	029c                	addi	a5,sp,320
	...
 19e:	0000                	unimp
 1a0:	02a0                	addi	s0,sp,328
 1a2:	0000                	unimp
 1a4:	02d4                	addi	a3,sp,324
 1a6:	0000                	unimp
 1a8:	02ec                	addi	a1,sp,332
 1aa:	0000                	unimp
 1ac:	0300                	addi	s0,sp,384
	...
 1ba:	0000                	unimp
 1bc:	00dc                	addi	a5,sp,68
 1be:	0000                	unimp
 1c0:	00e0                	addi	s0,sp,76
 1c2:	0000                	unimp
 1c4:	040c                	addi	a1,sp,512
	...
 1ce:	0000                	unimp
 1d0:	0020                	addi	s0,sp,8
 1d2:	0000                	unimp
 1d4:	004c                	addi	a1,sp,4
 1d6:	0000                	unimp
 1d8:	00e0                	addi	s0,sp,76
 1da:	0000                	unimp
 1dc:	00f4                	addi	a3,sp,76
	...
 1e6:	0000                	unimp
 1e8:	0100                	addi	s0,sp,128
 1ea:	0000                	unimp
 1ec:	012c                	addi	a1,sp,136
 1ee:	0000                	unimp
 1f0:	01a8                	addi	a0,sp,200
 1f2:	0000                	unimp
 1f4:	01bc                	addi	a5,sp,200
	...
 1fe:	0000                	unimp
 200:	01cc                	addi	a1,sp,196
 202:	0000                	unimp
 204:	01d4                	addi	a3,sp,196
 206:	0000                	unimp
 208:	01dc                	addi	a5,sp,196
 20a:	0000                	unimp
 20c:	0248                	addi	a0,sp,260
	...
 216:	0000                	unimp
 218:	024c                	addi	a1,sp,260
 21a:	0000                	unimp
 21c:	0280                	addi	s0,sp,320
 21e:	0000                	unimp
 220:	02a8                	addi	a0,sp,328
 222:	0000                	unimp
 224:	02bc                	addi	a5,sp,328
	...
 22e:	0000                	unimp
 230:	02c8                	addi	a0,sp,324
 232:	0000                	unimp
 234:	02cc                	addi	a1,sp,324
 236:	0000                	unimp
 238:	02d0                	addi	a2,sp,324
 23a:	0000                	unimp
 23c:	02d4                	addi	a3,sp,324
 23e:	0000                	unimp
 240:	02e0                	addi	s0,sp,332
 242:	0000                	unimp
 244:	02ec                	addi	a1,sp,332
 246:	0000                	unimp
 248:	02f4                	addi	a3,sp,332
 24a:	0000                	unimp
 24c:	0368                	addi	a0,sp,396
 24e:	0000                	unimp
 250:	036c                	addi	a1,sp,396
 252:	0000                	unimp
 254:	0370                	addi	a2,sp,396
 256:	0000                	unimp
 258:	0378                	addi	a4,sp,396
 25a:	0000                	unimp
 25c:	037c                	addi	a5,sp,396
	...
 266:	0000                	unimp
 268:	0368                	addi	a0,sp,396
 26a:	0000                	unimp
 26c:	036c                	addi	a1,sp,396
 26e:	0000                	unimp
 270:	0370                	addi	a2,sp,396
 272:	0000                	unimp
 274:	0378                	addi	a4,sp,396
 276:	0000                	unimp
 278:	037c                	addi	a5,sp,396
 27a:	0000                	unimp
 27c:	03cc                	addi	a1,sp,452
	...

Disassembly of section .debug_line:

00000000 <.debug_line>:
       0:	09f0                	addi	a2,sp,220
       2:	0000                	unimp
       4:	02030003          	lb	zero,32(t1)
       8:	0000                	unimp
       a:	0101                	addi	sp,sp,0
       c:	000d0efb          	0xd0efb
      10:	0101                	addi	sp,sp,0
      12:	0101                	addi	sp,sp,0
      14:	0000                	unimp
      16:	0100                	addi	s0,sp,128
      18:	0000                	unimp
      1a:	2e01                	jal	32a <printf_putch+0x2c>
      1c:	2f2e                	fld	ft10,200(sp)
      1e:	2e2e                	fld	ft8,200(sp)
      20:	2f2e2e2f          	0x2f2e2e2f
      24:	2e2e                	fld	ft8,200(sp)
      26:	2f2e2e2f          	0x2f2e2e2f
      2a:	2f2e                	fld	ft10,200(sp)
      2c:	6972                	flw	fs2,28(sp)
      2e:	2d766373          	csrrsi	t1,0x2d7,12
      32:	2f636367          	0x2f636367
      36:	696c                	flw	fa1,84(a0)
      38:	6762                	flw	fa4,24(sp)
      3a:	2f006363          	bltu	zero,a6,320 <printf_putch+0x22>
      3e:	6f68                	flw	fa0,92(a4)
      40:	656d                	lui	a0,0x1b
      42:	78696c2f          	0x78696c2f
      46:	2f62                	fld	ft10,24(sp)
      48:	6f74                	flw	fa3,92(a4)
      4a:	2f736c6f          	jal	s8,36b40 <__C_STACK_TOP__+0x26b40>
      4e:	4952                	lw	s2,20(sp)
      50:	2f564353          	0x2f564353
      54:	6972                	flw	fs2,28(sp)
      56:	36766373          	csrrsi	t1,0x367,12
      5a:	2d34                	fld	fa3,88(a0)
      5c:	6e75                	lui	t3,0x1d
      5e:	776f6e6b          	0x776f6e6b
      62:	2d6e                	fld	fs10,216(sp)
      64:	6c65                	lui	s8,0x19
      66:	2f66                	fld	ft10,88(sp)
      68:	6e69                	lui	t3,0x1a
      6a:	64756c63          	bltu	a0,t2,6c2 <vprintfmt.constprop.0+0x29c>
      6e:	2f65                	jal	826 <vprintfmt.constprop.0+0x400>
      70:	00737973          	csrrci	s2,0x7,6
      74:	6d6f682f          	0x6d6f682f
      78:	2f65                	jal	830 <vprintfmt.constprop.0+0x40a>
      7a:	696c                	flw	fa1,84(a0)
      7c:	6278                	flw	fa4,68(a2)
      7e:	7469672f          	0x7469672f
      82:	7568                	flw	fa0,108(a0)
      84:	2f62                	fld	ft10,24(sp)
      86:	6972                	flw	fs2,28(sp)
      88:	2d766373          	csrrsi	t1,0x2d7,12
      8c:	2d756e67          	0x2d756e67
      90:	6f74                	flw	fa3,92(a4)
      92:	68636c6f          	jal	s8,36718 <__C_STACK_TOP__+0x26718>
      96:	6961                	lui	s2,0x18
      98:	2f6e                	fld	ft10,216(sp)
      9a:	7562                	flw	fa0,56(sp)
      9c:	6c69                	lui	s8,0x1a
      9e:	2d64                	fld	fs1,216(a0)
      a0:	2d636367          	0x2d636367
      a4:	656e                	flw	fa0,216(sp)
      a6:	62696c77          	0x62696c77
      aa:	732d                	lui	t1,0xfffeb
      ac:	6174                	flw	fa3,68(a0)
      ae:	2f326567          	0x2f326567
      b2:	2f636367          	0x2f636367
      b6:	6e69                	lui	t3,0x1a
      b8:	64756c63          	bltu	a0,t2,710 <vprintfmt.constprop.0+0x2ea>
      bc:	0065                	c.nop	25
      be:	6d6f682f          	0x6d6f682f
      c2:	2f65                	jal	87a <vprintfmt.constprop.0+0x454>
      c4:	696c                	flw	fa1,84(a0)
      c6:	6278                	flw	fa4,68(a2)
      c8:	6f6f742f          	0x6f6f742f
      cc:	736c                	flw	fa1,100(a4)
      ce:	5349522f          	0x5349522f
      d2:	722f5643          	fmadd.d	fa2,ft10,ft2,fa4,unknown
      d6:	7369                	lui	t1,0xffffa
      d8:	34367663          	bgeu	a2,gp,424 <STACK_SIZE+0x24>
      dc:	752d                	lui	a0,0xfffeb
      de:	6b6e                	flw	fs6,216(sp)
      e0:	6f6e                	flw	ft10,216(sp)
      e2:	652d6e77          	0x652d6e77
      e6:	666c                	flw	fa1,76(a2)
      e8:	636e692f          	0x636e692f
      ec:	756c                	flw	fa1,108(a0)
      ee:	6564                	flw	fs1,76(a0)
      f0:	2e00                	fld	fs0,24(a2)
      f2:	2f2e                	fld	ft10,200(sp)
      f4:	2e2e                	fld	ft8,200(sp)
      f6:	2f2e2e2f          	0x2f2e2e2f
      fa:	2e2e                	fld	ft8,200(sp)
      fc:	2f2e2e2f          	0x2f2e2e2f
     100:	2f2e                	fld	ft10,200(sp)
     102:	6972                	flw	fs2,28(sp)
     104:	2d766373          	csrrsi	t1,0x2d7,12
     108:	2f636367          	0x2f636367
     10c:	696c                	flw	fa1,84(a0)
     10e:	6762                	flw	fa4,24(sp)
     110:	2e2f6363          	bltu	t5,sp,3f6 <printf_putch+0xf8>
     114:	2f2e                	fld	ft10,200(sp)
     116:	6e69                	lui	t3,0x1a
     118:	64756c63          	bltu	a0,t2,770 <vprintfmt.constprop.0+0x34a>
     11c:	0065                	c.nop	25
     11e:	2e2e                	fld	ft8,200(sp)
     120:	2f2e2e2f          	0x2f2e2e2f
     124:	2e2e                	fld	ft8,200(sp)
     126:	2f2e2e2f          	0x2f2e2e2f
     12a:	2e2e                	fld	ft8,200(sp)
     12c:	722f2e2f          	0x722f2e2f
     130:	7369                	lui	t1,0xffffa
     132:	672d7663          	bgeu	s10,s2,79e <vprintfmt.constprop.0+0x378>
     136:	6c2f6363          	bltu	t5,sp,7fc <vprintfmt.constprop.0+0x3d6>
     13a:	6269                	lui	tp,0x1a
     13c:	2f636367          	0x2f636367
     140:	2e2e                	fld	ft8,200(sp)
     142:	6363672f          	0x6363672f
     146:	6e6f632f          	0x6e6f632f
     14a:	6966                	flw	fs2,88(sp)
     14c:	69722f67          	0x69722f67
     150:	00766373          	csrrsi	t1,0x7,12
     154:	2e2e                	fld	ft8,200(sp)
     156:	2f2e2e2f          	0x2f2e2e2f
     15a:	2e2e                	fld	ft8,200(sp)
     15c:	2f2e2e2f          	0x2f2e2e2f
     160:	2f2e                	fld	ft10,200(sp)
     162:	00636367          	0x636367
     166:	6c00                	flw	fs0,24(s0)
     168:	6269                	lui	tp,0x1a
     16a:	32636367          	0x32636367
     16e:	632e                	flw	ft6,200(sp)
     170:	0100                	addi	s0,sp,128
     172:	0000                	unimp
     174:	6f6c                	flw	fa1,92(a4)
     176:	682e6b63          	bltu	t3,sp,80c <vprintfmt.constprop.0+0x3e6>
     17a:	0200                	addi	s0,sp,256
     17c:	0000                	unimp
     17e:	745f 7079 7365      	0x73657079745f
     184:	682e                	flw	fa6,200(sp)
     186:	0200                	addi	s0,sp,256
     188:	0000                	unimp
     18a:	64647473          	csrrci	s0,0x646,8
     18e:	6665                	lui	a2,0x19
     190:	682e                	flw	fa6,200(sp)
     192:	0300                	addi	s0,sp,384
     194:	0000                	unimp
     196:	6572                	flw	fa0,28(sp)
     198:	6e65                	lui	t3,0x19
     19a:	2e74                	fld	fa3,216(a2)
     19c:	0068                	addi	a0,sp,12
     19e:	0002                	c.slli64	zero
     1a0:	6500                	flw	fs0,8(a0)
     1a2:	7272                	flw	ft4,60(sp)
     1a4:	6f6e                	flw	ft10,216(sp)
     1a6:	682e                	flw	fa6,200(sp)
     1a8:	0200                	addi	s0,sp,256
     1aa:	0000                	unimp
     1ac:	6c647473          	csrrci	s0,0x6c6,8
     1b0:	6269                	lui	tp,0x1a
     1b2:	682e                	flw	fa6,200(sp)
     1b4:	0400                	addi	s0,sp,512
     1b6:	0000                	unimp
     1b8:	6e75                	lui	t3,0x1d
     1ba:	7369                	lui	t1,0xffffa
     1bc:	6474                	flw	fa3,76(s0)
     1be:	682e                	flw	fa6,200(sp)
     1c0:	0200                	addi	s0,sp,256
     1c2:	0000                	unimp
     1c4:	6974                	flw	fa3,84(a0)
     1c6:	656d                	lui	a0,0x1b
     1c8:	682e                	flw	fa6,200(sp)
     1ca:	0400                	addi	s0,sp,512
     1cc:	0000                	unimp
     1ce:	6168                	flw	fa0,68(a0)
     1d0:	61746873          	csrrsi	a6,0x617,8
     1d4:	2e62                	fld	ft8,24(sp)
     1d6:	0068                	addi	a0,sp,12
     1d8:	0005                	c.nop	1
     1da:	7200                	flw	fs0,32(a2)
     1dc:	7369                	lui	t1,0xffffa
     1de:	6f2d7663          	bgeu	s10,s2,8ca <vprintfmt.constprop.0+0x4a4>
     1e2:	7470                	flw	fa2,108(s0)
     1e4:	00682e73          	csrrs	t3,0x6,a6
     1e8:	0006                	c.slli	zero,0x1
     1ea:	6900                	flw	fs0,16(a0)
     1ec:	736e                	flw	ft6,248(sp)
     1ee:	2d6e                	fld	fs10,216(sp)
     1f0:	736e6f63          	bltu	t3,s6,92e <vprintfmt.constprop.0+0x508>
     1f4:	6174                	flw	fa3,68(a0)
     1f6:	746e                	flw	fs0,248(sp)
     1f8:	00682e73          	csrrs	t3,0x6,a6
     1fc:	6c000007          	0x6c000007
     200:	6269                	lui	tp,0x1a
     202:	32636367          	0x32636367
     206:	682e                	flw	fa6,200(sp)
     208:	0100                	addi	s0,sp,128
     20a:	0000                	unimp
     20c:	0500                	addi	s0,sp,640
     20e:	0001                	nop
     210:	0205                	addi	tp,tp,1
     212:	19a8                	addi	a0,sp,248
     214:	0000                	unimp
     216:	0109e703          	0x109e703
     21a:	0305                	addi	t1,t1,1
     21c:	00090103          	lb	sp,0(s2) # 18000 <__C_STACK_TOP__+0x8000>
     220:	0100                	addi	s0,sp,128
     222:	00090103          	lb	sp,0(s2)
     226:	0100                	addi	s0,sp,128
     228:	00090103          	lb	sp,0(s2)
     22c:	0100                	addi	s0,sp,128
     22e:	00090103          	lb	sp,0(s2)
     232:	0100                	addi	s0,sp,128
     234:	00090203          	lb	tp,0(s2)
     238:	0100                	addi	s0,sp,128
     23a:	0905                	addi	s2,s2,1
     23c:	0306                	slli	t1,t1,0x1
     23e:	0000097b          	0x97b
     242:	0501                	addi	a0,a0,0
     244:	0306                	slli	t1,t1,0x1
     246:	0905                	addi	s2,s2,1
     248:	0004                	0x4
     24a:	0501                	addi	a0,a0,0
     24c:	0605                	addi	a2,a2,1
     24e:	04090103          	lb	sp,64(s2)
     252:	0100                	addi	s0,sp,128
     254:	0d05                	addi	s10,s10,1
     256:	0306                	slli	t1,t1,0x1
     258:	0901                	addi	s2,s2,0
     25a:	0000                	unimp
     25c:	0501                	addi	a0,a0,0
     25e:	097f0307          	0x97f0307
     262:	0010                	0x10
     264:	0501                	addi	a0,a0,0
     266:	02030603          	lb	a2,32(t1) # ffffa020 <__C_STACK_TOP__+0xfffea020>
     26a:	0409                	addi	s0,s0,2
     26c:	0100                	addi	s0,sp,128
     26e:	0605                	addi	a2,a2,1
     270:	0306                	slli	t1,t1,0x1
     272:	0900                	addi	s0,sp,144
     274:	0000                	unimp
     276:	0501                	addi	a0,a0,0
     278:	0605                	addi	a2,a2,1
     27a:	04090103          	lb	sp,64(s2)
     27e:	0100                	addi	s0,sp,128
     280:	0d05                	addi	s10,s10,1
     282:	0306                	slli	t1,t1,0x1
     284:	0900                	addi	s0,sp,144
     286:	0000                	unimp
     288:	0501                	addi	a0,a0,0
     28a:	02030603          	lb	a2,32(t1)
     28e:	1009                	c.nop	-30
     290:	0100                	addi	s0,sp,128
     292:	097e8503          	lb	a0,151(t4)
     296:	0000                	unimp
     298:	0301                	addi	t1,t1,0
     29a:	0901                	addi	s2,s2,0
     29c:	0000                	unimp
     29e:	0301                	addi	t1,t1,0
     2a0:	0901                	addi	s2,s2,0
     2a2:	0000                	unimp
     2a4:	0301                	addi	t1,t1,0
     2a6:	0901                	addi	s2,s2,0
     2a8:	0000                	unimp
     2aa:	0301                	addi	t1,t1,0
     2ac:	0901                	addi	s2,s2,0
     2ae:	0000                	unimp
     2b0:	0301                	addi	t1,t1,0
     2b2:	0901                	addi	s2,s2,0
     2b4:	0000                	unimp
     2b6:	0301                	addi	t1,t1,0
     2b8:	0902                	c.slli64	s2
     2ba:	0000                	unimp
     2bc:	0501                	addi	a0,a0,0
     2be:	0606                	slli	a2,a2,0x1
     2c0:	00090003          	lb	zero,0(s2)
     2c4:	0100                	addi	s0,sp,128
     2c6:	0305                	addi	t1,t1,1
     2c8:	0306                	slli	t1,t1,0x1
     2ca:	0901                	addi	s2,s2,0
     2cc:	0004                	0x4
     2ce:	0501                	addi	a0,a0,0
     2d0:	0606                	slli	a2,a2,0x1
     2d2:	00090003          	lb	zero,0(s2)
     2d6:	0100                	addi	s0,sp,128
     2d8:	0305                	addi	t1,t1,1
     2da:	0306                	slli	t1,t1,0x1
     2dc:	0901                	addi	s2,s2,0
     2de:	0004                	0x4
     2e0:	0501                	addi	a0,a0,0
     2e2:	0606                	slli	a2,a2,0x1
     2e4:	00090003          	lb	zero,0(s2)
     2e8:	0100                	addi	s0,sp,128
     2ea:	0305                	addi	t1,t1,1
     2ec:	0306                	slli	t1,t1,0x1
     2ee:	0901                	addi	s2,s2,0
     2f0:	0004                	0x4
     2f2:	0501                	addi	a0,a0,0
     2f4:	0606                	slli	a2,a2,0x1
     2f6:	00090003          	lb	zero,0(s2)
     2fa:	0100                	addi	s0,sp,128
     2fc:	0305                	addi	t1,t1,1
     2fe:	0306                	slli	t1,t1,0x1
     300:	0925                	addi	s2,s2,9
     302:	0004                	0x4
     304:	0501                	addi	a0,a0,0
     306:	0606                	slli	a2,a2,0x1
     308:	00090003          	lb	zero,0(s2)
     30c:	0100                	addi	s0,sp,128
     30e:	0705                	addi	a4,a4,1
     310:	0306                	slli	t1,t1,0x1
     312:	0902                	c.slli64	s2
     314:	0004                	0x4
     316:	0501                	addi	a0,a0,0
     318:	060a                	slli	a2,a2,0x2
     31a:	08090003          	lb	zero,128(s2)
     31e:	0100                	addi	s0,sp,128
     320:	0405                	addi	s0,s0,1
     322:	0306                	slli	t1,t1,0x1
     324:	0904                	addi	s1,sp,144
     326:	0004                	0x4
     328:	0301                	addi	t1,t1,0
     32a:	0900                	addi	s0,sp,144
     32c:	0000                	unimp
     32e:	0301                	addi	t1,t1,0
     330:	0900                	addi	s0,sp,144
     332:	0000                	unimp
     334:	0301                	addi	t1,t1,0
     336:	0900                	addi	s0,sp,144
     338:	0000                	unimp
     33a:	0301                	addi	t1,t1,0
     33c:	0900                	addi	s0,sp,144
     33e:	0000                	unimp
     340:	0301                	addi	t1,t1,0
     342:	0900                	addi	s0,sp,144
     344:	0014                	0x14
     346:	0301                	addi	t1,t1,0
     348:	0902                	c.slli64	s2
     34a:	0018                	0x18
     34c:	0501                	addi	a0,a0,0
     34e:	00030607          	0x30607
     352:	0009                	c.nop	2
     354:	0100                	addi	s0,sp,128
     356:	0805                	addi	a6,a6,1
     358:	0306                	slli	t1,t1,0x1
     35a:	0905                	addi	s2,s2,1
     35c:	0004                	0x4
     35e:	0501                	addi	a0,a0,0
     360:	0611                	addi	a2,a2,4
     362:	00090103          	lb	sp,0(s2)
     366:	0100                	addi	s0,sp,128
     368:	1e05                	addi	t3,t3,-31
     36a:	04090003          	lb	zero,64(s2)
     36e:	0100                	addi	s0,sp,128
     370:	0b05                	addi	s6,s6,1
     372:	04097f03          	0x4097f03
     376:	0100                	addi	s0,sp,128
     378:	0805                	addi	a6,a6,1
     37a:	0306                	slli	t1,t1,0x1
     37c:	0901                	addi	s2,s2,0
     37e:	0004                	0x4
     380:	0501                	addi	a0,a0,0
     382:	0003060b          	0x3060b
     386:	0009                	c.nop	2
     388:	0100                	addi	s0,sp,128
     38a:	0805                	addi	a6,a6,1
     38c:	0306                	slli	t1,t1,0x1
     38e:	0901                	addi	s2,s2,0
     390:	0004                	0x4
     392:	0501                	addi	a0,a0,0
     394:	0003060b          	0x3060b
     398:	0009                	c.nop	2
     39a:	0100                	addi	s0,sp,128
     39c:	0405                	addi	s0,s0,1
     39e:	0306                	slli	t1,t1,0x1
     3a0:	00040903          	lb	s2,0(s0)
     3a4:	0301                	addi	t1,t1,0
     3a6:	0900                	addi	s0,sp,144
     3a8:	0000                	unimp
     3aa:	0301                	addi	t1,t1,0
     3ac:	0900                	addi	s0,sp,144
     3ae:	0000                	unimp
     3b0:	0301                	addi	t1,t1,0
     3b2:	0900                	addi	s0,sp,144
     3b4:	0000                	unimp
     3b6:	0301                	addi	t1,t1,0
     3b8:	0900                	addi	s0,sp,144
     3ba:	0004                	0x4
     3bc:	0301                	addi	t1,t1,0
     3be:	0900                	addi	s0,sp,144
     3c0:	000c                	0xc
     3c2:	0301                	addi	t1,t1,0
     3c4:	0900                	addi	s0,sp,144
     3c6:	0000                	unimp
     3c8:	0301                	addi	t1,t1,0
     3ca:	0900                	addi	s0,sp,144
     3cc:	0008                	0x8
     3ce:	0301                	addi	t1,t1,0
     3d0:	0900                	addi	s0,sp,144
     3d2:	000c                	0xc
     3d4:	0301                	addi	t1,t1,0
     3d6:	0900                	addi	s0,sp,144
     3d8:	0000                	unimp
     3da:	0301                	addi	t1,t1,0
     3dc:	0900                	addi	s0,sp,144
     3de:	0004                	0x4
     3e0:	0301                	addi	t1,t1,0
     3e2:	0900                	addi	s0,sp,144
     3e4:	0004                	0x4
     3e6:	0301                	addi	t1,t1,0
     3e8:	0900                	addi	s0,sp,144
     3ea:	0004                	0x4
     3ec:	0301                	addi	t1,t1,0
     3ee:	0900                	addi	s0,sp,144
     3f0:	0004                	0x4
     3f2:	0301                	addi	t1,t1,0
     3f4:	0900                	addi	s0,sp,144
     3f6:	0004                	0x4
     3f8:	0301                	addi	t1,t1,0
     3fa:	0900                	addi	s0,sp,144
     3fc:	0004                	0x4
     3fe:	0301                	addi	t1,t1,0
     400:	0900                	addi	s0,sp,144
     402:	0004                	0x4
     404:	0301                	addi	t1,t1,0
     406:	0900                	addi	s0,sp,144
     408:	000c                	0xc
     40a:	0301                	addi	t1,t1,0
     40c:	0900                	addi	s0,sp,144
     40e:	0004                	0x4
     410:	0301                	addi	t1,t1,0
     412:	0900                	addi	s0,sp,144
     414:	0008                	0x8
     416:	0301                	addi	t1,t1,0
     418:	0900                	addi	s0,sp,144
     41a:	0004                	0x4
     41c:	0301                	addi	t1,t1,0
     41e:	0900                	addi	s0,sp,144
     420:	0004                	0x4
     422:	0301                	addi	t1,t1,0
     424:	0900                	addi	s0,sp,144
     426:	0004                	0x4
     428:	0301                	addi	t1,t1,0
     42a:	0900                	addi	s0,sp,144
     42c:	0004                	0x4
     42e:	0301                	addi	t1,t1,0
     430:	0900                	addi	s0,sp,144
     432:	0004                	0x4
     434:	0301                	addi	t1,t1,0
     436:	0900                	addi	s0,sp,144
     438:	0004                	0x4
     43a:	0301                	addi	t1,t1,0
     43c:	0900                	addi	s0,sp,144
     43e:	0000                	unimp
     440:	0301                	addi	t1,t1,0
     442:	0901                	addi	s2,s2,0
     444:	0000                	unimp
     446:	0501                	addi	a0,a0,0
     448:	092e0307          	0x92e0307
     44c:	0000                	unimp
     44e:	0501                	addi	a0,a0,0
     450:	0304                	addi	s1,sp,384
     452:	0902                	c.slli64	s2
     454:	0000                	unimp
     456:	0501                	addi	a0,a0,0
     458:	0612                	slli	a2,a2,0x4
     45a:	00090003          	lb	zero,0(s2)
     45e:	0100                	addi	s0,sp,128
     460:	0405                	addi	s0,s0,1
     462:	0306                	slli	t1,t1,0x1
     464:	0901                	addi	s2,s2,0
     466:	0004                	0x4
     468:	0301                	addi	t1,t1,0
     46a:	0901                	addi	s2,s2,0
     46c:	0000                	unimp
     46e:	0501                	addi	a0,a0,0
     470:	060c                	addi	a1,sp,768
     472:	00090003          	lb	zero,0(s2)
     476:	0100                	addi	s0,sp,128
     478:	0305                	addi	t1,t1,1
     47a:	0306                	slli	t1,t1,0x1
     47c:	00da                	slli	ra,ra,0x16
     47e:	0409                	addi	s0,s0,2
     480:	0100                	addi	s0,sp,128
     482:	00090103          	lb	sp,0(s2)
     486:	0100                	addi	s0,sp,128
     488:	00092d03          	lw	s10,0(s2)
     48c:	0100                	addi	s0,sp,128
     48e:	0605                	addi	a2,a2,1
     490:	0306                	slli	t1,t1,0x1
     492:	0900                	addi	s0,sp,144
     494:	0000                	unimp
     496:	0501                	addi	a0,a0,0
     498:	0605                	addi	a2,a2,1
     49a:	04090103          	lb	sp,64(s2)
     49e:	0100                	addi	s0,sp,128
     4a0:	0905                	addi	s2,s2,1
     4a2:	0306                	slli	t1,t1,0x1
     4a4:	0900                	addi	s0,sp,144
     4a6:	0000                	unimp
     4a8:	0501                	addi	a0,a0,0
     4aa:	02030603          	lb	a2,32(t1)
     4ae:	1409                	addi	s0,s0,-30
     4b0:	0100                	addi	s0,sp,128
     4b2:	0105                	addi	sp,sp,1
     4b4:	0306                	slli	t1,t1,0x1
     4b6:	0901                	addi	s2,s2,0
     4b8:	0000                	unimp
     4ba:	0501                	addi	a0,a0,0
     4bc:	0304                	addi	s1,sp,384
     4be:	7eb5                	lui	t4,0xfffed
     4c0:	0409                	addi	s0,s0,2
     4c2:	0100                	addi	s0,sp,128
     4c4:	0306                	slli	t1,t1,0x1
     4c6:	0915                	addi	s2,s2,5
     4c8:	0014                	0x14
     4ca:	0501                	addi	a0,a0,0
     4cc:	00030607          	0x30607
     4d0:	0009                	c.nop	2
     4d2:	0100                	addi	s0,sp,128
     4d4:	0605                	addi	a2,a2,1
     4d6:	0306                	slli	t1,t1,0x1
     4d8:	0901                	addi	s2,s2,0
     4da:	0004                	0x4
     4dc:	0501                	addi	a0,a0,0
     4de:	0609                	addi	a2,a2,2
     4e0:	00090003          	lb	zero,0(s2)
     4e4:	0100                	addi	s0,sp,128
     4e6:	0405                	addi	s0,s0,1
     4e8:	0306                	slli	t1,t1,0x1
     4ea:	0902                	c.slli64	s2
     4ec:	0008                	0x8
     4ee:	0301                	addi	t1,t1,0
     4f0:	0900                	addi	s0,sp,144
     4f2:	0000                	unimp
     4f4:	0301                	addi	t1,t1,0
     4f6:	0900                	addi	s0,sp,144
     4f8:	0000                	unimp
     4fa:	0301                	addi	t1,t1,0
     4fc:	0900                	addi	s0,sp,144
     4fe:	0000                	unimp
     500:	0301                	addi	t1,t1,0
     502:	0900                	addi	s0,sp,144
     504:	0000                	unimp
     506:	0301                	addi	t1,t1,0
     508:	0900                	addi	s0,sp,144
     50a:	0014                	0x14
     50c:	0301                	addi	t1,t1,0
     50e:	0902                	c.slli64	s2
     510:	0018                	0x18
     512:	0501                	addi	a0,a0,0
     514:	00030607          	0x30607
     518:	0009                	c.nop	2
     51a:	0100                	addi	s0,sp,128
     51c:	0805                	addi	a6,a6,1
     51e:	0306                	slli	t1,t1,0x1
     520:	0909                	addi	s2,s2,2
     522:	0004                	0x4
     524:	0501                	addi	a0,a0,0
     526:	0003060b          	0x3060b
     52a:	0009                	c.nop	2
     52c:	0100                	addi	s0,sp,128
     52e:	0805                	addi	a6,a6,1
     530:	0306                	slli	t1,t1,0x1
     532:	0901                	addi	s2,s2,0
     534:	0004                	0x4
     536:	0501                	addi	a0,a0,0
     538:	0304                	addi	s1,sp,384
     53a:	0912                	slli	s2,s2,0x4
     53c:	0000                	unimp
     53e:	0301                	addi	t1,t1,0
     540:	0900                	addi	s0,sp,144
     542:	0000                	unimp
     544:	0301                	addi	t1,t1,0
     546:	0900                	addi	s0,sp,144
     548:	0000                	unimp
     54a:	0301                	addi	t1,t1,0
     54c:	0900                	addi	s0,sp,144
     54e:	0000                	unimp
     550:	0301                	addi	t1,t1,0
     552:	0900                	addi	s0,sp,144
     554:	0004                	0x4
     556:	0301                	addi	t1,t1,0
     558:	0900                	addi	s0,sp,144
     55a:	0008                	0x8
     55c:	0301                	addi	t1,t1,0
     55e:	0900                	addi	s0,sp,144
     560:	0008                	0x8
     562:	0301                	addi	t1,t1,0
     564:	0900                	addi	s0,sp,144
     566:	0004                	0x4
     568:	0301                	addi	t1,t1,0
     56a:	0900                	addi	s0,sp,144
     56c:	000c                	0xc
     56e:	0301                	addi	t1,t1,0
     570:	0900                	addi	s0,sp,144
     572:	0000                	unimp
     574:	0301                	addi	t1,t1,0
     576:	0900                	addi	s0,sp,144
     578:	0004                	0x4
     57a:	0301                	addi	t1,t1,0
     57c:	0900                	addi	s0,sp,144
     57e:	0004                	0x4
     580:	0301                	addi	t1,t1,0
     582:	0900                	addi	s0,sp,144
     584:	0004                	0x4
     586:	0301                	addi	t1,t1,0
     588:	0900                	addi	s0,sp,144
     58a:	0004                	0x4
     58c:	0301                	addi	t1,t1,0
     58e:	0900                	addi	s0,sp,144
     590:	0004                	0x4
     592:	0301                	addi	t1,t1,0
     594:	0900                	addi	s0,sp,144
     596:	0004                	0x4
     598:	0301                	addi	t1,t1,0
     59a:	0900                	addi	s0,sp,144
     59c:	0004                	0x4
     59e:	0301                	addi	t1,t1,0
     5a0:	0900                	addi	s0,sp,144
     5a2:	000c                	0xc
     5a4:	0301                	addi	t1,t1,0
     5a6:	0900                	addi	s0,sp,144
     5a8:	0004                	0x4
     5aa:	0301                	addi	t1,t1,0
     5ac:	0900                	addi	s0,sp,144
     5ae:	0008                	0x8
     5b0:	0301                	addi	t1,t1,0
     5b2:	0900                	addi	s0,sp,144
     5b4:	0004                	0x4
     5b6:	0301                	addi	t1,t1,0
     5b8:	0900                	addi	s0,sp,144
     5ba:	0004                	0x4
     5bc:	0301                	addi	t1,t1,0
     5be:	0900                	addi	s0,sp,144
     5c0:	0004                	0x4
     5c2:	0301                	addi	t1,t1,0
     5c4:	0900                	addi	s0,sp,144
     5c6:	0004                	0x4
     5c8:	0301                	addi	t1,t1,0
     5ca:	0900                	addi	s0,sp,144
     5cc:	0004                	0x4
     5ce:	0301                	addi	t1,t1,0
     5d0:	0900                	addi	s0,sp,144
     5d2:	0004                	0x4
     5d4:	0301                	addi	t1,t1,0
     5d6:	0900                	addi	s0,sp,144
     5d8:	0000                	unimp
     5da:	0601                	addi	a2,a2,0
     5dc:	04096203          	0x4096203
     5e0:	0100                	addi	s0,sp,128
     5e2:	0805                	addi	a6,a6,1
     5e4:	0306                	slli	t1,t1,0x1
     5e6:	0912                	slli	s2,s2,0x4
     5e8:	0014                	0x14
     5ea:	0301                	addi	t1,t1,0
     5ec:	0902                	c.slli64	s2
     5ee:	0000                	unimp
     5f0:	0501                	addi	a0,a0,0
     5f2:	0003060b          	0x3060b
     5f6:	0009                	c.nop	2
     5f8:	0100                	addi	s0,sp,128
     5fa:	0805                	addi	a6,a6,1
     5fc:	0306                	slli	t1,t1,0x1
     5fe:	0901                	addi	s2,s2,0
     600:	0004                	0x4
     602:	0501                	addi	a0,a0,0
     604:	0003060b          	0x3060b
     608:	0009                	c.nop	2
     60a:	0100                	addi	s0,sp,128
     60c:	0805                	addi	a6,a6,1
     60e:	0306                	slli	t1,t1,0x1
     610:	0901                	addi	s2,s2,0
     612:	0004                	0x4
     614:	0501                	addi	a0,a0,0
     616:	0103060b          	0x103060b
     61a:	0009                	c.nop	2
     61c:	0100                	addi	s0,sp,128
     61e:	1e05                	addi	t3,t3,-31
     620:	04097f03          	0x4097f03
     624:	0100                	addi	s0,sp,128
     626:	0805                	addi	a6,a6,1
     628:	04090303          	lb	t1,64(s2)
     62c:	0100                	addi	s0,sp,128
     62e:	1105                	addi	sp,sp,-31
     630:	08097d03          	0x8097d03
     634:	0100                	addi	s0,sp,128
     636:	0b05                	addi	s6,s6,1
     638:	04090003          	lb	zero,64(s2)
     63c:	0100                	addi	s0,sp,128
     63e:	0805                	addi	a6,a6,1
     640:	0306                	slli	t1,t1,0x1
     642:	0901                	addi	s2,s2,0
     644:	0004                	0x4
     646:	0301                	addi	t1,t1,0
     648:	0902                	c.slli64	s2
     64a:	0000                	unimp
     64c:	0301                	addi	t1,t1,0
     64e:	0900                	addi	s0,sp,144
     650:	0000                	unimp
     652:	0301                	addi	t1,t1,0
     654:	0900                	addi	s0,sp,144
     656:	0000                	unimp
     658:	0301                	addi	t1,t1,0
     65a:	0900                	addi	s0,sp,144
     65c:	0000                	unimp
     65e:	0301                	addi	t1,t1,0
     660:	0900                	addi	s0,sp,144
     662:	0000                	unimp
     664:	0301                	addi	t1,t1,0
     666:	0900                	addi	s0,sp,144
     668:	0008                	0x8
     66a:	0301                	addi	t1,t1,0
     66c:	0900                	addi	s0,sp,144
     66e:	0008                	0x8
     670:	0301                	addi	t1,t1,0
     672:	0900                	addi	s0,sp,144
     674:	0000                	unimp
     676:	0301                	addi	t1,t1,0
     678:	0900                	addi	s0,sp,144
     67a:	0004                	0x4
     67c:	0301                	addi	t1,t1,0
     67e:	0900                	addi	s0,sp,144
     680:	0008                	0x8
     682:	0301                	addi	t1,t1,0
     684:	0900                	addi	s0,sp,144
     686:	0004                	0x4
     688:	0301                	addi	t1,t1,0
     68a:	0900                	addi	s0,sp,144
     68c:	0004                	0x4
     68e:	0301                	addi	t1,t1,0
     690:	0900                	addi	s0,sp,144
     692:	0004                	0x4
     694:	0301                	addi	t1,t1,0
     696:	0900                	addi	s0,sp,144
     698:	0004                	0x4
     69a:	0301                	addi	t1,t1,0
     69c:	0900                	addi	s0,sp,144
     69e:	0004                	0x4
     6a0:	0301                	addi	t1,t1,0
     6a2:	0900                	addi	s0,sp,144
     6a4:	0004                	0x4
     6a6:	0301                	addi	t1,t1,0
     6a8:	0900                	addi	s0,sp,144
     6aa:	0004                	0x4
     6ac:	0301                	addi	t1,t1,0
     6ae:	0900                	addi	s0,sp,144
     6b0:	000c                	0xc
     6b2:	0301                	addi	t1,t1,0
     6b4:	0900                	addi	s0,sp,144
     6b6:	0008                	0x8
     6b8:	0301                	addi	t1,t1,0
     6ba:	0900                	addi	s0,sp,144
     6bc:	0004                	0x4
     6be:	0301                	addi	t1,t1,0
     6c0:	0900                	addi	s0,sp,144
     6c2:	0004                	0x4
     6c4:	0301                	addi	t1,t1,0
     6c6:	0900                	addi	s0,sp,144
     6c8:	0004                	0x4
     6ca:	0301                	addi	t1,t1,0
     6cc:	0900                	addi	s0,sp,144
     6ce:	0004                	0x4
     6d0:	0301                	addi	t1,t1,0
     6d2:	0900                	addi	s0,sp,144
     6d4:	0004                	0x4
     6d6:	0301                	addi	t1,t1,0
     6d8:	0900                	addi	s0,sp,144
     6da:	0004                	0x4
     6dc:	0301                	addi	t1,t1,0
     6de:	0900                	addi	s0,sp,144
     6e0:	0004                	0x4
     6e2:	0301                	addi	t1,t1,0
     6e4:	0900                	addi	s0,sp,144
     6e6:	0000                	unimp
     6e8:	0501                	addi	a0,a0,0
     6ea:	09150307          	0x9150307
     6ee:	0004                	0x4
     6f0:	0501                	addi	a0,a0,0
     6f2:	060a                	slli	a2,a2,0x2
     6f4:	00090003          	lb	zero,0(s2)
     6f8:	0100                	addi	s0,sp,128
     6fa:	0405                	addi	s0,s0,1
     6fc:	0306                	slli	t1,t1,0x1
     6fe:	00040913          	mv	s2,s0
     702:	0301                	addi	t1,t1,0
     704:	0900                	addi	s0,sp,144
     706:	0000                	unimp
     708:	0301                	addi	t1,t1,0
     70a:	0900                	addi	s0,sp,144
     70c:	0000                	unimp
     70e:	0301                	addi	t1,t1,0
     710:	0900                	addi	s0,sp,144
     712:	0000                	unimp
     714:	0301                	addi	t1,t1,0
     716:	0900                	addi	s0,sp,144
     718:	0000                	unimp
     71a:	0301                	addi	t1,t1,0
     71c:	0900                	addi	s0,sp,144
     71e:	0014                	0x14
     720:	0301                	addi	t1,t1,0
     722:	0901                	addi	s2,s2,0
     724:	0020                	addi	s0,sp,8
     726:	0501                	addi	a0,a0,0
     728:	00030607          	0x30607
     72c:	0009                	c.nop	2
     72e:	0100                	addi	s0,sp,128
     730:	0805                	addi	a6,a6,1
     732:	0306                	slli	t1,t1,0x1
     734:	090a                	slli	s2,s2,0x2
     736:	0004                	0x4
     738:	0501                	addi	a0,a0,0
     73a:	0003060b          	0x3060b
     73e:	0009                	c.nop	2
     740:	0100                	addi	s0,sp,128
     742:	1405                	addi	s0,s0,-31
     744:	04090003          	lb	zero,64(s2)
     748:	0100                	addi	s0,sp,128
     74a:	0505                	addi	a0,a0,1
     74c:	0306                	slli	t1,t1,0x1
     74e:	0902                	c.slli64	s2
     750:	0004                	0x4
     752:	0301                	addi	t1,t1,0
     754:	0901                	addi	s2,s2,0
     756:	0000                	unimp
     758:	0301                	addi	t1,t1,0
     75a:	0900                	addi	s0,sp,144
     75c:	0000                	unimp
     75e:	0301                	addi	t1,t1,0
     760:	0900                	addi	s0,sp,144
     762:	0000                	unimp
     764:	0301                	addi	t1,t1,0
     766:	0900                	addi	s0,sp,144
     768:	0004                	0x4
     76a:	0301                	addi	t1,t1,0
     76c:	0900                	addi	s0,sp,144
     76e:	000c                	0xc
     770:	0501                	addi	a0,a0,0
     772:	0308                	addi	a0,sp,384
     774:	0905                	addi	s2,s2,1
     776:	0000                	unimp
     778:	0301                	addi	t1,t1,0
     77a:	0902                	c.slli64	s2
     77c:	0000                	unimp
     77e:	0501                	addi	a0,a0,0
     780:	0305                	addi	t1,t1,1
     782:	0902                	c.slli64	s2
     784:	0000                	unimp
     786:	0301                	addi	t1,t1,0
     788:	0901                	addi	s2,s2,0
     78a:	0000                	unimp
     78c:	0301                	addi	t1,t1,0
     78e:	0901                	addi	s2,s2,0
     790:	0000                	unimp
     792:	0501                	addi	a0,a0,0
     794:	060d                	addi	a2,a2,3
     796:	00090003          	lb	zero,0(s2)
     79a:	0100                	addi	s0,sp,128
     79c:	0405                	addi	s0,s0,1
     79e:	0c096703          	0xc096703
     7a2:	0100                	addi	s0,sp,128
     7a4:	0805                	addi	a6,a6,1
     7a6:	0306                	slli	t1,t1,0x1
     7a8:	091e                	slli	s2,s2,0x7
     7aa:	0014                	0x14
     7ac:	0301                	addi	t1,t1,0
     7ae:	00000903          	lb	s2,0(zero) # 0 <buf.1936>
     7b2:	0301                	addi	t1,t1,0
     7b4:	0902                	c.slli64	s2
     7b6:	0000                	unimp
     7b8:	0501                	addi	a0,a0,0
     7ba:	061e                	slli	a2,a2,0x7
     7bc:	00090003          	lb	zero,0(s2)
     7c0:	0100                	addi	s0,sp,128
     7c2:	1105                	addi	sp,sp,-31
     7c4:	04090003          	lb	zero,64(s2)
     7c8:	0100                	addi	s0,sp,128
     7ca:	0b05                	addi	s6,s6,1
     7cc:	04090003          	lb	zero,64(s2)
     7d0:	0100                	addi	s0,sp,128
     7d2:	0805                	addi	a6,a6,1
     7d4:	0306                	slli	t1,t1,0x1
     7d6:	0901                	addi	s2,s2,0
     7d8:	0004                	0x4
     7da:	0501                	addi	a0,a0,0
     7dc:	0103060b          	0x103060b
     7e0:	0009                	c.nop	2
     7e2:	0100                	addi	s0,sp,128
     7e4:	0805                	addi	a6,a6,1
     7e6:	04090403          	lb	s0,64(s2)
     7ea:	0100                	addi	s0,sp,128
     7ec:	1105                	addi	sp,sp,-31
     7ee:	08097d03          	0x8097d03
     7f2:	0100                	addi	s0,sp,128
     7f4:	1e05                	addi	t3,t3,-31
     7f6:	04090003          	lb	zero,64(s2)
     7fa:	0100                	addi	s0,sp,128
     7fc:	0b05                	addi	s6,s6,1
     7fe:	04090003          	lb	zero,64(s2)
     802:	0100                	addi	s0,sp,128
     804:	0805                	addi	a6,a6,1
     806:	04090303          	lb	t1,64(s2)
     80a:	0100                	addi	s0,sp,128
     80c:	0b05                	addi	s6,s6,1
     80e:	0c097b03          	0xc097b03
     812:	0100                	addi	s0,sp,128
     814:	0805                	addi	a6,a6,1
     816:	0306                	slli	t1,t1,0x1
     818:	0901                	addi	s2,s2,0
     81a:	0004                	0x4
     81c:	0301                	addi	t1,t1,0
     81e:	0901                	addi	s2,s2,0
     820:	0000                	unimp
     822:	0301                	addi	t1,t1,0
     824:	0901                	addi	s2,s2,0
     826:	0000                	unimp
     828:	0501                	addi	a0,a0,0
     82a:	0003060b          	0x3060b
     82e:	0009                	c.nop	2
     830:	0100                	addi	s0,sp,128
     832:	0805                	addi	a6,a6,1
     834:	0306                	slli	t1,t1,0x1
     836:	0902                	c.slli64	s2
     838:	0004                	0x4
     83a:	0301                	addi	t1,t1,0
     83c:	0900                	addi	s0,sp,144
     83e:	0000                	unimp
     840:	0301                	addi	t1,t1,0
     842:	0900                	addi	s0,sp,144
     844:	0000                	unimp
     846:	0301                	addi	t1,t1,0
     848:	0900                	addi	s0,sp,144
     84a:	0000                	unimp
     84c:	0301                	addi	t1,t1,0
     84e:	0900                	addi	s0,sp,144
     850:	0000                	unimp
     852:	0301                	addi	t1,t1,0
     854:	0900                	addi	s0,sp,144
     856:	0000                	unimp
     858:	0301                	addi	t1,t1,0
     85a:	0900                	addi	s0,sp,144
     85c:	0000                	unimp
     85e:	0301                	addi	t1,t1,0
     860:	0900                	addi	s0,sp,144
     862:	0004                	0x4
     864:	0301                	addi	t1,t1,0
     866:	0900                	addi	s0,sp,144
     868:	000c                	0xc
     86a:	0301                	addi	t1,t1,0
     86c:	0900                	addi	s0,sp,144
     86e:	0000                	unimp
     870:	0301                	addi	t1,t1,0
     872:	0900                	addi	s0,sp,144
     874:	0008                	0x8
     876:	0301                	addi	t1,t1,0
     878:	0900                	addi	s0,sp,144
     87a:	0008                	0x8
     87c:	0301                	addi	t1,t1,0
     87e:	0900                	addi	s0,sp,144
     880:	0004                	0x4
     882:	0301                	addi	t1,t1,0
     884:	0900                	addi	s0,sp,144
     886:	0004                	0x4
     888:	0301                	addi	t1,t1,0
     88a:	0900                	addi	s0,sp,144
     88c:	0008                	0x8
     88e:	0301                	addi	t1,t1,0
     890:	0900                	addi	s0,sp,144
     892:	0004                	0x4
     894:	0301                	addi	t1,t1,0
     896:	0900                	addi	s0,sp,144
     898:	0004                	0x4
     89a:	0301                	addi	t1,t1,0
     89c:	0900                	addi	s0,sp,144
     89e:	000c                	0xc
     8a0:	0301                	addi	t1,t1,0
     8a2:	0900                	addi	s0,sp,144
     8a4:	000c                	0xc
     8a6:	0301                	addi	t1,t1,0
     8a8:	0900                	addi	s0,sp,144
     8aa:	0000                	unimp
     8ac:	0301                	addi	t1,t1,0
     8ae:	0900                	addi	s0,sp,144
     8b0:	0008                	0x8
     8b2:	0301                	addi	t1,t1,0
     8b4:	0900                	addi	s0,sp,144
     8b6:	0008                	0x8
     8b8:	0301                	addi	t1,t1,0
     8ba:	0900                	addi	s0,sp,144
     8bc:	0004                	0x4
     8be:	0301                	addi	t1,t1,0
     8c0:	0900                	addi	s0,sp,144
     8c2:	0004                	0x4
     8c4:	0301                	addi	t1,t1,0
     8c6:	0900                	addi	s0,sp,144
     8c8:	0008                	0x8
     8ca:	0301                	addi	t1,t1,0
     8cc:	0900                	addi	s0,sp,144
     8ce:	0004                	0x4
     8d0:	0601                	addi	a2,a2,0
     8d2:	04090103          	lb	sp,64(s2)
     8d6:	0100                	addi	s0,sp,128
     8d8:	04097f03          	0x4097f03
     8dc:	0100                	addi	s0,sp,128
     8de:	0306                	slli	t1,t1,0x1
     8e0:	0900                	addi	s0,sp,144
     8e2:	0004                	0x4
     8e4:	0301                	addi	t1,t1,0
     8e6:	0901                	addi	s2,s2,0
     8e8:	0000                	unimp
     8ea:	0301                	addi	t1,t1,0
     8ec:	0900                	addi	s0,sp,144
     8ee:	0000                	unimp
     8f0:	0301                	addi	t1,t1,0
     8f2:	0900                	addi	s0,sp,144
     8f4:	0000                	unimp
     8f6:	0301                	addi	t1,t1,0
     8f8:	0900                	addi	s0,sp,144
     8fa:	0000                	unimp
     8fc:	0301                	addi	t1,t1,0
     8fe:	0900                	addi	s0,sp,144
     900:	0008                	0x8
     902:	0301                	addi	t1,t1,0
     904:	0900                	addi	s0,sp,144
     906:	0008                	0x8
     908:	0301                	addi	t1,t1,0
     90a:	0900                	addi	s0,sp,144
     90c:	0004                	0x4
     90e:	0301                	addi	t1,t1,0
     910:	0900                	addi	s0,sp,144
     912:	0000                	unimp
     914:	0301                	addi	t1,t1,0
     916:	0900                	addi	s0,sp,144
     918:	0004                	0x4
     91a:	0301                	addi	t1,t1,0
     91c:	0900                	addi	s0,sp,144
     91e:	0000                	unimp
     920:	0301                	addi	t1,t1,0
     922:	0900                	addi	s0,sp,144
     924:	0004                	0x4
     926:	0301                	addi	t1,t1,0
     928:	0900                	addi	s0,sp,144
     92a:	0008                	0x8
     92c:	0301                	addi	t1,t1,0
     92e:	0900                	addi	s0,sp,144
     930:	0004                	0x4
     932:	0301                	addi	t1,t1,0
     934:	0900                	addi	s0,sp,144
     936:	0008                	0x8
     938:	0301                	addi	t1,t1,0
     93a:	0900                	addi	s0,sp,144
     93c:	0004                	0x4
     93e:	0301                	addi	t1,t1,0
     940:	0900                	addi	s0,sp,144
     942:	0004                	0x4
     944:	0301                	addi	t1,t1,0
     946:	0900                	addi	s0,sp,144
     948:	0008                	0x8
     94a:	0301                	addi	t1,t1,0
     94c:	0902                	c.slli64	s2
     94e:	0018                	0x18
     950:	0501                	addi	a0,a0,0
     952:	0003060b          	0x3060b
     956:	0009                	c.nop	2
     958:	0100                	addi	s0,sp,128
     95a:	1405                	addi	s0,s0,-31
     95c:	04090003          	lb	zero,64(s2)
     960:	0100                	addi	s0,sp,128
     962:	2105                	jal	d82 <main+0x112>
     964:	04090003          	lb	zero,64(s2)
     968:	0100                	addi	s0,sp,128
     96a:	0505                	addi	a0,a0,1
     96c:	0306                	slli	t1,t1,0x1
     96e:	0902                	c.slli64	s2
     970:	0004                	0x4
     972:	0301                	addi	t1,t1,0
     974:	0901                	addi	s2,s2,0
     976:	0000                	unimp
     978:	0301                	addi	t1,t1,0
     97a:	0900                	addi	s0,sp,144
     97c:	0000                	unimp
     97e:	0301                	addi	t1,t1,0
     980:	0900                	addi	s0,sp,144
     982:	0000                	unimp
     984:	0301                	addi	t1,t1,0
     986:	0900                	addi	s0,sp,144
     988:	0004                	0x4
     98a:	0301                	addi	t1,t1,0
     98c:	0900                	addi	s0,sp,144
     98e:	000c                	0xc
     990:	0501                	addi	a0,a0,0
     992:	0308                	addi	a0,sp,384
     994:	00040903          	lb	s2,0(s0)
     998:	0301                	addi	t1,t1,0
     99a:	00000903          	lb	s2,0(zero) # 0 <buf.1936>
     99e:	0501                	addi	a0,a0,0
     9a0:	0305                	addi	t1,t1,1
     9a2:	0902                	c.slli64	s2
     9a4:	0000                	unimp
     9a6:	0301                	addi	t1,t1,0
     9a8:	0900                	addi	s0,sp,144
     9aa:	0000                	unimp
     9ac:	0301                	addi	t1,t1,0
     9ae:	0900                	addi	s0,sp,144
     9b0:	0000                	unimp
     9b2:	0301                	addi	t1,t1,0
     9b4:	0900                	addi	s0,sp,144
     9b6:	0004                	0x4
     9b8:	0301                	addi	t1,t1,0
     9ba:	0900                	addi	s0,sp,144
     9bc:	000c                	0xc
     9be:	0301                	addi	t1,t1,0
     9c0:	0901                	addi	s2,s2,0
     9c2:	0000                	unimp
     9c4:	0501                	addi	a0,a0,0
     9c6:	0614                	addi	a3,sp,768
     9c8:	00090003          	lb	zero,0(s2)
     9cc:	0100                	addi	s0,sp,128
     9ce:	2005                	jal	9ee <vprintfmt.constprop.0+0x5c8>
     9d0:	04090003          	lb	zero,64(s2)
     9d4:	0100                	addi	s0,sp,128
     9d6:	0505                	addi	a0,a0,1
     9d8:	0306                	slli	t1,t1,0x1
     9da:	0901                	addi	s2,s2,0
     9dc:	0004                	0x4
     9de:	0301                	addi	t1,t1,0
     9e0:	0901                	addi	s2,s2,0
     9e2:	0000                	unimp
     9e4:	0501                	addi	a0,a0,0
     9e6:	060d                	addi	a2,a2,3
     9e8:	00090003          	lb	zero,0(s2)
     9ec:	0100                	addi	s0,sp,128
     9ee:	0c09                	addi	s8,s8,2
     9f0:	0000                	unimp
     9f2:	0101                	addi	sp,sp,0
     9f4:	08cd                	addi	a7,a7,19
     9f6:	0000                	unimp
     9f8:	02030003          	lb	zero,32(t1)
     9fc:	0000                	unimp
     9fe:	0101                	addi	sp,sp,0
     a00:	000d0efb          	0xd0efb
     a04:	0101                	addi	sp,sp,0
     a06:	0101                	addi	sp,sp,0
     a08:	0000                	unimp
     a0a:	0100                	addi	s0,sp,128
     a0c:	0000                	unimp
     a0e:	2e01                	jal	d1e <main+0xae>
     a10:	2f2e                	fld	ft10,200(sp)
     a12:	2e2e                	fld	ft8,200(sp)
     a14:	2f2e2e2f          	0x2f2e2e2f
     a18:	2e2e                	fld	ft8,200(sp)
     a1a:	2f2e2e2f          	0x2f2e2e2f
     a1e:	2f2e                	fld	ft10,200(sp)
     a20:	6972                	flw	fs2,28(sp)
     a22:	2d766373          	csrrsi	t1,0x2d7,12
     a26:	2f636367          	0x2f636367
     a2a:	696c                	flw	fa1,84(a0)
     a2c:	6762                	flw	fa4,24(sp)
     a2e:	2f006363          	bltu	zero,a6,d14 <main+0xa4>
     a32:	6f68                	flw	fa0,92(a4)
     a34:	656d                	lui	a0,0x1b
     a36:	78696c2f          	0x78696c2f
     a3a:	2f62                	fld	ft10,24(sp)
     a3c:	6f74                	flw	fa3,92(a4)
     a3e:	2f736c6f          	jal	s8,37534 <__C_STACK_TOP__+0x27534>
     a42:	4952                	lw	s2,20(sp)
     a44:	2f564353          	0x2f564353
     a48:	6972                	flw	fs2,28(sp)
     a4a:	36766373          	csrrsi	t1,0x367,12
     a4e:	2d34                	fld	fa3,88(a0)
     a50:	6e75                	lui	t3,0x1d
     a52:	776f6e6b          	0x776f6e6b
     a56:	2d6e                	fld	fs10,216(sp)
     a58:	6c65                	lui	s8,0x19
     a5a:	2f66                	fld	ft10,88(sp)
     a5c:	6e69                	lui	t3,0x1a
     a5e:	64756c63          	bltu	a0,t2,10b6 <main+0x446>
     a62:	2f65                	jal	121a <main+0x5aa>
     a64:	00737973          	csrrci	s2,0x7,6
     a68:	6d6f682f          	0x6d6f682f
     a6c:	2f65                	jal	1224 <main+0x5b4>
     a6e:	696c                	flw	fa1,84(a0)
     a70:	6278                	flw	fa4,68(a2)
     a72:	7469672f          	0x7469672f
     a76:	7568                	flw	fa0,108(a0)
     a78:	2f62                	fld	ft10,24(sp)
     a7a:	6972                	flw	fs2,28(sp)
     a7c:	2d766373          	csrrsi	t1,0x2d7,12
     a80:	2d756e67          	0x2d756e67
     a84:	6f74                	flw	fa3,92(a4)
     a86:	68636c6f          	jal	s8,3710c <__C_STACK_TOP__+0x2710c>
     a8a:	6961                	lui	s2,0x18
     a8c:	2f6e                	fld	ft10,216(sp)
     a8e:	7562                	flw	fa0,56(sp)
     a90:	6c69                	lui	s8,0x1a
     a92:	2d64                	fld	fs1,216(a0)
     a94:	2d636367          	0x2d636367
     a98:	656e                	flw	fa0,216(sp)
     a9a:	62696c77          	0x62696c77
     a9e:	732d                	lui	t1,0xfffeb
     aa0:	6174                	flw	fa3,68(a0)
     aa2:	2f326567          	0x2f326567
     aa6:	2f636367          	0x2f636367
     aaa:	6e69                	lui	t3,0x1a
     aac:	64756c63          	bltu	a0,t2,1104 <main+0x494>
     ab0:	0065                	c.nop	25
     ab2:	6d6f682f          	0x6d6f682f
     ab6:	2f65                	jal	126e <main+0x5fe>
     ab8:	696c                	flw	fa1,84(a0)
     aba:	6278                	flw	fa4,68(a2)
     abc:	6f6f742f          	0x6f6f742f
     ac0:	736c                	flw	fa1,100(a4)
     ac2:	5349522f          	0x5349522f
     ac6:	722f5643          	fmadd.d	fa2,ft10,ft2,fa4,unknown
     aca:	7369                	lui	t1,0xffffa
     acc:	34367663          	bgeu	a2,gp,e18 <main+0x1a8>
     ad0:	752d                	lui	a0,0xfffeb
     ad2:	6b6e                	flw	fs6,216(sp)
     ad4:	6f6e                	flw	ft10,216(sp)
     ad6:	652d6e77          	0x652d6e77
     ada:	666c                	flw	fa1,76(a2)
     adc:	636e692f          	0x636e692f
     ae0:	756c                	flw	fa1,108(a0)
     ae2:	6564                	flw	fs1,76(a0)
     ae4:	2e00                	fld	fs0,24(a2)
     ae6:	2f2e                	fld	ft10,200(sp)
     ae8:	2e2e                	fld	ft8,200(sp)
     aea:	2f2e2e2f          	0x2f2e2e2f
     aee:	2e2e                	fld	ft8,200(sp)
     af0:	2f2e2e2f          	0x2f2e2e2f
     af4:	2f2e                	fld	ft10,200(sp)
     af6:	6972                	flw	fs2,28(sp)
     af8:	2d766373          	csrrsi	t1,0x2d7,12
     afc:	2f636367          	0x2f636367
     b00:	696c                	flw	fa1,84(a0)
     b02:	6762                	flw	fa4,24(sp)
     b04:	2e2f6363          	bltu	t5,sp,dea <main+0x17a>
     b08:	2f2e                	fld	ft10,200(sp)
     b0a:	6e69                	lui	t3,0x1a
     b0c:	64756c63          	bltu	a0,t2,1164 <main+0x4f4>
     b10:	0065                	c.nop	25
     b12:	2e2e                	fld	ft8,200(sp)
     b14:	2f2e2e2f          	0x2f2e2e2f
     b18:	2e2e                	fld	ft8,200(sp)
     b1a:	2f2e2e2f          	0x2f2e2e2f
     b1e:	2e2e                	fld	ft8,200(sp)
     b20:	722f2e2f          	0x722f2e2f
     b24:	7369                	lui	t1,0xffffa
     b26:	672d7663          	bgeu	s10,s2,1192 <main+0x522>
     b2a:	6c2f6363          	bltu	t5,sp,11f0 <main+0x580>
     b2e:	6269                	lui	tp,0x1a
     b30:	2f636367          	0x2f636367
     b34:	2e2e                	fld	ft8,200(sp)
     b36:	6363672f          	0x6363672f
     b3a:	6e6f632f          	0x6e6f632f
     b3e:	6966                	flw	fs2,88(sp)
     b40:	69722f67          	0x69722f67
     b44:	00766373          	csrrsi	t1,0x7,12
     b48:	2e2e                	fld	ft8,200(sp)
     b4a:	2f2e2e2f          	0x2f2e2e2f
     b4e:	2e2e                	fld	ft8,200(sp)
     b50:	2f2e2e2f          	0x2f2e2e2f
     b54:	2f2e                	fld	ft10,200(sp)
     b56:	00636367          	0x636367
     b5a:	6c00                	flw	fs0,24(s0)
     b5c:	6269                	lui	tp,0x1a
     b5e:	32636367          	0x32636367
     b62:	632e                	flw	ft6,200(sp)
     b64:	0100                	addi	s0,sp,128
     b66:	0000                	unimp
     b68:	6f6c                	flw	fa1,92(a4)
     b6a:	682e6b63          	bltu	t3,sp,1200 <main+0x590>
     b6e:	0200                	addi	s0,sp,256
     b70:	0000                	unimp
     b72:	745f 7079 7365      	0x73657079745f
     b78:	682e                	flw	fa6,200(sp)
     b7a:	0200                	addi	s0,sp,256
     b7c:	0000                	unimp
     b7e:	64647473          	csrrci	s0,0x646,8
     b82:	6665                	lui	a2,0x19
     b84:	682e                	flw	fa6,200(sp)
     b86:	0300                	addi	s0,sp,384
     b88:	0000                	unimp
     b8a:	6572                	flw	fa0,28(sp)
     b8c:	6e65                	lui	t3,0x19
     b8e:	2e74                	fld	fa3,216(a2)
     b90:	0068                	addi	a0,sp,12
     b92:	0002                	c.slli64	zero
     b94:	6500                	flw	fs0,8(a0)
     b96:	7272                	flw	ft4,60(sp)
     b98:	6f6e                	flw	ft10,216(sp)
     b9a:	682e                	flw	fa6,200(sp)
     b9c:	0200                	addi	s0,sp,256
     b9e:	0000                	unimp
     ba0:	6c647473          	csrrci	s0,0x6c6,8
     ba4:	6269                	lui	tp,0x1a
     ba6:	682e                	flw	fa6,200(sp)
     ba8:	0400                	addi	s0,sp,512
     baa:	0000                	unimp
     bac:	6e75                	lui	t3,0x1d
     bae:	7369                	lui	t1,0xffffa
     bb0:	6474                	flw	fa3,76(s0)
     bb2:	682e                	flw	fa6,200(sp)
     bb4:	0200                	addi	s0,sp,256
     bb6:	0000                	unimp
     bb8:	6974                	flw	fa3,84(a0)
     bba:	656d                	lui	a0,0x1b
     bbc:	682e                	flw	fa6,200(sp)
     bbe:	0400                	addi	s0,sp,512
     bc0:	0000                	unimp
     bc2:	6168                	flw	fa0,68(a0)
     bc4:	61746873          	csrrsi	a6,0x617,8
     bc8:	2e62                	fld	ft8,24(sp)
     bca:	0068                	addi	a0,sp,12
     bcc:	0005                	c.nop	1
     bce:	7200                	flw	fs0,32(a2)
     bd0:	7369                	lui	t1,0xffffa
     bd2:	6f2d7663          	bgeu	s10,s2,12be <main+0x64e>
     bd6:	7470                	flw	fa2,108(s0)
     bd8:	00682e73          	csrrs	t3,0x6,a6
     bdc:	0006                	c.slli	zero,0x1
     bde:	6900                	flw	fs0,16(a0)
     be0:	736e                	flw	ft6,248(sp)
     be2:	2d6e                	fld	fs10,216(sp)
     be4:	736e6f63          	bltu	t3,s6,1322 <main+0x6b2>
     be8:	6174                	flw	fa3,68(a0)
     bea:	746e                	flw	fs0,248(sp)
     bec:	00682e73          	csrrs	t3,0x6,a6
     bf0:	6c000007          	0x6c000007
     bf4:	6269                	lui	tp,0x1a
     bf6:	32636367          	0x32636367
     bfa:	682e                	flw	fa6,200(sp)
     bfc:	0100                	addi	s0,sp,128
     bfe:	0000                	unimp
     c00:	0500                	addi	s0,sp,640
     c02:	0001                	nop
     c04:	0205                	addi	tp,tp,1
     c06:	1e00                	addi	s0,sp,816
     c08:	0000                	unimp
     c0a:	010aa603          	lw	a2,16(s5)
     c0e:	0305                	addi	t1,t1,1
     c10:	00090103          	lb	sp,0(s2) # 18000 <__C_STACK_TOP__+0x8000>
     c14:	0100                	addi	s0,sp,128
     c16:	097dd103          	lhu	sp,151(s11)
     c1a:	0000                	unimp
     c1c:	0301                	addi	t1,t1,0
     c1e:	0901                	addi	s2,s2,0
     c20:	0000                	unimp
     c22:	0301                	addi	t1,t1,0
     c24:	0901                	addi	s2,s2,0
     c26:	0000                	unimp
     c28:	0301                	addi	t1,t1,0
     c2a:	0901                	addi	s2,s2,0
     c2c:	0000                	unimp
     c2e:	0301                	addi	t1,t1,0
     c30:	0901                	addi	s2,s2,0
     c32:	0000                	unimp
     c34:	0301                	addi	t1,t1,0
     c36:	0901                	addi	s2,s2,0
     c38:	0000                	unimp
     c3a:	0301                	addi	t1,t1,0
     c3c:	0902                	c.slli64	s2
     c3e:	0000                	unimp
     c40:	0501                	addi	a0,a0,0
     c42:	0601                	addi	a2,a2,0
     c44:	0902a703          	lw	a4,144(t0) # 119485e <__C_STACK_TOP__+0x118485e>
     c48:	0000                	unimp
     c4a:	0501                	addi	a0,a0,0
     c4c:	0306                	slli	t1,t1,0x1
     c4e:	7dd9                	lui	s11,0xffff6
     c50:	0409                	addi	s0,s0,2
     c52:	0100                	addi	s0,sp,128
     c54:	0305                	addi	t1,t1,1
     c56:	0306                	slli	t1,t1,0x1
     c58:	0901                	addi	s2,s2,0
     c5a:	0004                	0x4
     c5c:	0501                	addi	a0,a0,0
     c5e:	0606                	slli	a2,a2,0x1
     c60:	00090003          	lb	zero,0(s2)
     c64:	0100                	addi	s0,sp,128
     c66:	0305                	addi	t1,t1,1
     c68:	0306                	slli	t1,t1,0x1
     c6a:	0901                	addi	s2,s2,0
     c6c:	0004                	0x4
     c6e:	0501                	addi	a0,a0,0
     c70:	0606                	slli	a2,a2,0x1
     c72:	00090003          	lb	zero,0(s2)
     c76:	0100                	addi	s0,sp,128
     c78:	0305                	addi	t1,t1,1
     c7a:	0306                	slli	t1,t1,0x1
     c7c:	0901                	addi	s2,s2,0
     c7e:	0004                	0x4
     c80:	0301                	addi	t1,t1,0
     c82:	0925                	addi	s2,s2,9
     c84:	0000                	unimp
     c86:	0501                	addi	a0,a0,0
     c88:	0606                	slli	a2,a2,0x1
     c8a:	00090003          	lb	zero,0(s2)
     c8e:	0100                	addi	s0,sp,128
     c90:	0705                	addi	a4,a4,1
     c92:	0306                	slli	t1,t1,0x1
     c94:	0902                	c.slli64	s2
     c96:	0004                	0x4
     c98:	0501                	addi	a0,a0,0
     c9a:	060a                	slli	a2,a2,0x2
     c9c:	08090003          	lb	zero,128(s2)
     ca0:	0100                	addi	s0,sp,128
     ca2:	0405                	addi	s0,s0,1
     ca4:	0306                	slli	t1,t1,0x1
     ca6:	0904                	addi	s1,sp,144
     ca8:	0004                	0x4
     caa:	0301                	addi	t1,t1,0
     cac:	0900                	addi	s0,sp,144
     cae:	0000                	unimp
     cb0:	0301                	addi	t1,t1,0
     cb2:	0900                	addi	s0,sp,144
     cb4:	0000                	unimp
     cb6:	0301                	addi	t1,t1,0
     cb8:	0900                	addi	s0,sp,144
     cba:	0000                	unimp
     cbc:	0301                	addi	t1,t1,0
     cbe:	0900                	addi	s0,sp,144
     cc0:	0000                	unimp
     cc2:	0301                	addi	t1,t1,0
     cc4:	0900                	addi	s0,sp,144
     cc6:	0014                	0x14
     cc8:	0301                	addi	t1,t1,0
     cca:	0902                	c.slli64	s2
     ccc:	0018                	0x18
     cce:	0501                	addi	a0,a0,0
     cd0:	00030607          	0x30607
     cd4:	0009                	c.nop	2
     cd6:	0100                	addi	s0,sp,128
     cd8:	0805                	addi	a6,a6,1
     cda:	0306                	slli	t1,t1,0x1
     cdc:	0905                	addi	s2,s2,1
     cde:	0004                	0x4
     ce0:	0501                	addi	a0,a0,0
     ce2:	0611                	addi	a2,a2,4
     ce4:	00090103          	lb	sp,0(s2)
     ce8:	0100                	addi	s0,sp,128
     cea:	1e05                	addi	t3,t3,-31
     cec:	04090003          	lb	zero,64(s2)
     cf0:	0100                	addi	s0,sp,128
     cf2:	0b05                	addi	s6,s6,1
     cf4:	04097f03          	0x4097f03
     cf8:	0100                	addi	s0,sp,128
     cfa:	0805                	addi	a6,a6,1
     cfc:	0306                	slli	t1,t1,0x1
     cfe:	0901                	addi	s2,s2,0
     d00:	0004                	0x4
     d02:	0501                	addi	a0,a0,0
     d04:	0003060b          	0x3060b
     d08:	0009                	c.nop	2
     d0a:	0100                	addi	s0,sp,128
     d0c:	0805                	addi	a6,a6,1
     d0e:	0306                	slli	t1,t1,0x1
     d10:	0901                	addi	s2,s2,0
     d12:	0004                	0x4
     d14:	0501                	addi	a0,a0,0
     d16:	0003060b          	0x3060b
     d1a:	0009                	c.nop	2
     d1c:	0100                	addi	s0,sp,128
     d1e:	0405                	addi	s0,s0,1
     d20:	0306                	slli	t1,t1,0x1
     d22:	00040903          	lb	s2,0(s0)
     d26:	0301                	addi	t1,t1,0
     d28:	0900                	addi	s0,sp,144
     d2a:	0000                	unimp
     d2c:	0301                	addi	t1,t1,0
     d2e:	0900                	addi	s0,sp,144
     d30:	0000                	unimp
     d32:	0301                	addi	t1,t1,0
     d34:	0900                	addi	s0,sp,144
     d36:	0000                	unimp
     d38:	0301                	addi	t1,t1,0
     d3a:	0900                	addi	s0,sp,144
     d3c:	0004                	0x4
     d3e:	0301                	addi	t1,t1,0
     d40:	0900                	addi	s0,sp,144
     d42:	000c                	0xc
     d44:	0301                	addi	t1,t1,0
     d46:	0900                	addi	s0,sp,144
     d48:	0000                	unimp
     d4a:	0301                	addi	t1,t1,0
     d4c:	0900                	addi	s0,sp,144
     d4e:	0008                	0x8
     d50:	0301                	addi	t1,t1,0
     d52:	0900                	addi	s0,sp,144
     d54:	000c                	0xc
     d56:	0301                	addi	t1,t1,0
     d58:	0900                	addi	s0,sp,144
     d5a:	0000                	unimp
     d5c:	0301                	addi	t1,t1,0
     d5e:	0900                	addi	s0,sp,144
     d60:	0008                	0x8
     d62:	0301                	addi	t1,t1,0
     d64:	0900                	addi	s0,sp,144
     d66:	0008                	0x8
     d68:	0301                	addi	t1,t1,0
     d6a:	0900                	addi	s0,sp,144
     d6c:	0004                	0x4
     d6e:	0301                	addi	t1,t1,0
     d70:	0900                	addi	s0,sp,144
     d72:	0004                	0x4
     d74:	0301                	addi	t1,t1,0
     d76:	0900                	addi	s0,sp,144
     d78:	0008                	0x8
     d7a:	0301                	addi	t1,t1,0
     d7c:	0900                	addi	s0,sp,144
     d7e:	0004                	0x4
     d80:	0301                	addi	t1,t1,0
     d82:	0900                	addi	s0,sp,144
     d84:	0004                	0x4
     d86:	0301                	addi	t1,t1,0
     d88:	0900                	addi	s0,sp,144
     d8a:	000c                	0xc
     d8c:	0301                	addi	t1,t1,0
     d8e:	0900                	addi	s0,sp,144
     d90:	000c                	0xc
     d92:	0301                	addi	t1,t1,0
     d94:	0900                	addi	s0,sp,144
     d96:	0000                	unimp
     d98:	0301                	addi	t1,t1,0
     d9a:	0900                	addi	s0,sp,144
     d9c:	0008                	0x8
     d9e:	0301                	addi	t1,t1,0
     da0:	0900                	addi	s0,sp,144
     da2:	0008                	0x8
     da4:	0301                	addi	t1,t1,0
     da6:	0900                	addi	s0,sp,144
     da8:	0004                	0x4
     daa:	0301                	addi	t1,t1,0
     dac:	0900                	addi	s0,sp,144
     dae:	0004                	0x4
     db0:	0301                	addi	t1,t1,0
     db2:	0900                	addi	s0,sp,144
     db4:	0004                	0x4
     db6:	0301                	addi	t1,t1,0
     db8:	0900                	addi	s0,sp,144
     dba:	0000                	unimp
     dbc:	0301                	addi	t1,t1,0
     dbe:	0900                	addi	s0,sp,144
     dc0:	0008                	0x8
     dc2:	0301                	addi	t1,t1,0
     dc4:	0901                	addi	s2,s2,0
     dc6:	0000                	unimp
     dc8:	0501                	addi	a0,a0,0
     dca:	fe03060b          	0xfe03060b
     dce:	0900                	addi	s0,sp,144
     dd0:	0000                	unimp
     dd2:	0501                	addi	a0,a0,0
     dd4:	0304                	addi	s1,sp,384
     dd6:	7ef5                	lui	t4,0xffffd
     dd8:	0809                	addi	a6,a6,2
     dda:	0100                	addi	s0,sp,128
     ddc:	0306                	slli	t1,t1,0x1
     dde:	0915                	addi	s2,s2,5
     de0:	0014                	0x14
     de2:	0501                	addi	a0,a0,0
     de4:	00030607          	0x30607
     de8:	0009                	c.nop	2
     dea:	0100                	addi	s0,sp,128
     dec:	0605                	addi	a2,a2,1
     dee:	0306                	slli	t1,t1,0x1
     df0:	0901                	addi	s2,s2,0
     df2:	0004                	0x4
     df4:	0501                	addi	a0,a0,0
     df6:	0609                	addi	a2,a2,2
     df8:	00090003          	lb	zero,0(s2)
     dfc:	0100                	addi	s0,sp,128
     dfe:	0405                	addi	s0,s0,1
     e00:	0306                	slli	t1,t1,0x1
     e02:	0902                	c.slli64	s2
     e04:	0008                	0x8
     e06:	0301                	addi	t1,t1,0
     e08:	0900                	addi	s0,sp,144
     e0a:	0000                	unimp
     e0c:	0301                	addi	t1,t1,0
     e0e:	0900                	addi	s0,sp,144
     e10:	0000                	unimp
     e12:	0301                	addi	t1,t1,0
     e14:	0900                	addi	s0,sp,144
     e16:	0000                	unimp
     e18:	0301                	addi	t1,t1,0
     e1a:	0900                	addi	s0,sp,144
     e1c:	0000                	unimp
     e1e:	0301                	addi	t1,t1,0
     e20:	0900                	addi	s0,sp,144
     e22:	0014                	0x14
     e24:	0301                	addi	t1,t1,0
     e26:	0902                	c.slli64	s2
     e28:	0018                	0x18
     e2a:	0501                	addi	a0,a0,0
     e2c:	00030607          	0x30607
     e30:	0009                	c.nop	2
     e32:	0100                	addi	s0,sp,128
     e34:	0805                	addi	a6,a6,1
     e36:	0306                	slli	t1,t1,0x1
     e38:	0909                	addi	s2,s2,2
     e3a:	0004                	0x4
     e3c:	0501                	addi	a0,a0,0
     e3e:	0003060b          	0x3060b
     e42:	0009                	c.nop	2
     e44:	0100                	addi	s0,sp,128
     e46:	0805                	addi	a6,a6,1
     e48:	0306                	slli	t1,t1,0x1
     e4a:	0901                	addi	s2,s2,0
     e4c:	0004                	0x4
     e4e:	0501                	addi	a0,a0,0
     e50:	0003060b          	0x3060b
     e54:	0009                	c.nop	2
     e56:	0100                	addi	s0,sp,128
     e58:	0405                	addi	s0,s0,1
     e5a:	0306                	slli	t1,t1,0x1
     e5c:	0912                	slli	s2,s2,0x4
     e5e:	0004                	0x4
     e60:	0301                	addi	t1,t1,0
     e62:	0900                	addi	s0,sp,144
     e64:	0000                	unimp
     e66:	0301                	addi	t1,t1,0
     e68:	0900                	addi	s0,sp,144
     e6a:	0000                	unimp
     e6c:	0301                	addi	t1,t1,0
     e6e:	0900                	addi	s0,sp,144
     e70:	0000                	unimp
     e72:	0301                	addi	t1,t1,0
     e74:	0900                	addi	s0,sp,144
     e76:	0004                	0x4
     e78:	0301                	addi	t1,t1,0
     e7a:	0900                	addi	s0,sp,144
     e7c:	0008                	0x8
     e7e:	0301                	addi	t1,t1,0
     e80:	0900                	addi	s0,sp,144
     e82:	0008                	0x8
     e84:	0301                	addi	t1,t1,0
     e86:	0900                	addi	s0,sp,144
     e88:	0004                	0x4
     e8a:	0301                	addi	t1,t1,0
     e8c:	0900                	addi	s0,sp,144
     e8e:	000c                	0xc
     e90:	0301                	addi	t1,t1,0
     e92:	0900                	addi	s0,sp,144
     e94:	0000                	unimp
     e96:	0301                	addi	t1,t1,0
     e98:	0900                	addi	s0,sp,144
     e9a:	0008                	0x8
     e9c:	0301                	addi	t1,t1,0
     e9e:	0900                	addi	s0,sp,144
     ea0:	0008                	0x8
     ea2:	0301                	addi	t1,t1,0
     ea4:	0900                	addi	s0,sp,144
     ea6:	0004                	0x4
     ea8:	0301                	addi	t1,t1,0
     eaa:	0900                	addi	s0,sp,144
     eac:	0004                	0x4
     eae:	0301                	addi	t1,t1,0
     eb0:	0900                	addi	s0,sp,144
     eb2:	0008                	0x8
     eb4:	0301                	addi	t1,t1,0
     eb6:	0900                	addi	s0,sp,144
     eb8:	0004                	0x4
     eba:	0301                	addi	t1,t1,0
     ebc:	0900                	addi	s0,sp,144
     ebe:	0004                	0x4
     ec0:	0301                	addi	t1,t1,0
     ec2:	0900                	addi	s0,sp,144
     ec4:	000c                	0xc
     ec6:	0301                	addi	t1,t1,0
     ec8:	0900                	addi	s0,sp,144
     eca:	000c                	0xc
     ecc:	0301                	addi	t1,t1,0
     ece:	0900                	addi	s0,sp,144
     ed0:	0000                	unimp
     ed2:	0301                	addi	t1,t1,0
     ed4:	0900                	addi	s0,sp,144
     ed6:	0008                	0x8
     ed8:	0301                	addi	t1,t1,0
     eda:	0900                	addi	s0,sp,144
     edc:	0008                	0x8
     ede:	0301                	addi	t1,t1,0
     ee0:	0900                	addi	s0,sp,144
     ee2:	0004                	0x4
     ee4:	0301                	addi	t1,t1,0
     ee6:	0900                	addi	s0,sp,144
     ee8:	0004                	0x4
     eea:	0301                	addi	t1,t1,0
     eec:	0900                	addi	s0,sp,144
     eee:	0004                	0x4
     ef0:	0301                	addi	t1,t1,0
     ef2:	0900                	addi	s0,sp,144
     ef4:	0000                	unimp
     ef6:	0301                	addi	t1,t1,0
     ef8:	0900                	addi	s0,sp,144
     efa:	0008                	0x8
     efc:	0501                	addi	a0,a0,0
     efe:	00e30303          	lb	t1,14(t1) # ffffa00e <__C_STACK_TOP__+0xfffea00e>
     f02:	0009                	c.nop	2
     f04:	0100                	addi	s0,sp,128
     f06:	00090103          	lb	sp,0(s2)
     f0a:	0100                	addi	s0,sp,128
     f0c:	0105                	addi	sp,sp,1
     f0e:	0306                	slli	t1,t1,0x1
     f10:	00e1                	addi	ra,ra,24
     f12:	0009                	c.nop	2
     f14:	0100                	addi	s0,sp,128
     f16:	0405                	addi	s0,s0,1
     f18:	097e9d03          	lh	s10,151(t4) # ffffd097 <__C_STACK_TOP__+0xfffed097>
     f1c:	0008                	0x8
     f1e:	0501                	addi	a0,a0,0
     f20:	0608                	addi	a0,sp,768
     f22:	14091203          	lh	tp,320(s2)
     f26:	0100                	addi	s0,sp,128
     f28:	00090203          	lb	tp,0(s2)
     f2c:	0100                	addi	s0,sp,128
     f2e:	0b05                	addi	s6,s6,1
     f30:	0306                	slli	t1,t1,0x1
     f32:	0900                	addi	s0,sp,144
     f34:	0000                	unimp
     f36:	0501                	addi	a0,a0,0
     f38:	0608                	addi	a0,sp,768
     f3a:	04090103          	lb	sp,64(s2)
     f3e:	0100                	addi	s0,sp,128
     f40:	0b05                	addi	s6,s6,1
     f42:	0306                	slli	t1,t1,0x1
     f44:	0900                	addi	s0,sp,144
     f46:	0000                	unimp
     f48:	0501                	addi	a0,a0,0
     f4a:	0608                	addi	a0,sp,768
     f4c:	04090103          	lb	sp,64(s2)
     f50:	0100                	addi	s0,sp,128
     f52:	0b05                	addi	s6,s6,1
     f54:	0306                	slli	t1,t1,0x1
     f56:	0901                	addi	s2,s2,0
     f58:	0000                	unimp
     f5a:	0501                	addi	a0,a0,0
     f5c:	031e                	slli	t1,t1,0x7
     f5e:	097f                	0x97f
     f60:	0004                	0x4
     f62:	0501                	addi	a0,a0,0
     f64:	0308                	addi	a0,sp,384
     f66:	00040903          	lb	s2,0(s0)
     f6a:	0501                	addi	a0,a0,0
     f6c:	0311                	addi	t1,t1,4
     f6e:	097d                	addi	s2,s2,31
     f70:	0004                	0x4
     f72:	0501                	addi	a0,a0,0
     f74:	0308                	addi	a0,sp,384
     f76:	00040903          	lb	s2,0(s0)
     f7a:	0501                	addi	a0,a0,0
     f7c:	097d030b          	0x97d030b
     f80:	0004                	0x4
     f82:	0501                	addi	a0,a0,0
     f84:	0608                	addi	a0,sp,768
     f86:	04090103          	lb	sp,64(s2)
     f8a:	0100                	addi	s0,sp,128
     f8c:	00090203          	lb	tp,0(s2)
     f90:	0100                	addi	s0,sp,128
     f92:	00090003          	lb	zero,0(s2)
     f96:	0100                	addi	s0,sp,128
     f98:	00090003          	lb	zero,0(s2)
     f9c:	0100                	addi	s0,sp,128
     f9e:	00090003          	lb	zero,0(s2)
     fa2:	0100                	addi	s0,sp,128
     fa4:	00090003          	lb	zero,0(s2)
     fa8:	0100                	addi	s0,sp,128
     faa:	08090003          	lb	zero,128(s2)
     fae:	0100                	addi	s0,sp,128
     fb0:	00090003          	lb	zero,0(s2)
     fb4:	0100                	addi	s0,sp,128
     fb6:	08090003          	lb	zero,128(s2)
     fba:	0100                	addi	s0,sp,128
     fbc:	0c090003          	lb	zero,192(s2)
     fc0:	0100                	addi	s0,sp,128
     fc2:	00090003          	lb	zero,0(s2)
     fc6:	0100                	addi	s0,sp,128
     fc8:	08090003          	lb	zero,128(s2)
     fcc:	0100                	addi	s0,sp,128
     fce:	08090003          	lb	zero,128(s2)
     fd2:	0100                	addi	s0,sp,128
     fd4:	04090003          	lb	zero,64(s2)
     fd8:	0100                	addi	s0,sp,128
     fda:	04090003          	lb	zero,64(s2)
     fde:	0100                	addi	s0,sp,128
     fe0:	08090003          	lb	zero,128(s2)
     fe4:	0100                	addi	s0,sp,128
     fe6:	04090003          	lb	zero,64(s2)
     fea:	0100                	addi	s0,sp,128
     fec:	04090003          	lb	zero,64(s2)
     ff0:	0100                	addi	s0,sp,128
     ff2:	0c090003          	lb	zero,192(s2)
     ff6:	0100                	addi	s0,sp,128
     ff8:	08090003          	lb	zero,128(s2)
     ffc:	0100                	addi	s0,sp,128
     ffe:	04090003          	lb	zero,64(s2)
    1002:	0100                	addi	s0,sp,128
    1004:	08090003          	lb	zero,128(s2)
    1008:	0100                	addi	s0,sp,128
    100a:	08090003          	lb	zero,128(s2)
    100e:	0100                	addi	s0,sp,128
    1010:	04090003          	lb	zero,64(s2)
    1014:	0100                	addi	s0,sp,128
    1016:	04090003          	lb	zero,64(s2)
    101a:	0100                	addi	s0,sp,128
    101c:	08090003          	lb	zero,128(s2)
    1020:	0100                	addi	s0,sp,128
    1022:	04090003          	lb	zero,64(s2)
    1026:	0100                	addi	s0,sp,128
    1028:	08090003          	lb	zero,128(s2)
    102c:	0100                	addi	s0,sp,128
    102e:	0705                	addi	a4,a4,1
    1030:	04091503          	lh	a0,64(s2)
    1034:	0100                	addi	s0,sp,128
    1036:	0a05                	addi	s4,s4,1
    1038:	0306                	slli	t1,t1,0x1
    103a:	0900                	addi	s0,sp,144
    103c:	0000                	unimp
    103e:	0501                	addi	a0,a0,0
    1040:	0604                	addi	s1,sp,768
    1042:	04091303          	lh	t1,64(s2)
    1046:	0100                	addi	s0,sp,128
    1048:	00090003          	lb	zero,0(s2)
    104c:	0100                	addi	s0,sp,128
    104e:	00090003          	lb	zero,0(s2)
    1052:	0100                	addi	s0,sp,128
    1054:	00090003          	lb	zero,0(s2)
    1058:	0100                	addi	s0,sp,128
    105a:	00090003          	lb	zero,0(s2)
    105e:	0100                	addi	s0,sp,128
    1060:	14090003          	lb	zero,320(s2)
    1064:	0100                	addi	s0,sp,128
    1066:	20090103          	lb	sp,512(s2)
    106a:	0100                	addi	s0,sp,128
    106c:	0705                	addi	a4,a4,1
    106e:	0306                	slli	t1,t1,0x1
    1070:	0900                	addi	s0,sp,144
    1072:	0000                	unimp
    1074:	0501                	addi	a0,a0,0
    1076:	0608                	addi	a0,sp,768
    1078:	04090a03          	lb	s4,64(s2)
    107c:	0100                	addi	s0,sp,128
    107e:	0306                	slli	t1,t1,0x1
    1080:	0902                	c.slli64	s2
    1082:	0000                	unimp
    1084:	0501                	addi	a0,a0,0
    1086:	097e030b          	0x97e030b
    108a:	0004                	0x4
    108c:	0501                	addi	a0,a0,0
    108e:	0314                	addi	a3,sp,384
    1090:	0900                	addi	s0,sp,144
    1092:	0004                	0x4
    1094:	0501                	addi	a0,a0,0
    1096:	0304                	addi	s1,sp,384
    1098:	0975                	addi	s2,s2,29
    109a:	000c                	0xc
    109c:	0501                	addi	a0,a0,0
    109e:	0608                	addi	a0,sp,768
    10a0:	14091e03          	lh	t3,320(s2)
    10a4:	0100                	addi	s0,sp,128
    10a6:	00090303          	lb	t1,0(s2)
    10aa:	0100                	addi	s0,sp,128
    10ac:	00090203          	lb	tp,0(s2)
    10b0:	0100                	addi	s0,sp,128
    10b2:	1e05                	addi	t3,t3,-31
    10b4:	0306                	slli	t1,t1,0x1
    10b6:	0900                	addi	s0,sp,144
    10b8:	0000                	unimp
    10ba:	0501                	addi	a0,a0,0
    10bc:	0311                	addi	t1,t1,4
    10be:	0900                	addi	s0,sp,144
    10c0:	0004                	0x4
    10c2:	0501                	addi	a0,a0,0
    10c4:	0900030b          	0x900030b
    10c8:	0004                	0x4
    10ca:	0501                	addi	a0,a0,0
    10cc:	0608                	addi	a0,sp,768
    10ce:	04090103          	lb	sp,64(s2)
    10d2:	0100                	addi	s0,sp,128
    10d4:	0306                	slli	t1,t1,0x1
    10d6:	0905                	addi	s2,s2,1
    10d8:	0000                	unimp
    10da:	0501                	addi	a0,a0,0
    10dc:	097c030b          	0x97c030b
    10e0:	0004                	0x4
    10e2:	0501                	addi	a0,a0,0
    10e4:	0308                	addi	a0,sp,384
    10e6:	0904                	addi	s1,sp,144
    10e8:	0004                	0x4
    10ea:	0501                	addi	a0,a0,0
    10ec:	0311                	addi	t1,t1,4
    10ee:	097d                	addi	s2,s2,31
    10f0:	0004                	0x4
    10f2:	0501                	addi	a0,a0,0
    10f4:	031e                	slli	t1,t1,0x7
    10f6:	0900                	addi	s0,sp,144
    10f8:	0004                	0x4
    10fa:	0501                	addi	a0,a0,0
    10fc:	0900030b          	0x900030b
    1100:	0004                	0x4
    1102:	0501                	addi	a0,a0,0
    1104:	0308                	addi	a0,sp,384
    1106:	00040903          	lb	s2,0(s0)
    110a:	0501                	addi	a0,a0,0
    110c:	097b030b          	0x97b030b
    1110:	000c                	0xc
    1112:	0501                	addi	a0,a0,0
    1114:	0608                	addi	a0,sp,768
    1116:	04090103          	lb	sp,64(s2)
    111a:	0100                	addi	s0,sp,128
    111c:	00090103          	lb	sp,0(s2)
    1120:	0100                	addi	s0,sp,128
    1122:	00090103          	lb	sp,0(s2)
    1126:	0100                	addi	s0,sp,128
    1128:	00090203          	lb	tp,0(s2)
    112c:	0100                	addi	s0,sp,128
    112e:	00090003          	lb	zero,0(s2)
    1132:	0100                	addi	s0,sp,128
    1134:	00090003          	lb	zero,0(s2)
    1138:	0100                	addi	s0,sp,128
    113a:	00090003          	lb	zero,0(s2)
    113e:	0100                	addi	s0,sp,128
    1140:	00090003          	lb	zero,0(s2)
    1144:	0100                	addi	s0,sp,128
    1146:	00090003          	lb	zero,0(s2)
    114a:	0100                	addi	s0,sp,128
    114c:	00090003          	lb	zero,0(s2)
    1150:	0100                	addi	s0,sp,128
    1152:	04090003          	lb	zero,64(s2)
    1156:	0100                	addi	s0,sp,128
    1158:	0c090003          	lb	zero,192(s2)
    115c:	0100                	addi	s0,sp,128
    115e:	00090003          	lb	zero,0(s2)
    1162:	0100                	addi	s0,sp,128
    1164:	08090003          	lb	zero,128(s2)
    1168:	0100                	addi	s0,sp,128
    116a:	08090003          	lb	zero,128(s2)
    116e:	0100                	addi	s0,sp,128
    1170:	04090003          	lb	zero,64(s2)
    1174:	0100                	addi	s0,sp,128
    1176:	04090003          	lb	zero,64(s2)
    117a:	0100                	addi	s0,sp,128
    117c:	08090003          	lb	zero,128(s2)
    1180:	0100                	addi	s0,sp,128
    1182:	04090003          	lb	zero,64(s2)
    1186:	0100                	addi	s0,sp,128
    1188:	04090003          	lb	zero,64(s2)
    118c:	0100                	addi	s0,sp,128
    118e:	04090003          	lb	zero,64(s2)
    1192:	0100                	addi	s0,sp,128
    1194:	08090003          	lb	zero,128(s2)
    1198:	0100                	addi	s0,sp,128
    119a:	0c090003          	lb	zero,192(s2)
    119e:	0100                	addi	s0,sp,128
    11a0:	08090003          	lb	zero,128(s2)
    11a4:	0100                	addi	s0,sp,128
    11a6:	08090003          	lb	zero,128(s2)
    11aa:	0100                	addi	s0,sp,128
    11ac:	04090003          	lb	zero,64(s2)
    11b0:	0100                	addi	s0,sp,128
    11b2:	04090003          	lb	zero,64(s2)
    11b6:	0100                	addi	s0,sp,128
    11b8:	08090003          	lb	zero,128(s2)
    11bc:	0100                	addi	s0,sp,128
    11be:	08090003          	lb	zero,128(s2)
    11c2:	0100                	addi	s0,sp,128
    11c4:	0306                	slli	t1,t1,0x1
    11c6:	0901                	addi	s2,s2,0
    11c8:	0000                	unimp
    11ca:	0301                	addi	t1,t1,0
    11cc:	097f                	0x97f
    11ce:	0004                	0x4
    11d0:	0601                	addi	a2,a2,0
    11d2:	04090003          	lb	zero,64(s2)
    11d6:	0100                	addi	s0,sp,128
    11d8:	00090103          	lb	sp,0(s2)
    11dc:	0100                	addi	s0,sp,128
    11de:	00090003          	lb	zero,0(s2)
    11e2:	0100                	addi	s0,sp,128
    11e4:	00090003          	lb	zero,0(s2)
    11e8:	0100                	addi	s0,sp,128
    11ea:	00090003          	lb	zero,0(s2)
    11ee:	0100                	addi	s0,sp,128
    11f0:	08090003          	lb	zero,128(s2)
    11f4:	0100                	addi	s0,sp,128
    11f6:	04090003          	lb	zero,64(s2)
    11fa:	0100                	addi	s0,sp,128
    11fc:	04090003          	lb	zero,64(s2)
    1200:	0100                	addi	s0,sp,128
    1202:	04090003          	lb	zero,64(s2)
    1206:	0100                	addi	s0,sp,128
    1208:	04090003          	lb	zero,64(s2)
    120c:	0100                	addi	s0,sp,128
    120e:	00090003          	lb	zero,0(s2)
    1212:	0100                	addi	s0,sp,128
    1214:	04090003          	lb	zero,64(s2)
    1218:	0100                	addi	s0,sp,128
    121a:	14090003          	lb	zero,320(s2)
    121e:	0100                	addi	s0,sp,128
    1220:	00090003          	lb	zero,0(s2)
    1224:	0100                	addi	s0,sp,128
    1226:	00090003          	lb	zero,0(s2)
    122a:	0100                	addi	s0,sp,128
    122c:	04090003          	lb	zero,64(s2)
    1230:	0100                	addi	s0,sp,128
    1232:	04090003          	lb	zero,64(s2)
    1236:	0100                	addi	s0,sp,128
    1238:	08090003          	lb	zero,128(s2)
    123c:	0100                	addi	s0,sp,128
    123e:	00090203          	lb	tp,0(s2)
    1242:	0100                	addi	s0,sp,128
    1244:	0b05                	addi	s6,s6,1
    1246:	0306                	slli	t1,t1,0x1
    1248:	0900                	addi	s0,sp,144
    124a:	0000                	unimp
    124c:	0501                	addi	a0,a0,0
    124e:	0314                	addi	a3,sp,384
    1250:	0900                	addi	s0,sp,144
    1252:	0004                	0x4
    1254:	0501                	addi	a0,a0,0
    1256:	0308                	addi	a0,sp,384
    1258:	097e                	slli	s2,s2,0x1f
    125a:	0004                	0x4
    125c:	0501                	addi	a0,a0,0
    125e:	097d030b          	0x97d030b
    1262:	0014                	0x14
    1264:	0501                	addi	a0,a0,0
    1266:	0308                	addi	a0,sp,384
    1268:	00040903          	lb	s2,0(s0)
    126c:	0501                	addi	a0,a0,0
    126e:	0908030b          	0x908030b
    1272:	0004                	0x4
    1274:	0501                	addi	a0,a0,0
    1276:	0321                	addi	t1,t1,8
    1278:	097a                	slli	s2,s2,0x1e
    127a:	0004                	0x4
    127c:	0501                	addi	a0,a0,0
    127e:	0605                	addi	a2,a2,1
    1280:	04090203          	lb	tp,64(s2)
    1284:	0100                	addi	s0,sp,128
    1286:	0705                	addi	a4,a4,1
    1288:	0306                	slli	t1,t1,0x1
    128a:	0900                	addi	s0,sp,144
    128c:	0000                	unimp
    128e:	0501                	addi	a0,a0,0
    1290:	0605                	addi	a2,a2,1
    1292:	04090103          	lb	sp,64(s2)
    1296:	0100                	addi	s0,sp,128
    1298:	00090003          	lb	zero,0(s2)
    129c:	0100                	addi	s0,sp,128
    129e:	00090003          	lb	zero,0(s2)
    12a2:	0100                	addi	s0,sp,128
    12a4:	00090003          	lb	zero,0(s2)
    12a8:	0100                	addi	s0,sp,128
    12aa:	00090003          	lb	zero,0(s2)
    12ae:	0100                	addi	s0,sp,128
    12b0:	0705                	addi	a4,a4,1
    12b2:	0306                	slli	t1,t1,0x1
    12b4:	00040943          	fmadd.s	fs2,fs0,ft0,ft0,rne
    12b8:	0301                	addi	t1,t1,0
    12ba:	097f                	0x97f
    12bc:	0004                	0x4
    12be:	0901                	addi	s2,s2,0
    12c0:	0008                	0x8
    12c2:	0100                	addi	s0,sp,128
    12c4:	7d01                	lui	s10,0xfffe0
    12c6:	0009                	c.nop	2
    12c8:	0300                	addi	s0,sp,384
    12ca:	0300                	addi	s0,sp,384
    12cc:	0002                	c.slli64	zero
    12ce:	0100                	addi	s0,sp,128
    12d0:	fb01                	bnez	a4,11e0 <main+0x570>
    12d2:	0d0e                	slli	s10,s10,0x3
    12d4:	0100                	addi	s0,sp,128
    12d6:	0101                	addi	sp,sp,0
    12d8:	0001                	nop
    12da:	0000                	unimp
    12dc:	0001                	nop
    12de:	0100                	addi	s0,sp,128
    12e0:	2e2e                	fld	ft8,200(sp)
    12e2:	2f2e2e2f          	0x2f2e2e2f
    12e6:	2e2e                	fld	ft8,200(sp)
    12e8:	2f2e2e2f          	0x2f2e2e2f
    12ec:	2e2e                	fld	ft8,200(sp)
    12ee:	722f2e2f          	0x722f2e2f
    12f2:	7369                	lui	t1,0xffffa
    12f4:	672d7663          	bgeu	s10,s2,1960 <_wctomb_r+0x8>
    12f8:	6c2f6363          	bltu	t5,sp,19be <__moddi3+0x16>
    12fc:	6269                	lui	tp,0x1a
    12fe:	00636367          	0x636367
    1302:	6d6f682f          	0x6d6f682f
    1306:	2f65                	jal	1abe <__moddi3+0x116>
    1308:	696c                	flw	fa1,84(a0)
    130a:	6278                	flw	fa4,68(a2)
    130c:	6f6f742f          	0x6f6f742f
    1310:	736c                	flw	fa1,100(a4)
    1312:	5349522f          	0x5349522f
    1316:	722f5643          	fmadd.d	fa2,ft10,ft2,fa4,unknown
    131a:	7369                	lui	t1,0xffffa
    131c:	34367663          	bgeu	a2,gp,1668 <strtol+0x4>
    1320:	752d                	lui	a0,0xfffeb
    1322:	6b6e                	flw	fs6,216(sp)
    1324:	6f6e                	flw	ft10,216(sp)
    1326:	652d6e77          	0x652d6e77
    132a:	666c                	flw	fa1,76(a2)
    132c:	636e692f          	0x636e692f
    1330:	756c                	flw	fa1,108(a0)
    1332:	6564                	flw	fs1,76(a0)
    1334:	7379732f          	0x7379732f
    1338:	2f00                	fld	fs0,24(a4)
    133a:	6f68                	flw	fa0,92(a4)
    133c:	656d                	lui	a0,0x1b
    133e:	78696c2f          	0x78696c2f
    1342:	2f62                	fld	ft10,24(sp)
    1344:	68746967          	0x68746967
    1348:	6275                	lui	tp,0x1d
    134a:	7369722f          	0x7369722f
    134e:	672d7663          	bgeu	s10,s2,19ba <__moddi3+0x12>
    1352:	756e                	flw	fa0,248(sp)
    1354:	742d                	lui	s0,0xfffeb
    1356:	636c6f6f          	jal	t5,c798c <__C_STACK_TOP__+0xb798c>
    135a:	6168                	flw	fa0,68(a0)
    135c:	6e69                	lui	t3,0x1a
    135e:	6975622f          	0x6975622f
    1362:	646c                	flw	fa1,76(s0)
    1364:	672d                	lui	a4,0xb
    1366:	6e2d6363          	bltu	s10,sp,1a4c <__moddi3+0xa4>
    136a:	7765                	lui	a4,0xffff9
    136c:	696c                	flw	fa1,84(a0)
    136e:	2d62                	fld	fs10,24(sp)
    1370:	67617473          	csrrci	s0,0x676,2
    1374:	3265                	jal	d1c <main+0xac>
    1376:	6363672f          	0x6363672f
    137a:	636e692f          	0x636e692f
    137e:	756c                	flw	fa1,108(a0)
    1380:	6564                	flw	fs1,76(a0)
    1382:	2f00                	fld	fs0,24(a4)
    1384:	6f68                	flw	fa0,92(a4)
    1386:	656d                	lui	a0,0x1b
    1388:	78696c2f          	0x78696c2f
    138c:	2f62                	fld	ft10,24(sp)
    138e:	6f74                	flw	fa3,92(a4)
    1390:	2f736c6f          	jal	s8,37e86 <__C_STACK_TOP__+0x27e86>
    1394:	4952                	lw	s2,20(sp)
    1396:	2f564353          	0x2f564353
    139a:	6972                	flw	fs2,28(sp)
    139c:	36766373          	csrrsi	t1,0x367,12
    13a0:	2d34                	fld	fa3,88(a0)
    13a2:	6e75                	lui	t3,0x1d
    13a4:	776f6e6b          	0x776f6e6b
    13a8:	2d6e                	fld	fs10,216(sp)
    13aa:	6c65                	lui	s8,0x19
    13ac:	2f66                	fld	ft10,88(sp)
    13ae:	6e69                	lui	t3,0x1a
    13b0:	64756c63          	bltu	a0,t2,1a08 <__moddi3+0x60>
    13b4:	0065                	c.nop	25
    13b6:	2e2e                	fld	ft8,200(sp)
    13b8:	2f2e2e2f          	0x2f2e2e2f
    13bc:	2e2e                	fld	ft8,200(sp)
    13be:	2f2e2e2f          	0x2f2e2e2f
    13c2:	2e2e                	fld	ft8,200(sp)
    13c4:	722f2e2f          	0x722f2e2f
    13c8:	7369                	lui	t1,0xffffa
    13ca:	672d7663          	bgeu	s10,s2,1a36 <__moddi3+0x8e>
    13ce:	6c2f6363          	bltu	t5,sp,1a94 <__moddi3+0xec>
    13d2:	6269                	lui	tp,0x1a
    13d4:	2f636367          	0x2f636367
    13d8:	2e2e                	fld	ft8,200(sp)
    13da:	636e692f          	0x636e692f
    13de:	756c                	flw	fa1,108(a0)
    13e0:	6564                	flw	fs1,76(a0)
    13e2:	2e00                	fld	fs0,24(a2)
    13e4:	2f2e                	fld	ft10,200(sp)
    13e6:	2e2e                	fld	ft8,200(sp)
    13e8:	2f2e2e2f          	0x2f2e2e2f
    13ec:	2e2e                	fld	ft8,200(sp)
    13ee:	2f2e2e2f          	0x2f2e2e2f
    13f2:	2f2e                	fld	ft10,200(sp)
    13f4:	6972                	flw	fs2,28(sp)
    13f6:	2d766373          	csrrsi	t1,0x2d7,12
    13fa:	2f636367          	0x2f636367
    13fe:	696c                	flw	fa1,84(a0)
    1400:	6762                	flw	fa4,24(sp)
    1402:	2e2f6363          	bltu	t5,sp,16e8 <_setlocale_r+0x58>
    1406:	2f2e                	fld	ft10,200(sp)
    1408:	2f636367          	0x2f636367
    140c:	666e6f63          	bltu	t3,t1,1a8a <__moddi3+0xe2>
    1410:	6769                	lui	a4,0x1a
    1412:	7369722f          	0x7369722f
    1416:	2e007663          	bgeu	zero,zero,1702 <_setlocale_r+0x72>
    141a:	2f2e                	fld	ft10,200(sp)
    141c:	2e2e                	fld	ft8,200(sp)
    141e:	2f2e2e2f          	0x2f2e2e2f
    1422:	2e2e                	fld	ft8,200(sp)
    1424:	672f2e2f          	amoand.w.aqrl	t3,s2,(t5)
    1428:	00006363          	bltu	zero,zero,142e <main+0x7be>
    142c:	696c                	flw	fa1,84(a0)
    142e:	6762                	flw	fa4,24(sp)
    1430:	2e326363          	bltu	tp,gp,1716 <__locale_mb_cur_max+0x12>
    1434:	00010063          	beqz	sp,1434 <atoi+0x4>
    1438:	6c00                	flw	fs0,24(s0)
    143a:	2e6b636f          	jal	t1,b7720 <__C_STACK_TOP__+0xa7720>
    143e:	0068                	addi	a0,sp,12
    1440:	0002                	c.slli64	zero
    1442:	5f00                	lw	s0,56(a4)
    1444:	7974                	flw	fa3,116(a0)
    1446:	6570                	flw	fa2,76(a0)
    1448:	00682e73          	csrrs	t3,0x6,a6
    144c:	0002                	c.slli64	zero
    144e:	7300                	flw	fs0,32(a4)
    1450:	6474                	flw	fa3,76(s0)
    1452:	6564                	flw	fs1,76(a0)
    1454:	2e66                	fld	ft8,88(sp)
    1456:	0068                	addi	a0,sp,12
    1458:	72000003          	lb	zero,1824(zero) # 720 <vprintfmt.constprop.0+0x2fa>
    145c:	6565                	lui	a0,0x19
    145e:	746e                	flw	fs0,248(sp)
    1460:	682e                	flw	fa6,200(sp)
    1462:	0200                	addi	s0,sp,256
    1464:	0000                	unimp
    1466:	7265                	lui	tp,0xffff9
    1468:	6e72                	flw	ft8,28(sp)
    146a:	00682e6f          	jal	t3,83470 <__C_STACK_TOP__+0x73470>
    146e:	0002                	c.slli64	zero
    1470:	7300                	flw	fs0,32(a4)
    1472:	6474                	flw	fa3,76(s0)
    1474:	696c                	flw	fa1,84(a0)
    1476:	2e62                	fld	ft8,24(sp)
    1478:	0068                	addi	a0,sp,12
    147a:	0004                	0x4
    147c:	7500                	flw	fs0,40(a0)
    147e:	696e                	flw	fs2,216(sp)
    1480:	2e647473          	csrrci	s0,0x2e6,8
    1484:	0068                	addi	a0,sp,12
    1486:	0002                	c.slli64	zero
    1488:	7400                	flw	fs0,40(s0)
    148a:	6d69                	lui	s10,0x1a
    148c:	2e65                	jal	1844 <strcmp+0x68>
    148e:	0068                	addi	a0,sp,12
    1490:	0004                	0x4
    1492:	6800                	flw	fs0,16(s0)
    1494:	7361                	lui	t1,0xffff8
    1496:	7468                	flw	fa0,108(s0)
    1498:	6261                	lui	tp,0x18
    149a:	682e                	flw	fa6,200(sp)
    149c:	0500                	addi	s0,sp,640
    149e:	0000                	unimp
    14a0:	6972                	flw	fs2,28(sp)
    14a2:	2d766373          	csrrsi	t1,0x2d7,12
    14a6:	7374706f          	j	493dc <__C_STACK_TOP__+0x393dc>
    14aa:	682e                	flw	fa6,200(sp)
    14ac:	0600                	addi	s0,sp,768
    14ae:	0000                	unimp
    14b0:	6e69                	lui	t3,0x1a
    14b2:	632d6e73          	csrrsi	t3,0x632,26
    14b6:	74736e6f          	jal	t3,383fc <__C_STACK_TOP__+0x283fc>
    14ba:	6e61                	lui	t3,0x18
    14bc:	7374                	flw	fa3,100(a4)
    14be:	682e                	flw	fa6,200(sp)
    14c0:	0700                	addi	s0,sp,896
    14c2:	0000                	unimp
    14c4:	696c                	flw	fa1,84(a0)
    14c6:	6762                	flw	fa4,24(sp)
    14c8:	2e326363          	bltu	tp,gp,17ae <__ascii_mbtowc+0x2e>
    14cc:	0068                	addi	a0,sp,12
    14ce:	0001                	nop
    14d0:	0000                	unimp
    14d2:	0105                	addi	sp,sp,1
    14d4:	0500                	addi	s0,sp,640
    14d6:	3402                	fld	fs0,32(sp)
    14d8:	0022                	c.slli	zero,0x8
    14da:	0300                	addi	s0,sp,384
    14dc:	0a9a                	slli	s5,s5,0x6
    14de:	0501                	addi	a0,a0,0
    14e0:	09010303          	lb	t1,144(sp)
    14e4:	0000                	unimp
    14e6:	0301                	addi	t1,t1,0
    14e8:	0902                	c.slli64	s2
    14ea:	0000                	unimp
    14ec:	0301                	addi	t1,t1,0
    14ee:	00097ddb          	0x97ddb
    14f2:	0100                	addi	s0,sp,128
    14f4:	00090103          	lb	sp,0(s2)
    14f8:	0100                	addi	s0,sp,128
    14fa:	00090103          	lb	sp,0(s2)
    14fe:	0100                	addi	s0,sp,128
    1500:	00090103          	lb	sp,0(s2)
    1504:	0100                	addi	s0,sp,128
    1506:	00090103          	lb	sp,0(s2)
    150a:	0100                	addi	s0,sp,128
    150c:	00090103          	lb	sp,0(s2)
    1510:	0100                	addi	s0,sp,128
    1512:	00090203          	lb	tp,0(s2)
    1516:	0100                	addi	s0,sp,128
    1518:	0605                	addi	a2,a2,1
    151a:	0306                	slli	t1,t1,0x1
    151c:	0900                	addi	s0,sp,144
    151e:	0000                	unimp
    1520:	0501                	addi	a0,a0,0
    1522:	01030603          	lb	a2,16(t1) # ffff8010 <__C_STACK_TOP__+0xfffe8010>
    1526:	0409                	addi	s0,s0,2
    1528:	0100                	addi	s0,sp,128
    152a:	0605                	addi	a2,a2,1
    152c:	0306                	slli	t1,t1,0x1
    152e:	0900                	addi	s0,sp,144
    1530:	0000                	unimp
    1532:	0501                	addi	a0,a0,0
    1534:	01030603          	lb	a2,16(t1)
    1538:	0409                	addi	s0,s0,2
    153a:	0100                	addi	s0,sp,128
    153c:	0605                	addi	a2,a2,1
    153e:	0306                	slli	t1,t1,0x1
    1540:	0900                	addi	s0,sp,144
    1542:	0000                	unimp
    1544:	0501                	addi	a0,a0,0
    1546:	01030603          	lb	a2,16(t1)
    154a:	0409                	addi	s0,s0,2
    154c:	0100                	addi	s0,sp,128
    154e:	0605                	addi	a2,a2,1
    1550:	0306                	slli	t1,t1,0x1
    1552:	0900                	addi	s0,sp,144
    1554:	0000                	unimp
    1556:	0501                	addi	a0,a0,0
    1558:	25030603          	lb	a2,592(t1)
    155c:	0409                	addi	s0,s0,2
    155e:	0100                	addi	s0,sp,128
    1560:	0605                	addi	a2,a2,1
    1562:	0306                	slli	t1,t1,0x1
    1564:	0900                	addi	s0,sp,144
    1566:	0000                	unimp
    1568:	0501                	addi	a0,a0,0
    156a:	02030607          	0x2030607
    156e:	0409                	addi	s0,s0,2
    1570:	0100                	addi	s0,sp,128
    1572:	0a05                	addi	s4,s4,1
    1574:	0306                	slli	t1,t1,0x1
    1576:	0900                	addi	s0,sp,144
    1578:	0008                	0x8
    157a:	0501                	addi	a0,a0,0
    157c:	0604                	addi	s1,sp,768
    157e:	04090403          	lb	s0,64(s2)
    1582:	0100                	addi	s0,sp,128
    1584:	00090003          	lb	zero,0(s2)
    1588:	0100                	addi	s0,sp,128
    158a:	00090003          	lb	zero,0(s2)
    158e:	0100                	addi	s0,sp,128
    1590:	00090003          	lb	zero,0(s2)
    1594:	0100                	addi	s0,sp,128
    1596:	00090003          	lb	zero,0(s2)
    159a:	0100                	addi	s0,sp,128
    159c:	14090003          	lb	zero,320(s2)
    15a0:	0100                	addi	s0,sp,128
    15a2:	18090203          	lb	tp,384(s2)
    15a6:	0100                	addi	s0,sp,128
    15a8:	0705                	addi	a4,a4,1
    15aa:	0306                	slli	t1,t1,0x1
    15ac:	0900                	addi	s0,sp,144
    15ae:	0000                	unimp
    15b0:	0501                	addi	a0,a0,0
    15b2:	0608                	addi	a0,sp,768
    15b4:	04090503          	lb	a0,64(s2)
    15b8:	0100                	addi	s0,sp,128
    15ba:	1105                	addi	sp,sp,-31
    15bc:	0306                	slli	t1,t1,0x1
    15be:	0901                	addi	s2,s2,0
    15c0:	0000                	unimp
    15c2:	0501                	addi	a0,a0,0
    15c4:	031e                	slli	t1,t1,0x7
    15c6:	0900                	addi	s0,sp,144
    15c8:	0004                	0x4
    15ca:	0501                	addi	a0,a0,0
    15cc:	097f030b          	0x97f030b
    15d0:	0004                	0x4
    15d2:	0501                	addi	a0,a0,0
    15d4:	0608                	addi	a0,sp,768
    15d6:	04090103          	lb	sp,64(s2)
    15da:	0100                	addi	s0,sp,128
    15dc:	0b05                	addi	s6,s6,1
    15de:	0306                	slli	t1,t1,0x1
    15e0:	0900                	addi	s0,sp,144
    15e2:	0000                	unimp
    15e4:	0501                	addi	a0,a0,0
    15e6:	0608                	addi	a0,sp,768
    15e8:	04090103          	lb	sp,64(s2)
    15ec:	0100                	addi	s0,sp,128
    15ee:	0b05                	addi	s6,s6,1
    15f0:	0306                	slli	t1,t1,0x1
    15f2:	0900                	addi	s0,sp,144
    15f4:	0000                	unimp
    15f6:	0501                	addi	a0,a0,0
    15f8:	0604                	addi	s1,sp,768
    15fa:	04090303          	lb	t1,64(s2)
    15fe:	0100                	addi	s0,sp,128
    1600:	00090003          	lb	zero,0(s2)
    1604:	0100                	addi	s0,sp,128
    1606:	00090003          	lb	zero,0(s2)
    160a:	0100                	addi	s0,sp,128
    160c:	00090003          	lb	zero,0(s2)
    1610:	0100                	addi	s0,sp,128
    1612:	04090003          	lb	zero,64(s2)
    1616:	0100                	addi	s0,sp,128
    1618:	0c090003          	lb	zero,192(s2)
    161c:	0100                	addi	s0,sp,128
    161e:	00090003          	lb	zero,0(s2)
    1622:	0100                	addi	s0,sp,128
    1624:	08090003          	lb	zero,128(s2)
    1628:	0100                	addi	s0,sp,128
    162a:	0c090003          	lb	zero,192(s2)
    162e:	0100                	addi	s0,sp,128
    1630:	00090003          	lb	zero,0(s2)
    1634:	0100                	addi	s0,sp,128
    1636:	04090003          	lb	zero,64(s2)
    163a:	0100                	addi	s0,sp,128
    163c:	04090003          	lb	zero,64(s2)
    1640:	0100                	addi	s0,sp,128
    1642:	04090003          	lb	zero,64(s2)
    1646:	0100                	addi	s0,sp,128
    1648:	04090003          	lb	zero,64(s2)
    164c:	0100                	addi	s0,sp,128
    164e:	04090003          	lb	zero,64(s2)
    1652:	0100                	addi	s0,sp,128
    1654:	04090003          	lb	zero,64(s2)
    1658:	0100                	addi	s0,sp,128
    165a:	04090003          	lb	zero,64(s2)
    165e:	0100                	addi	s0,sp,128
    1660:	0c090003          	lb	zero,192(s2)
    1664:	0100                	addi	s0,sp,128
    1666:	04090003          	lb	zero,64(s2)
    166a:	0100                	addi	s0,sp,128
    166c:	08090003          	lb	zero,128(s2)
    1670:	0100                	addi	s0,sp,128
    1672:	04090003          	lb	zero,64(s2)
    1676:	0100                	addi	s0,sp,128
    1678:	04090003          	lb	zero,64(s2)
    167c:	0100                	addi	s0,sp,128
    167e:	04090003          	lb	zero,64(s2)
    1682:	0100                	addi	s0,sp,128
    1684:	04090003          	lb	zero,64(s2)
    1688:	0100                	addi	s0,sp,128
    168a:	04090003          	lb	zero,64(s2)
    168e:	0100                	addi	s0,sp,128
    1690:	04090003          	lb	zero,64(s2)
    1694:	0100                	addi	s0,sp,128
    1696:	00090003          	lb	zero,0(s2)
    169a:	0100                	addi	s0,sp,128
    169c:	00090103          	lb	sp,0(s2)
    16a0:	0100                	addi	s0,sp,128
    16a2:	0705                	addi	a4,a4,1
    16a4:	00092e03          	lw	t3,0(s2)
    16a8:	0100                	addi	s0,sp,128
    16aa:	0405                	addi	s0,s0,1
    16ac:	00090203          	lb	tp,0(s2)
    16b0:	0100                	addi	s0,sp,128
    16b2:	1205                	addi	tp,tp,-31
    16b4:	0306                	slli	t1,t1,0x1
    16b6:	0900                	addi	s0,sp,144
    16b8:	0000                	unimp
    16ba:	0501                	addi	a0,a0,0
    16bc:	0604                	addi	s1,sp,768
    16be:	04090103          	lb	sp,64(s2)
    16c2:	0100                	addi	s0,sp,128
    16c4:	00090103          	lb	sp,0(s2)
    16c8:	0100                	addi	s0,sp,128
    16ca:	0c05                	addi	s8,s8,1
    16cc:	0306                	slli	t1,t1,0x1
    16ce:	0900                	addi	s0,sp,144
    16d0:	0000                	unimp
    16d2:	0501                	addi	a0,a0,0
    16d4:	0301                	addi	t1,t1,0
    16d6:	01b4                	addi	a3,sp,200
    16d8:	0409                	addi	s0,s0,2
    16da:	0100                	addi	s0,sp,128
    16dc:	0405                	addi	s0,s0,1
    16de:	097e8d03          	lb	s10,151(t4)
    16e2:	0004                	0x4
    16e4:	0601                	addi	a2,a2,0
    16e6:	14091503          	lh	a0,320(s2)
    16ea:	0100                	addi	s0,sp,128
    16ec:	0705                	addi	a4,a4,1
    16ee:	0306                	slli	t1,t1,0x1
    16f0:	0900                	addi	s0,sp,144
    16f2:	0000                	unimp
    16f4:	0501                	addi	a0,a0,0
    16f6:	0606                	slli	a2,a2,0x1
    16f8:	04090103          	lb	sp,64(s2)
    16fc:	0100                	addi	s0,sp,128
    16fe:	0905                	addi	s2,s2,1
    1700:	0306                	slli	t1,t1,0x1
    1702:	0900                	addi	s0,sp,144
    1704:	0000                	unimp
    1706:	0501                	addi	a0,a0,0
    1708:	0604                	addi	s1,sp,768
    170a:	08090203          	lb	tp,128(s2)
    170e:	0100                	addi	s0,sp,128
    1710:	00090003          	lb	zero,0(s2)
    1714:	0100                	addi	s0,sp,128
    1716:	00090003          	lb	zero,0(s2)
    171a:	0100                	addi	s0,sp,128
    171c:	00090003          	lb	zero,0(s2)
    1720:	0100                	addi	s0,sp,128
    1722:	00090003          	lb	zero,0(s2)
    1726:	0100                	addi	s0,sp,128
    1728:	14090003          	lb	zero,320(s2)
    172c:	0100                	addi	s0,sp,128
    172e:	18090203          	lb	tp,384(s2)
    1732:	0100                	addi	s0,sp,128
    1734:	0705                	addi	a4,a4,1
    1736:	0306                	slli	t1,t1,0x1
    1738:	0900                	addi	s0,sp,144
    173a:	0000                	unimp
    173c:	0501                	addi	a0,a0,0
    173e:	0608                	addi	a0,sp,768
    1740:	04090903          	lb	s2,64(s2)
    1744:	0100                	addi	s0,sp,128
    1746:	0b05                	addi	s6,s6,1
    1748:	0306                	slli	t1,t1,0x1
    174a:	0900                	addi	s0,sp,144
    174c:	0000                	unimp
    174e:	0501                	addi	a0,a0,0
    1750:	0608                	addi	a0,sp,768
    1752:	04090103          	lb	sp,64(s2)
    1756:	0100                	addi	s0,sp,128
    1758:	0405                	addi	s0,s0,1
    175a:	00091203          	lh	tp,0(s2)
    175e:	0100                	addi	s0,sp,128
    1760:	00090003          	lb	zero,0(s2)
    1764:	0100                	addi	s0,sp,128
    1766:	00090003          	lb	zero,0(s2)
    176a:	0100                	addi	s0,sp,128
    176c:	00090003          	lb	zero,0(s2)
    1770:	0100                	addi	s0,sp,128
    1772:	04090003          	lb	zero,64(s2)
    1776:	0100                	addi	s0,sp,128
    1778:	08090003          	lb	zero,128(s2)
    177c:	0100                	addi	s0,sp,128
    177e:	08090003          	lb	zero,128(s2)
    1782:	0100                	addi	s0,sp,128
    1784:	04090003          	lb	zero,64(s2)
    1788:	0100                	addi	s0,sp,128
    178a:	0c090003          	lb	zero,192(s2)
    178e:	0100                	addi	s0,sp,128
    1790:	00090003          	lb	zero,0(s2)
    1794:	0100                	addi	s0,sp,128
    1796:	04090003          	lb	zero,64(s2)
    179a:	0100                	addi	s0,sp,128
    179c:	04090003          	lb	zero,64(s2)
    17a0:	0100                	addi	s0,sp,128
    17a2:	04090003          	lb	zero,64(s2)
    17a6:	0100                	addi	s0,sp,128
    17a8:	04090003          	lb	zero,64(s2)
    17ac:	0100                	addi	s0,sp,128
    17ae:	04090003          	lb	zero,64(s2)
    17b2:	0100                	addi	s0,sp,128
    17b4:	04090003          	lb	zero,64(s2)
    17b8:	0100                	addi	s0,sp,128
    17ba:	04090003          	lb	zero,64(s2)
    17be:	0100                	addi	s0,sp,128
    17c0:	0c090003          	lb	zero,192(s2)
    17c4:	0100                	addi	s0,sp,128
    17c6:	04090003          	lb	zero,64(s2)
    17ca:	0100                	addi	s0,sp,128
    17cc:	08090003          	lb	zero,128(s2)
    17d0:	0100                	addi	s0,sp,128
    17d2:	04090003          	lb	zero,64(s2)
    17d6:	0100                	addi	s0,sp,128
    17d8:	04090003          	lb	zero,64(s2)
    17dc:	0100                	addi	s0,sp,128
    17de:	04090003          	lb	zero,64(s2)
    17e2:	0100                	addi	s0,sp,128
    17e4:	04090003          	lb	zero,64(s2)
    17e8:	0100                	addi	s0,sp,128
    17ea:	04090003          	lb	zero,64(s2)
    17ee:	0100                	addi	s0,sp,128
    17f0:	04090003          	lb	zero,64(s2)
    17f4:	0100                	addi	s0,sp,128
    17f6:	00090003          	lb	zero,0(s2)
    17fa:	0100                	addi	s0,sp,128
    17fc:	0306                	slli	t1,t1,0x1
    17fe:	0962                	slli	s2,s2,0x18
    1800:	0004                	0x4
    1802:	0501                	addi	a0,a0,0
    1804:	0608                	addi	a0,sp,768
    1806:	14091203          	lh	tp,320(s2)
    180a:	0100                	addi	s0,sp,128
    180c:	00090203          	lb	tp,0(s2)
    1810:	0100                	addi	s0,sp,128
    1812:	0b05                	addi	s6,s6,1
    1814:	0306                	slli	t1,t1,0x1
    1816:	0900                	addi	s0,sp,144
    1818:	0000                	unimp
    181a:	0501                	addi	a0,a0,0
    181c:	0608                	addi	a0,sp,768
    181e:	04090103          	lb	sp,64(s2)
    1822:	0100                	addi	s0,sp,128
    1824:	0b05                	addi	s6,s6,1
    1826:	0306                	slli	t1,t1,0x1
    1828:	0900                	addi	s0,sp,144
    182a:	0000                	unimp
    182c:	0501                	addi	a0,a0,0
    182e:	0608                	addi	a0,sp,768
    1830:	04090103          	lb	sp,64(s2)
    1834:	0100                	addi	s0,sp,128
    1836:	0b05                	addi	s6,s6,1
    1838:	0306                	slli	t1,t1,0x1
    183a:	0901                	addi	s2,s2,0
    183c:	0000                	unimp
    183e:	0501                	addi	a0,a0,0
    1840:	031e                	slli	t1,t1,0x7
    1842:	097f                	0x97f
    1844:	0004                	0x4
    1846:	0501                	addi	a0,a0,0
    1848:	0308                	addi	a0,sp,384
    184a:	00040903          	lb	s2,0(s0) # fffeb000 <__C_STACK_TOP__+0xfffdb000>
    184e:	0501                	addi	a0,a0,0
    1850:	0311                	addi	t1,t1,4
    1852:	097d                	addi	s2,s2,31
    1854:	0008                	0x8
    1856:	0501                	addi	a0,a0,0
    1858:	0900030b          	0x900030b
    185c:	0004                	0x4
    185e:	0501                	addi	a0,a0,0
    1860:	0608                	addi	a0,sp,768
    1862:	04090103          	lb	sp,64(s2)
    1866:	0100                	addi	s0,sp,128
    1868:	00090203          	lb	tp,0(s2)
    186c:	0100                	addi	s0,sp,128
    186e:	00090003          	lb	zero,0(s2)
    1872:	0100                	addi	s0,sp,128
    1874:	00090003          	lb	zero,0(s2)
    1878:	0100                	addi	s0,sp,128
    187a:	00090003          	lb	zero,0(s2)
    187e:	0100                	addi	s0,sp,128
    1880:	00090003          	lb	zero,0(s2)
    1884:	0100                	addi	s0,sp,128
    1886:	08090003          	lb	zero,128(s2)
    188a:	0100                	addi	s0,sp,128
    188c:	00090003          	lb	zero,0(s2)
    1890:	0100                	addi	s0,sp,128
    1892:	08090003          	lb	zero,128(s2)
    1896:	0100                	addi	s0,sp,128
    1898:	0c090003          	lb	zero,192(s2)
    189c:	0100                	addi	s0,sp,128
    189e:	00090003          	lb	zero,0(s2)
    18a2:	0100                	addi	s0,sp,128
    18a4:	04090003          	lb	zero,64(s2)
    18a8:	0100                	addi	s0,sp,128
    18aa:	04090003          	lb	zero,64(s2)
    18ae:	0100                	addi	s0,sp,128
    18b0:	04090003          	lb	zero,64(s2)
    18b4:	0100                	addi	s0,sp,128
    18b6:	04090003          	lb	zero,64(s2)
    18ba:	0100                	addi	s0,sp,128
    18bc:	04090003          	lb	zero,64(s2)
    18c0:	0100                	addi	s0,sp,128
    18c2:	04090003          	lb	zero,64(s2)
    18c6:	0100                	addi	s0,sp,128
    18c8:	04090003          	lb	zero,64(s2)
    18cc:	0100                	addi	s0,sp,128
    18ce:	0c090003          	lb	zero,192(s2)
    18d2:	0100                	addi	s0,sp,128
    18d4:	08090003          	lb	zero,128(s2)
    18d8:	0100                	addi	s0,sp,128
    18da:	04090003          	lb	zero,64(s2)
    18de:	0100                	addi	s0,sp,128
    18e0:	04090003          	lb	zero,64(s2)
    18e4:	0100                	addi	s0,sp,128
    18e6:	04090003          	lb	zero,64(s2)
    18ea:	0100                	addi	s0,sp,128
    18ec:	04090003          	lb	zero,64(s2)
    18f0:	0100                	addi	s0,sp,128
    18f2:	04090003          	lb	zero,64(s2)
    18f6:	0100                	addi	s0,sp,128
    18f8:	04090003          	lb	zero,64(s2)
    18fc:	0100                	addi	s0,sp,128
    18fe:	04090003          	lb	zero,64(s2)
    1902:	0100                	addi	s0,sp,128
    1904:	00090003          	lb	zero,0(s2)
    1908:	0100                	addi	s0,sp,128
    190a:	0705                	addi	a4,a4,1
    190c:	04091503          	lh	a0,64(s2)
    1910:	0100                	addi	s0,sp,128
    1912:	0a05                	addi	s4,s4,1
    1914:	0306                	slli	t1,t1,0x1
    1916:	0900                	addi	s0,sp,144
    1918:	0000                	unimp
    191a:	0501                	addi	a0,a0,0
    191c:	0604                	addi	s1,sp,768
    191e:	04091303          	lh	t1,64(s2)
    1922:	0100                	addi	s0,sp,128
    1924:	00090003          	lb	zero,0(s2)
    1928:	0100                	addi	s0,sp,128
    192a:	00090003          	lb	zero,0(s2)
    192e:	0100                	addi	s0,sp,128
    1930:	00090003          	lb	zero,0(s2)
    1934:	0100                	addi	s0,sp,128
    1936:	00090003          	lb	zero,0(s2)
    193a:	0100                	addi	s0,sp,128
    193c:	14090003          	lb	zero,320(s2)
    1940:	0100                	addi	s0,sp,128
    1942:	20090103          	lb	sp,512(s2)
    1946:	0100                	addi	s0,sp,128
    1948:	0705                	addi	a4,a4,1
    194a:	0306                	slli	t1,t1,0x1
    194c:	0900                	addi	s0,sp,144
    194e:	0000                	unimp
    1950:	0501                	addi	a0,a0,0
    1952:	0608                	addi	a0,sp,768
    1954:	04090a03          	lb	s4,64(s2)
    1958:	0100                	addi	s0,sp,128
    195a:	0b05                	addi	s6,s6,1
    195c:	0306                	slli	t1,t1,0x1
    195e:	0900                	addi	s0,sp,144
    1960:	0000                	unimp
    1962:	0501                	addi	a0,a0,0
    1964:	0314                	addi	a3,sp,384
    1966:	0900                	addi	s0,sp,144
    1968:	0004                	0x4
    196a:	0501                	addi	a0,a0,0
    196c:	0605                	addi	a2,a2,1
    196e:	04090203          	lb	tp,64(s2)
    1972:	0100                	addi	s0,sp,128
    1974:	00090103          	lb	sp,0(s2)
    1978:	0100                	addi	s0,sp,128
    197a:	00090003          	lb	zero,0(s2)
    197e:	0100                	addi	s0,sp,128
    1980:	00090003          	lb	zero,0(s2)
    1984:	0100                	addi	s0,sp,128
    1986:	04090003          	lb	zero,64(s2)
    198a:	0100                	addi	s0,sp,128
    198c:	0c090003          	lb	zero,192(s2)
    1990:	0100                	addi	s0,sp,128
    1992:	0805                	addi	a6,a6,1
    1994:	00090503          	lb	a0,0(s2)
    1998:	0100                	addi	s0,sp,128
    199a:	00090203          	lb	tp,0(s2)
    199e:	0100                	addi	s0,sp,128
    19a0:	0505                	addi	a0,a0,1
    19a2:	00090203          	lb	tp,0(s2)
    19a6:	0100                	addi	s0,sp,128
    19a8:	00090103          	lb	sp,0(s2)
    19ac:	0100                	addi	s0,sp,128
    19ae:	00090103          	lb	sp,0(s2)
    19b2:	0100                	addi	s0,sp,128
    19b4:	0d05                	addi	s10,s10,1
    19b6:	0306                	slli	t1,t1,0x1
    19b8:	0900                	addi	s0,sp,144
    19ba:	0000                	unimp
    19bc:	0501                	addi	a0,a0,0
    19be:	0304                	addi	s1,sp,384
    19c0:	000c0967          	jalr	s2,s8 # 19000 <__C_STACK_TOP__+0x9000>
    19c4:	0501                	addi	a0,a0,0
    19c6:	0608                	addi	a0,sp,768
    19c8:	14091e03          	lh	t3,320(s2)
    19cc:	0100                	addi	s0,sp,128
    19ce:	00090303          	lb	t1,0(s2)
    19d2:	0100                	addi	s0,sp,128
    19d4:	00090203          	lb	tp,0(s2)
    19d8:	0100                	addi	s0,sp,128
    19da:	1e05                	addi	t3,t3,-31
    19dc:	0306                	slli	t1,t1,0x1
    19de:	0900                	addi	s0,sp,144
    19e0:	0000                	unimp
    19e2:	0501                	addi	a0,a0,0
    19e4:	0311                	addi	t1,t1,4
    19e6:	0900                	addi	s0,sp,144
    19e8:	0004                	0x4
    19ea:	0501                	addi	a0,a0,0
    19ec:	0900030b          	0x900030b
    19f0:	0004                	0x4
    19f2:	0501                	addi	a0,a0,0
    19f4:	0608                	addi	a0,sp,768
    19f6:	04090103          	lb	sp,64(s2)
    19fa:	0100                	addi	s0,sp,128
    19fc:	0306                	slli	t1,t1,0x1
    19fe:	0905                	addi	s2,s2,1
    1a00:	0000                	unimp
    1a02:	0501                	addi	a0,a0,0
    1a04:	097c030b          	0x97c030b
    1a08:	0004                	0x4
    1a0a:	0501                	addi	a0,a0,0
    1a0c:	0308                	addi	a0,sp,384
    1a0e:	0904                	addi	s1,sp,144
    1a10:	0004                	0x4
    1a12:	0501                	addi	a0,a0,0
    1a14:	0311                	addi	t1,t1,4
    1a16:	097d                	addi	s2,s2,31
    1a18:	0004                	0x4
    1a1a:	0501                	addi	a0,a0,0
    1a1c:	031e                	slli	t1,t1,0x7
    1a1e:	0900                	addi	s0,sp,144
    1a20:	0004                	0x4
    1a22:	0501                	addi	a0,a0,0
    1a24:	0900030b          	0x900030b
    1a28:	0004                	0x4
    1a2a:	0501                	addi	a0,a0,0
    1a2c:	0308                	addi	a0,sp,384
    1a2e:	00040903          	lb	s2,0(s0)
    1a32:	0501                	addi	a0,a0,0
    1a34:	097b030b          	0x97b030b
    1a38:	000c                	0xc
    1a3a:	0501                	addi	a0,a0,0
    1a3c:	0608                	addi	a0,sp,768
    1a3e:	04090103          	lb	sp,64(s2)
    1a42:	0100                	addi	s0,sp,128
    1a44:	00090103          	lb	sp,0(s2)
    1a48:	0100                	addi	s0,sp,128
    1a4a:	00090103          	lb	sp,0(s2)
    1a4e:	0100                	addi	s0,sp,128
    1a50:	0b05                	addi	s6,s6,1
    1a52:	0306                	slli	t1,t1,0x1
    1a54:	0900                	addi	s0,sp,144
    1a56:	0000                	unimp
    1a58:	0501                	addi	a0,a0,0
    1a5a:	0608                	addi	a0,sp,768
    1a5c:	04090203          	lb	tp,64(s2)
    1a60:	0100                	addi	s0,sp,128
    1a62:	00090003          	lb	zero,0(s2)
    1a66:	0100                	addi	s0,sp,128
    1a68:	00090003          	lb	zero,0(s2)
    1a6c:	0100                	addi	s0,sp,128
    1a6e:	00090003          	lb	zero,0(s2)
    1a72:	0100                	addi	s0,sp,128
    1a74:	00090003          	lb	zero,0(s2)
    1a78:	0100                	addi	s0,sp,128
    1a7a:	00090003          	lb	zero,0(s2)
    1a7e:	0100                	addi	s0,sp,128
    1a80:	00090003          	lb	zero,0(s2)
    1a84:	0100                	addi	s0,sp,128
    1a86:	04090003          	lb	zero,64(s2)
    1a8a:	0100                	addi	s0,sp,128
    1a8c:	0c090003          	lb	zero,192(s2)
    1a90:	0100                	addi	s0,sp,128
    1a92:	00090003          	lb	zero,0(s2)
    1a96:	0100                	addi	s0,sp,128
    1a98:	08090003          	lb	zero,128(s2)
    1a9c:	0100                	addi	s0,sp,128
    1a9e:	08090003          	lb	zero,128(s2)
    1aa2:	0100                	addi	s0,sp,128
    1aa4:	04090003          	lb	zero,64(s2)
    1aa8:	0100                	addi	s0,sp,128
    1aaa:	04090003          	lb	zero,64(s2)
    1aae:	0100                	addi	s0,sp,128
    1ab0:	08090003          	lb	zero,128(s2)
    1ab4:	0100                	addi	s0,sp,128
    1ab6:	04090003          	lb	zero,64(s2)
    1aba:	0100                	addi	s0,sp,128
    1abc:	04090003          	lb	zero,64(s2)
    1ac0:	0100                	addi	s0,sp,128
    1ac2:	04090003          	lb	zero,64(s2)
    1ac6:	0100                	addi	s0,sp,128
    1ac8:	08090003          	lb	zero,128(s2)
    1acc:	0100                	addi	s0,sp,128
    1ace:	0c090003          	lb	zero,192(s2)
    1ad2:	0100                	addi	s0,sp,128
    1ad4:	08090003          	lb	zero,128(s2)
    1ad8:	0100                	addi	s0,sp,128
    1ada:	08090003          	lb	zero,128(s2)
    1ade:	0100                	addi	s0,sp,128
    1ae0:	04090003          	lb	zero,64(s2)
    1ae4:	0100                	addi	s0,sp,128
    1ae6:	04090003          	lb	zero,64(s2)
    1aea:	0100                	addi	s0,sp,128
    1aec:	08090003          	lb	zero,128(s2)
    1af0:	0100                	addi	s0,sp,128
    1af2:	0306                	slli	t1,t1,0x1
    1af4:	0901                	addi	s2,s2,0
    1af6:	0004                	0x4
    1af8:	0301                	addi	t1,t1,0
    1afa:	097f                	0x97f
    1afc:	0004                	0x4
    1afe:	0301                	addi	t1,t1,0
    1b00:	0901                	addi	s2,s2,0
    1b02:	0004                	0x4
    1b04:	0301                	addi	t1,t1,0
    1b06:	097f                	0x97f
    1b08:	0008                	0x8
    1b0a:	0601                	addi	a2,a2,0
    1b0c:	04090003          	lb	zero,64(s2)
    1b10:	0100                	addi	s0,sp,128
    1b12:	00090003          	lb	zero,0(s2)
    1b16:	0100                	addi	s0,sp,128
    1b18:	00090103          	lb	sp,0(s2)
    1b1c:	0100                	addi	s0,sp,128
    1b1e:	00090003          	lb	zero,0(s2)
    1b22:	0100                	addi	s0,sp,128
    1b24:	00090003          	lb	zero,0(s2)
    1b28:	0100                	addi	s0,sp,128
    1b2a:	00090003          	lb	zero,0(s2)
    1b2e:	0100                	addi	s0,sp,128
    1b30:	00090003          	lb	zero,0(s2)
    1b34:	0100                	addi	s0,sp,128
    1b36:	04090003          	lb	zero,64(s2)
    1b3a:	0100                	addi	s0,sp,128
    1b3c:	08090003          	lb	zero,128(s2)
    1b40:	0100                	addi	s0,sp,128
    1b42:	00090003          	lb	zero,0(s2)
    1b46:	0100                	addi	s0,sp,128
    1b48:	04090003          	lb	zero,64(s2)
    1b4c:	0100                	addi	s0,sp,128
    1b4e:	00090003          	lb	zero,0(s2)
    1b52:	0100                	addi	s0,sp,128
    1b54:	04090003          	lb	zero,64(s2)
    1b58:	0100                	addi	s0,sp,128
    1b5a:	08090003          	lb	zero,128(s2)
    1b5e:	0100                	addi	s0,sp,128
    1b60:	04090003          	lb	zero,64(s2)
    1b64:	0100                	addi	s0,sp,128
    1b66:	08090003          	lb	zero,128(s2)
    1b6a:	0100                	addi	s0,sp,128
    1b6c:	04090003          	lb	zero,64(s2)
    1b70:	0100                	addi	s0,sp,128
    1b72:	04090003          	lb	zero,64(s2)
    1b76:	0100                	addi	s0,sp,128
    1b78:	08090003          	lb	zero,128(s2)
    1b7c:	0100                	addi	s0,sp,128
    1b7e:	18090203          	lb	tp,384(s2)
    1b82:	0100                	addi	s0,sp,128
    1b84:	0b05                	addi	s6,s6,1
    1b86:	0306                	slli	t1,t1,0x1
    1b88:	0900                	addi	s0,sp,144
    1b8a:	0000                	unimp
    1b8c:	0501                	addi	a0,a0,0
    1b8e:	0314                	addi	a3,sp,384
    1b90:	0900                	addi	s0,sp,144
    1b92:	0004                	0x4
    1b94:	0501                	addi	a0,a0,0
    1b96:	0321                	addi	t1,t1,8
    1b98:	0900                	addi	s0,sp,144
    1b9a:	0004                	0x4
    1b9c:	0501                	addi	a0,a0,0
    1b9e:	0605                	addi	a2,a2,1
    1ba0:	04090203          	lb	tp,64(s2)
    1ba4:	0100                	addi	s0,sp,128
    1ba6:	00090103          	lb	sp,0(s2)
    1baa:	0100                	addi	s0,sp,128
    1bac:	00090003          	lb	zero,0(s2)
    1bb0:	0100                	addi	s0,sp,128
    1bb2:	00090003          	lb	zero,0(s2)
    1bb6:	0100                	addi	s0,sp,128
    1bb8:	04090003          	lb	zero,64(s2)
    1bbc:	0100                	addi	s0,sp,128
    1bbe:	0c090003          	lb	zero,192(s2)
    1bc2:	0100                	addi	s0,sp,128
    1bc4:	0805                	addi	a6,a6,1
    1bc6:	04090303          	lb	t1,64(s2)
    1bca:	0100                	addi	s0,sp,128
    1bcc:	00090303          	lb	t1,0(s2)
    1bd0:	0100                	addi	s0,sp,128
    1bd2:	0505                	addi	a0,a0,1
    1bd4:	00090203          	lb	tp,0(s2)
    1bd8:	0100                	addi	s0,sp,128
    1bda:	00090003          	lb	zero,0(s2)
    1bde:	0100                	addi	s0,sp,128
    1be0:	00090003          	lb	zero,0(s2)
    1be4:	0100                	addi	s0,sp,128
    1be6:	04090003          	lb	zero,64(s2)
    1bea:	0100                	addi	s0,sp,128
    1bec:	0c090003          	lb	zero,192(s2)
    1bf0:	0100                	addi	s0,sp,128
    1bf2:	00090103          	lb	sp,0(s2)
    1bf6:	0100                	addi	s0,sp,128
    1bf8:	1405                	addi	s0,s0,-31
    1bfa:	0306                	slli	t1,t1,0x1
    1bfc:	0900                	addi	s0,sp,144
    1bfe:	0000                	unimp
    1c00:	0501                	addi	a0,a0,0
    1c02:	0320                	addi	s0,sp,392
    1c04:	0900                	addi	s0,sp,144
    1c06:	0004                	0x4
    1c08:	0501                	addi	a0,a0,0
    1c0a:	0605                	addi	a2,a2,1
    1c0c:	04090103          	lb	sp,64(s2)
    1c10:	0100                	addi	s0,sp,128
    1c12:	00090103          	lb	sp,0(s2)
    1c16:	0100                	addi	s0,sp,128
    1c18:	0d05                	addi	s10,s10,1
    1c1a:	0306                	slli	t1,t1,0x1
    1c1c:	0900                	addi	s0,sp,144
    1c1e:	0000                	unimp
    1c20:	0501                	addi	a0,a0,0
    1c22:	06030603          	lb	a2,96(t1)
    1c26:	0809                	addi	a6,a6,2
    1c28:	0100                	addi	s0,sp,128
    1c2a:	00090103          	lb	sp,0(s2)
    1c2e:	0100                	addi	s0,sp,128
    1c30:	0900d803          	lhu	a6,144(ra)
    1c34:	0000                	unimp
    1c36:	0501                	addi	a0,a0,0
    1c38:	060a                	slli	a2,a2,0x2
    1c3a:	00090003          	lb	zero,0(s2)
    1c3e:	0100                	addi	s0,sp,128
    1c40:	0409                	addi	s0,s0,2
    1c42:	0000                	unimp
    1c44:	0101                	addi	sp,sp,0
    1c46:	0209                	addi	tp,tp,2
    1c48:	0000                	unimp
    1c4a:	02030003          	lb	zero,32(t1)
    1c4e:	0000                	unimp
    1c50:	0101                	addi	sp,sp,0
    1c52:	000d0efb          	0xd0efb
    1c56:	0101                	addi	sp,sp,0
    1c58:	0101                	addi	sp,sp,0
    1c5a:	0000                	unimp
    1c5c:	0100                	addi	s0,sp,128
    1c5e:	0000                	unimp
    1c60:	2f01                	jal	2370 <__umoddi3+0x13c>
    1c62:	6f68                	flw	fa0,92(a4)
    1c64:	656d                	lui	a0,0x1b
    1c66:	78696c2f          	0x78696c2f
    1c6a:	2f62                	fld	ft10,24(sp)
    1c6c:	6f74                	flw	fa3,92(a4)
    1c6e:	2f736c6f          	jal	s8,38764 <__C_STACK_TOP__+0x28764>
    1c72:	4952                	lw	s2,20(sp)
    1c74:	2f564353          	0x2f564353
    1c78:	6972                	flw	fs2,28(sp)
    1c7a:	36766373          	csrrsi	t1,0x367,12
    1c7e:	2d34                	fld	fa3,88(a0)
    1c80:	6e75                	lui	t3,0x1d
    1c82:	776f6e6b          	0x776f6e6b
    1c86:	2d6e                	fld	fs10,216(sp)
    1c88:	6c65                	lui	s8,0x19
    1c8a:	2f66                	fld	ft10,88(sp)
    1c8c:	6e69                	lui	t3,0x1a
    1c8e:	64756c63          	bltu	a0,t2,22e6 <__umoddi3+0xb2>
    1c92:	2f65                	jal	244a <__umoddi3+0x216>
    1c94:	00737973          	csrrci	s2,0x7,6
    1c98:	6d6f682f          	0x6d6f682f
    1c9c:	2f65                	jal	2454 <__umoddi3+0x220>
    1c9e:	696c                	flw	fa1,84(a0)
    1ca0:	6278                	flw	fa4,68(a2)
    1ca2:	7469672f          	0x7469672f
    1ca6:	7568                	flw	fa0,108(a0)
    1ca8:	2f62                	fld	ft10,24(sp)
    1caa:	6972                	flw	fs2,28(sp)
    1cac:	2d766373          	csrrsi	t1,0x2d7,12
    1cb0:	2d756e67          	0x2d756e67
    1cb4:	6f74                	flw	fa3,92(a4)
    1cb6:	68636c6f          	jal	s8,3833c <__C_STACK_TOP__+0x2833c>
    1cba:	6961                	lui	s2,0x18
    1cbc:	2f6e                	fld	ft10,216(sp)
    1cbe:	7562                	flw	fa0,56(sp)
    1cc0:	6c69                	lui	s8,0x1a
    1cc2:	2d64                	fld	fs1,216(a0)
    1cc4:	2d636367          	0x2d636367
    1cc8:	656e                	flw	fa0,216(sp)
    1cca:	62696c77          	0x62696c77
    1cce:	732d                	lui	t1,0xfffeb
    1cd0:	6174                	flw	fa3,68(a0)
    1cd2:	2f326567          	0x2f326567
    1cd6:	2f636367          	0x2f636367
    1cda:	6e69                	lui	t3,0x1a
    1cdc:	64756c63          	bltu	a0,t2,2334 <__umoddi3+0x100>
    1ce0:	0065                	c.nop	25
    1ce2:	6d6f682f          	0x6d6f682f
    1ce6:	2f65                	jal	249e <__umoddi3+0x26a>
    1ce8:	696c                	flw	fa1,84(a0)
    1cea:	6278                	flw	fa4,68(a2)
    1cec:	6f6f742f          	0x6f6f742f
    1cf0:	736c                	flw	fa1,100(a4)
    1cf2:	5349522f          	0x5349522f
    1cf6:	722f5643          	fmadd.d	fa2,ft10,ft2,fa4,unknown
    1cfa:	7369                	lui	t1,0xffffa
    1cfc:	34367663          	bgeu	a2,gp,2048 <__udivdi3+0x248>
    1d00:	752d                	lui	a0,0xfffeb
    1d02:	6b6e                	flw	fs6,216(sp)
    1d04:	6f6e                	flw	ft10,216(sp)
    1d06:	652d6e77          	0x652d6e77
    1d0a:	666c                	flw	fa1,76(a2)
    1d0c:	636e692f          	0x636e692f
    1d10:	756c                	flw	fa1,108(a0)
    1d12:	6564                	flw	fs1,76(a0)
    1d14:	2e00                	fld	fs0,24(a2)
    1d16:	2f2e                	fld	ft10,200(sp)
    1d18:	2e2e                	fld	ft8,200(sp)
    1d1a:	2f2e2e2f          	0x2f2e2e2f
    1d1e:	2e2e                	fld	ft8,200(sp)
    1d20:	2f2e2e2f          	0x2f2e2e2f
    1d24:	2f2e                	fld	ft10,200(sp)
    1d26:	6972                	flw	fs2,28(sp)
    1d28:	2d766373          	csrrsi	t1,0x2d7,12
    1d2c:	2f636367          	0x2f636367
    1d30:	696c                	flw	fa1,84(a0)
    1d32:	6762                	flw	fa4,24(sp)
    1d34:	2e2f6363          	bltu	t5,sp,201a <__udivdi3+0x21a>
    1d38:	2f2e                	fld	ft10,200(sp)
    1d3a:	6e69                	lui	t3,0x1a
    1d3c:	64756c63          	bltu	a0,t2,2394 <__umoddi3+0x160>
    1d40:	0065                	c.nop	25
    1d42:	2e2e                	fld	ft8,200(sp)
    1d44:	2f2e2e2f          	0x2f2e2e2f
    1d48:	2e2e                	fld	ft8,200(sp)
    1d4a:	2f2e2e2f          	0x2f2e2e2f
    1d4e:	2e2e                	fld	ft8,200(sp)
    1d50:	722f2e2f          	0x722f2e2f
    1d54:	7369                	lui	t1,0xffffa
    1d56:	672d7663          	bgeu	s10,s2,23c2 <__umoddi3+0x18e>
    1d5a:	6c2f6363          	bltu	t5,sp,2420 <__umoddi3+0x1ec>
    1d5e:	6269                	lui	tp,0x1a
    1d60:	2f636367          	0x2f636367
    1d64:	2e2e                	fld	ft8,200(sp)
    1d66:	6363672f          	0x6363672f
    1d6a:	6e6f632f          	0x6e6f632f
    1d6e:	6966                	flw	fs2,88(sp)
    1d70:	69722f67          	0x69722f67
    1d74:	00766373          	csrrsi	t1,0x7,12
    1d78:	2e2e                	fld	ft8,200(sp)
    1d7a:	2f2e2e2f          	0x2f2e2e2f
    1d7e:	2e2e                	fld	ft8,200(sp)
    1d80:	2f2e2e2f          	0x2f2e2e2f
    1d84:	2f2e                	fld	ft10,200(sp)
    1d86:	00636367          	0x636367
    1d8a:	2e2e                	fld	ft8,200(sp)
    1d8c:	2f2e2e2f          	0x2f2e2e2f
    1d90:	2e2e                	fld	ft8,200(sp)
    1d92:	2f2e2e2f          	0x2f2e2e2f
    1d96:	2e2e                	fld	ft8,200(sp)
    1d98:	722f2e2f          	0x722f2e2f
    1d9c:	7369                	lui	t1,0xffffa
    1d9e:	672d7663          	bgeu	s10,s2,240a <__umoddi3+0x1d6>
    1da2:	6c2f6363          	bltu	t5,sp,2468 <__umoddi3+0x234>
    1da6:	6269                	lui	tp,0x1a
    1da8:	00636367          	0x636367
    1dac:	6c00                	flw	fs0,24(s0)
    1dae:	2e6b636f          	jal	t1,b8094 <__C_STACK_TOP__+0xa8094>
    1db2:	0068                	addi	a0,sp,12
    1db4:	0001                	nop
    1db6:	5f00                	lw	s0,56(a4)
    1db8:	7974                	flw	fa3,116(a0)
    1dba:	6570                	flw	fa2,76(a0)
    1dbc:	00682e73          	csrrs	t3,0x6,a6
    1dc0:	0001                	nop
    1dc2:	7300                	flw	fs0,32(a4)
    1dc4:	6474                	flw	fa3,76(s0)
    1dc6:	6564                	flw	fs1,76(a0)
    1dc8:	2e66                	fld	ft8,88(sp)
    1dca:	0068                	addi	a0,sp,12
    1dcc:	0002                	c.slli64	zero
    1dce:	7200                	flw	fs0,32(a2)
    1dd0:	6565                	lui	a0,0x19
    1dd2:	746e                	flw	fs0,248(sp)
    1dd4:	682e                	flw	fa6,200(sp)
    1dd6:	0100                	addi	s0,sp,128
    1dd8:	0000                	unimp
    1dda:	7265                	lui	tp,0xffff9
    1ddc:	6e72                	flw	ft8,28(sp)
    1dde:	00682e6f          	jal	t3,83de4 <__C_STACK_TOP__+0x73de4>
    1de2:	0001                	nop
    1de4:	7300                	flw	fs0,32(a4)
    1de6:	6474                	flw	fa3,76(s0)
    1de8:	696c                	flw	fa1,84(a0)
    1dea:	2e62                	fld	ft8,24(sp)
    1dec:	0068                	addi	a0,sp,12
    1dee:	75000003          	lb	zero,1872(zero) # 750 <vprintfmt.constprop.0+0x32a>
    1df2:	696e                	flw	fs2,216(sp)
    1df4:	2e647473          	csrrci	s0,0x2e6,8
    1df8:	0068                	addi	a0,sp,12
    1dfa:	0001                	nop
    1dfc:	7400                	flw	fs0,40(s0)
    1dfe:	6d69                	lui	s10,0x1a
    1e00:	2e65                	jal	21b8 <__udivdi3+0x3b8>
    1e02:	0068                	addi	a0,sp,12
    1e04:	68000003          	lb	zero,1664(zero) # 680 <vprintfmt.constprop.0+0x25a>
    1e08:	7361                	lui	t1,0xffff8
    1e0a:	7468                	flw	fa0,108(s0)
    1e0c:	6261                	lui	tp,0x18
    1e0e:	682e                	flw	fa6,200(sp)
    1e10:	0400                	addi	s0,sp,512
    1e12:	0000                	unimp
    1e14:	6972                	flw	fs2,28(sp)
    1e16:	2d766373          	csrrsi	t1,0x2d7,12
    1e1a:	7374706f          	j	49d50 <__C_STACK_TOP__+0x39d50>
    1e1e:	682e                	flw	fa6,200(sp)
    1e20:	0500                	addi	s0,sp,640
    1e22:	0000                	unimp
    1e24:	6e69                	lui	t3,0x1a
    1e26:	632d6e73          	csrrsi	t3,0x632,26
    1e2a:	74736e6f          	jal	t3,38d70 <__C_STACK_TOP__+0x28d70>
    1e2e:	6e61                	lui	t3,0x18
    1e30:	7374                	flw	fa3,100(a4)
    1e32:	682e                	flw	fa6,200(sp)
    1e34:	0600                	addi	s0,sp,768
    1e36:	0000                	unimp
    1e38:	696c                	flw	fa1,84(a0)
    1e3a:	6762                	flw	fa4,24(sp)
    1e3c:	2e326363          	bltu	tp,gp,2122 <__udivdi3+0x322>
    1e40:	0068                	addi	a0,sp,12
    1e42:	6c000007          	0x6c000007
    1e46:	6269                	lui	tp,0x1a
    1e48:	32636367          	0x32636367
    1e4c:	632e                	flw	ft6,200(sp)
    1e4e:	0700                	addi	s0,sp,896
    1e50:	0000                	unimp
	...

Disassembly of section .debug_str:

00000000 <.debug_str>:
   0:	726f6873          	csrrsi	a6,0x726,30
   4:	2074                	fld	fa3,192(s0)
   6:	6e69                	lui	t3,0x1a
   8:	0074                	addi	a3,sp,12
   a:	7468                	flw	fa0,108(s0)
   c:	6261                	lui	tp,0x18
   e:	685f 7361 5f68      	0x5f687361685f
  14:	6f70                	flw	fa2,92(a4)
  16:	6e69                	lui	t3,0x1a
  18:	6574                	flw	fa3,76(a0)
  1a:	0072                	c.slli	zero,0x1c
  1c:	725f 6e61 3464      	0x34646e61725f
  22:	0038                	addi	a4,sp,8
  24:	655f 656d 6772      	0x6772656d655f
  2a:	6e65                	lui	t3,0x19
  2c:	5f007963          	bgeu	zero,a6,61e <vprintfmt.constprop.0+0x1f8>
  30:	6164                	flw	fs1,68(a0)
  32:	6c79                	lui	s8,0x1e
  34:	6769                	lui	a4,0x1a
  36:	7468                	flw	fa0,108(s0)
  38:	6300                	flw	fs0,0(a4)
  3a:	6c706d6f          	jal	s10,6f00 <__BSS_END__+0x1100>
  3e:	7865                	lui	a6,0xffff9
  40:	6420                	flw	fs0,72(s0)
  42:	6c62756f          	jal	a0,27708 <__C_STACK_TOP__+0x17708>
  46:	0065                	c.nop	25
  48:	675f 7465 6164      	0x61647465675f
  4e:	6574                	flw	fa3,76(a0)
  50:	655f 7272 5f00      	0x5f007272655f
  56:	6164                	flw	fs1,68(a0)
  58:	6174                	flw	fa3,68(a0)
  5a:	5f00                	lw	s0,56(a4)
  5c:	74726377          	0x74726377
  60:	5f626d6f          	jal	s10,26656 <__C_STACK_TOP__+0x16656>
  64:	74617473          	csrrci	s0,0x746,2
  68:	0065                	c.nop	25
  6a:	775f 7363 7472      	0x74727363775f
  70:	73626d6f          	jal	s10,267a6 <__C_STACK_TOP__+0x167a6>
  74:	735f 6174 6574      	0x65746174735f
  7a:	5f00                	lw	s0,56(a4)
  7c:	645f 0030 5f5f      	0x5f5f0030645f
  82:	3164                	fld	fs1,224(a0)
  84:	5f00                	lw	s0,56(a4)
  86:	626c                	flw	fa1,68(a2)
  88:	7366                	flw	ft6,120(sp)
  8a:	7a69                	lui	s4,0xffffa
  8c:	0065                	c.nop	25
  8e:	6974706f          	j	47f24 <__C_STACK_TOP__+0x37f24>
  92:	646e                	flw	fs0,216(sp)
  94:	6300                	flw	fs0,0(a4)
  96:	6c706d6f          	jal	s10,6f5c <__BSS_END__+0x115c>
  9a:	7865                	lui	a6,0xffff9
  9c:	6c20                	flw	fs0,88(s0)
  9e:	20676e6f          	jal	t3,762a4 <__C_STACK_TOP__+0x662a4>
  a2:	6f64                	flw	fs1,92(a4)
  a4:	6275                	lui	tp,0x1d
  a6:	656c                	flw	fa1,76(a0)
  a8:	2f00                	fld	fs0,24(a4)
  aa:	6f68                	flw	fa0,92(a4)
  ac:	656d                	lui	a0,0x1b
  ae:	78696c2f          	0x78696c2f
  b2:	2f62                	fld	ft10,24(sp)
  b4:	68746967          	0x68746967
  b8:	6275                	lui	tp,0x1d
  ba:	7369722f          	0x7369722f
  be:	672d7663          	bgeu	s10,s2,72a <vprintfmt.constprop.0+0x304>
  c2:	756e                	flw	fa0,248(sp)
  c4:	742d                	lui	s0,0xfffeb
  c6:	636c6f6f          	jal	t5,c66fc <__C_STACK_TOP__+0xb66fc>
  ca:	6168                	flw	fa0,68(a0)
  cc:	6e69                	lui	t3,0x1a
  ce:	6975622f          	0x6975622f
  d2:	646c                	flw	fa1,76(s0)
  d4:	672d                	lui	a4,0xb
  d6:	6e2d6363          	bltu	s10,sp,7bc <vprintfmt.constprop.0+0x396>
  da:	7765                	lui	a4,0xffff9
  dc:	696c                	flw	fa1,84(a0)
  de:	2d62                	fld	fs10,24(sp)
  e0:	67617473          	csrrci	s0,0x676,2
  e4:	3265                	jal	fffffa8c <__C_STACK_TOP__+0xfffefa8c>
  e6:	7369722f          	0x7369722f
  ea:	34367663          	bgeu	a2,gp,436 <vprintfmt.constprop.0+0x10>
  ee:	752d                	lui	a0,0xfffeb
  f0:	6b6e                	flw	fs6,216(sp)
  f2:	6f6e                	flw	ft10,216(sp)
  f4:	652d6e77          	0x652d6e77
  f8:	666c                	flw	fa1,76(a2)
  fa:	3376722f          	0x3376722f
  fe:	6932                	flw	fs2,12(sp)
 100:	2f6d                	jal	8ba <vprintfmt.constprop.0+0x494>
 102:	6c69                	lui	s8,0x1a
 104:	3370                	fld	fa2,224(a4)
 106:	2f32                	fld	ft10,264(sp)
 108:	696c                	flw	fa1,84(a0)
 10a:	6762                	flw	fa4,24(sp)
 10c:	5f006363          	bltu	zero,a6,6f2 <vprintfmt.constprop.0+0x2cc>
 110:	6c5f 636f 6c61      	0x6c61636f6c5f
 116:	5f65                	li	t5,-7
 118:	0074                	addi	a3,sp,12
 11a:	6d5f 7262 6f74      	0x6f7472626d5f
 120:	735f6377          	0x735f6377
 124:	6174                	flw	fa3,68(a0)
 126:	6574                	flw	fa3,76(a0)
 128:	5f00                	lw	s0,56(a4)
 12a:	7a74                	flw	fa3,116(a2)
 12c:	616e                	flw	ft2,216(sp)
 12e:	656d                	lui	a0,0x1b
 130:	5f00                	lw	s0,56(a4)
 132:	745f 5f6d 6573      	0x65735f6d745f
 138:	635f0063          	beq	t5,s5,758 <vprintfmt.constprop.0+0x332>
 13c:	6f6c                	flw	fa1,92(a4)
 13e:	5f006573          	csrrsi	a0,0x5f0,0
 142:	6275                	lui	tp,0x1d
 144:	6675                	lui	a2,0x1d
 146:	5f00                	lw	s0,56(a4)
 148:	6162                	flw	ft2,24(sp)
 14a:	5f006573          	csrrsi	a0,0x5f0,0
 14e:	745f 5f6d 6f68      	0x6f685f6d745f
 154:	7275                	lui	tp,0xffffd
 156:	5f00                	lw	s0,56(a4)
 158:	6f746377          	0x6f746377
 15c:	626d                	lui	tp,0x1b
 15e:	735f 6174 6574      	0x65746174735f
 164:	5f00                	lw	s0,56(a4)
 166:	735f 0066 6f5f      	0x6f5f0066735f
 16c:	5f6e                	lw	t5,248(sp)
 16e:	7865                	lui	a6,0xffff9
 170:	7469                	lui	s0,0xffffa
 172:	615f 6772 0073      	0x736772615f
 178:	635f 6f6f 696b      	0x696b6f6f635f
 17e:	0065                	c.nop	25
 180:	5f5f 6773 756c      	0x756c67735f5f
 186:	0065                	c.nop	25
 188:	20554e47          	fmsub.s	ft8,fa0,ft5,ft4,rmm
 18c:	20373143          	fmadd.s	ft2,fa4,ft3,ft4,rup
 190:	2e38                	fld	fa4,88(a2)
 192:	20302e33          	0x20302e33
 196:	6d2d                	lui	s10,0xb
 198:	646f6d63          	bltu	t5,t1,7f2 <vprintfmt.constprop.0+0x3cc>
 19c:	6c65                	lui	s8,0x19
 19e:	6d3d                	lui	s10,0xf
 1a0:	6465                	lui	s0,0x19
 1a2:	6f6c                	flw	fa1,92(a4)
 1a4:	6d2d2077          	0x6d2d2077
 1a8:	7261                	lui	tp,0xffff8
 1aa:	723d6863          	bltu	s10,gp,8da <vprintfmt.constprop.0+0x4b4>
 1ae:	3376                	fld	ft6,376(sp)
 1b0:	6932                	flw	fs2,12(sp)
 1b2:	206d                	jal	25c <_start+0x5c>
 1b4:	6d2d                	lui	s10,0xb
 1b6:	6261                	lui	tp,0x18
 1b8:	3d69                	jal	52 <buflen.1937+0x12>
 1ba:	6c69                	lui	s8,0x1a
 1bc:	3370                	fld	fa2,224(a4)
 1be:	2032                	fld	ft0,264(sp)
 1c0:	6d2d                	lui	s10,0xb
 1c2:	646f6d63          	bltu	t5,t1,81c <vprintfmt.constprop.0+0x3f6>
 1c6:	6c65                	lui	s8,0x19
 1c8:	6d3d                	lui	s10,0xf
 1ca:	6465                	lui	s0,0x19
 1cc:	6f6c                	flw	fa1,92(a4)
 1ce:	6d2d2077          	0x6d2d2077
 1d2:	7574                	flw	fa3,108(a0)
 1d4:	656e                	flw	fa0,216(sp)
 1d6:	723d                	lui	tp,0xfffef
 1d8:	656b636f          	jal	t1,b682e <__C_STACK_TOP__+0xa682e>
 1dc:	2074                	fld	fa3,192(s0)
 1de:	672d                	lui	a4,0xb
 1e0:	2d20                	fld	fs0,88(a0)
 1e2:	2d20734f          	0x2d20734f
 1e6:	2d20324f          	0x2d20324f
 1ea:	2d20734f          	0x2d20734f
 1ee:	6266                	flw	ft4,88(sp)
 1f0:	6975                	lui	s2,0x1d
 1f2:	646c                	flw	fa1,76(s0)
 1f4:	6e69                	lui	t3,0x1a
 1f6:	696c2d67          	0x696c2d67
 1fa:	6762                	flw	fa4,24(sp)
 1fc:	2d206363          	bltu	zero,s2,4c2 <vprintfmt.constprop.0+0x9c>
 200:	6e66                	flw	ft8,88(sp)
 202:	74732d6f          	jal	s10,33148 <__C_STACK_TOP__+0x23148>
 206:	6361                	lui	t1,0x18
 208:	72702d6b          	0x72702d6b
 20c:	6365746f          	jal	s0,57842 <__C_STACK_TOP__+0x47842>
 210:	6f74                	flw	fa3,92(a4)
 212:	2072                	fld	ft0,280(sp)
 214:	662d                	lui	a2,0xb
 216:	7865                	lui	a6,0xffff9
 218:	74706563          	bltu	zero,t2,962 <vprintfmt.constprop.0+0x53c>
 21c:	6f69                	lui	t5,0x1a
 21e:	736e                	flw	ft6,248(sp)
 220:	2d20                	fld	fs0,88(a0)
 222:	6e66                	flw	ft8,88(sp)
 224:	632d6e6f          	jal	t3,d6856 <__C_STACK_TOP__+0xc6856>
 228:	6c61                	lui	s8,0x18
 22a:	2d6c                	fld	fa1,216(a0)
 22c:	7865                	lui	a6,0xffff9
 22e:	74706563          	bltu	zero,t2,978 <vprintfmt.constprop.0+0x552>
 232:	6f69                	lui	t5,0x1a
 234:	736e                	flw	ft6,248(sp)
 236:	2d20                	fld	fs0,88(a0)
 238:	7666                	flw	fa2,120(sp)
 23a:	7369                	lui	t1,0xffffa
 23c:	6269                	lui	tp,0x1a
 23e:	6c69                	lui	s8,0x1a
 240:	7469                	lui	s0,0xffffa
 242:	3d79                	jal	e0 <buflen.1937+0xa0>
 244:	6968                	flw	fa0,84(a0)
 246:	6464                	flw	fs1,76(s0)
 248:	6e65                	lui	t3,0x19
 24a:	5f00                	lw	s0,56(a4)
 24c:	6c66                	flw	fs8,88(sp)
 24e:	6761                	lui	a4,0x18
 250:	695f0073          	0x695f0073
 254:	78635f73          	csrrwi	t5,0x786,6
 258:	0061                	c.nop	24
 25a:	775f 7364 5f00      	0x5f007364775f
 260:	465f 4c49 0045      	0x454c49465f
 266:	725f 7365 6c75      	0x6c757365725f
 26c:	5f74                	lw	a3,124(a4)
 26e:	5355006b          	0x5355006b
 272:	7449                	lui	s0,0xffff2
 274:	7079                	c.lui	zero,0xffffe
 276:	0065                	c.nop	25
 278:	6f6c                	flw	fa1,92(a4)
 27a:	676e                	flw	fa4,216(sp)
 27c:	6c20                	flw	fs0,88(s0)
 27e:	20676e6f          	jal	t3,76484 <__C_STACK_TOP__+0x66484>
 282:	6e69                	lui	t3,0x1a
 284:	0074                	addi	a3,sp,12
 286:	735f 7379 655f      	0x655f7379735f
 28c:	7272                	flw	ft4,60(sp)
 28e:	696c                	flw	fa1,84(a0)
 290:	5f007473          	csrrci	s0,0x5f0,0
 294:	62747663          	bgeu	s0,t2,8c0 <vprintfmt.constprop.0+0x49a>
 298:	6675                	lui	a2,0x1d
 29a:	5f00                	lw	s0,56(a4)
 29c:	626d                	lui	tp,0x1b
 29e:	6f747273          	csrrci	tp,0x6f7,8
 2a2:	5f736377          	0x5f736377
 2a6:	74617473          	csrrci	s0,0x746,2
 2aa:	0065                	c.nop	25
 2ac:	6d5f 7262 656c      	0x656c72626d5f
 2b2:	5f6e                	lw	t5,248(sp)
 2b4:	74617473          	csrrci	s0,0x746,2
 2b8:	0065                	c.nop	25
 2ba:	6972                	flw	fs2,28(sp)
 2bc:	5f766373          	csrrsi	t1,0x5f7,12
 2c0:	646f6d63          	bltu	t5,t1,91a <vprintfmt.constprop.0+0x4f4>
 2c4:	6c65                	lui	s8,0x19
 2c6:	5f00                	lw	s0,56(a4)
 2c8:	6e66                	flw	ft8,88(sp)
 2ca:	7261                	lui	tp,0xffff8
 2cc:	5f007367          	0x5f007367
 2d0:	6e66                	flw	ft8,88(sp)
 2d2:	735f0073          	0x735f0073
 2d6:	6769                	lui	a4,0x1a
 2d8:	006e                	c.slli	zero,0x1b
 2da:	735f 6474 7265      	0x72656474735f
 2e0:	0072                	c.slli	zero,0x1c
 2e2:	675f 6d61 616d      	0x616d6d61675f
 2e8:	735f 6769 676e      	0x676e6769735f
 2ee:	6d61                	lui	s10,0x18
 2f0:	5f00                	lw	s0,56(a4)
 2f2:	6d6e                	flw	fs10,216(sp)
 2f4:	6c61                	lui	s8,0x18
 2f6:	6f6c                	flw	fa1,92(a4)
 2f8:	755f0063          	beq	t5,s5,a38 <vprintfmt.constprop.0+0x612>
 2fc:	736e                	flw	ft6,248(sp)
 2fe:	6570                	flw	fa2,76(a0)
 300:	69666963          	bltu	a2,s6,992 <vprintfmt.constprop.0+0x56c>
 304:	6465                	lui	s0,0x19
 306:	6c5f 636f 6c61      	0x6c61636f6c5f
 30c:	5f65                	li	t5,-7
 30e:	6e69                	lui	t3,0x1a
 310:	6f66                	flw	ft10,88(sp)
 312:	5f00                	lw	s0,56(a4)
 314:	745f 006d 6972      	0x6972006d745f
 31a:	5f766373          	csrrsi	t1,0x5f7,12
 31e:	6261                	lui	tp,0x18
 320:	5f69                	li	t5,-6
 322:	7974                	flw	fa3,116(a0)
 324:	6570                	flw	fa2,76(a0)
 326:	5f00                	lw	s0,56(a4)
 328:	626d                	lui	tp,0x1b
 32a:	74617473          	csrrci	s0,0x746,2
 32e:	0065                	c.nop	25
 330:	5f5f 6377 6268      	0x626863775f5f
 336:	5f00                	lw	s0,56(a4)
 338:	6c747663          	bgeu	s0,t2,a04 <vprintfmt.constprop.0+0x5de>
 33c:	6e65                	lui	t3,0x19
 33e:	5f00                	lw	s0,56(a4)
 340:	6966                	flw	fs2,88(sp)
 342:	656c                	flw	fa1,76(a0)
 344:	6800                	flw	fs0,16(s0)
 346:	7361                	lui	t1,0xffff8
 348:	7668                	flw	fa0,108(a2)
 34a:	6c61                	lui	s8,0x18
 34c:	745f 4400 7557      	0x75574400745f
 352:	696e                	flw	fs2,216(sp)
 354:	5f006e6f          	jal	t3,6944 <__BSS_END__+0xb44>
 358:	696e                	flw	fs2,216(sp)
 35a:	0073626f          	jal	tp,36b60 <__C_STACK_TOP__+0x26b60>
 35e:	6f6c                	flw	fa1,92(a4)
 360:	676e                	flw	fa4,216(sp)
 362:	6c20                	flw	fs0,88(s0)
 364:	20676e6f          	jal	t3,7656a <__C_STACK_TOP__+0x6656a>
 368:	6e75                	lui	t3,0x1d
 36a:	6e676973          	csrrsi	s2,0x6e6,14
 36e:	6465                	lui	s0,0x19
 370:	6920                	flw	fs0,80(a0)
 372:	746e                	flw	fs0,248(sp)
 374:	4400                	lw	s0,8(s0)
 376:	72747357          	0x72747357
 37a:	6375                	lui	t1,0x1d
 37c:	0074                	addi	a3,sp,12
 37e:	726f6873          	csrrsi	a6,0x726,30
 382:	2074                	fld	fa3,192(s0)
 384:	6e75                	lui	t3,0x1d
 386:	6e676973          	csrrsi	s2,0x6e6,14
 38a:	6465                	lui	s0,0x19
 38c:	6920                	flw	fs0,80(a0)
 38e:	746e                	flw	fs0,248(sp)
 390:	5f00                	lw	s0,56(a4)
 392:	635f 7a6c 745f      	0x745f7a6c635f
 398:	6261                	lui	tp,0x18
 39a:	5f00                	lw	s0,56(a4)
 39c:	7461                	lui	s0,0xffff8
 39e:	7865                	lui	a6,0xffff9
 3a0:	7469                	lui	s0,0xffffa
 3a2:	0030                	addi	a2,sp,8
 3a4:	735f 6769 616e      	0x616e6769735f
 3aa:	5f6c                	lw	a1,124(a4)
 3ac:	7562                	flw	fa0,56(sp)
 3ae:	0066                	c.slli	zero,0x19
 3b0:	615f 6373 6974      	0x69746373615f
 3b6:	656d                	lui	a0,0x1b
 3b8:	625f 6675 5f00      	0x5f006675625f
 3be:	6572                	flw	fa0,28(sp)
 3c0:	746c7573          	csrrci	a0,0x746,24
 3c4:	5f00                	lw	s0,56(a4)
 3c6:	775f 6863 5f00      	0x5f006863775f
 3cc:	656e                	flw	fa0,216(sp)
 3ce:	7478                	flw	fa4,108(s0)
 3d0:	0066                	c.slli	zero,0x19
 3d2:	6e65                	lui	t3,0x19
 3d4:	6976                	flw	fs2,92(sp)
 3d6:	6f72                	flw	ft10,28(sp)
 3d8:	006e                	c.slli	zero,0x1b
 3da:	746e6977          	0x746e6977
 3de:	745f 5f00 6f6c      	0x6f6c5f00745f
 3e4:	5f006b63          	bltu	zero,a6,9da <vprintfmt.constprop.0+0x5b4>
 3e8:	755f 0068 6972      	0x69720068755f
 3ee:	5f766373          	csrrsi	t1,0x5f7,12
 3f2:	6261                	lui	tp,0x18
 3f4:	0069                	c.nop	26
 3f6:	4241                	li	tp,16
 3f8:	5f49                	li	t5,-14
 3fa:	4c49                	li	s8,18
 3fc:	3350                	fld	fa2,160(a4)
 3fe:	4532                	lw	a0,12(sp)
 400:	5f00                	lw	s0,56(a4)
 402:	756d                	lui	a0,0xffffb
 404:	746c                	flw	fa1,108(s0)
 406:	5f00                	lw	s0,56(a4)
 408:	755f 006c 6e75      	0x6e75006c755f
 40e:	63657073          	csrci	0x636,10
 412:	735f 7274 6e69      	0x6e697274735f
 418:	6f007367          	0x6f007367
 41c:	7470                	flw	fa2,108(s0)
 41e:	6572                	flw	fa0,28(sp)
 420:	00746573          	csrrsi	a0,0x7,8
 424:	775f 6972 6574      	0x65746972775f
 42a:	5f00                	lw	s0,56(a4)
 42c:	745f 5f6d 6579      	0x65795f6d745f
 432:	7261                	lui	tp,0xffff8
 434:	5f00                	lw	s0,56(a4)
 436:	635f 756f 746e      	0x746e756f635f
 43c:	5f00                	lw	s0,56(a4)
 43e:	6e75                	lui	t3,0x1d
 440:	7375                	lui	t1,0xffffd
 442:	6465                	lui	s0,0x19
 444:	725f 6e61 0064      	0x646e61725f
 44a:	4241                	li	tp,16
 44c:	5f49                	li	t5,-14
 44e:	4c49                	li	s8,18
 450:	3350                	fld	fa2,160(a4)
 452:	4432                	lw	s0,12(sp)
 454:	7200                	flw	fs0,32(a2)
 456:	7369                	lui	t1,0xffffa
 458:	635f7663          	bgeu	t5,s5,a84 <vprintfmt.constprop.0+0x65e>
 45c:	5f65646f          	jal	s0,56a52 <__C_STACK_TOP__+0x46a52>
 460:	6f6d                	lui	t5,0x1b
 462:	6564                	flw	fs1,76(a0)
 464:	006c                	addi	a1,sp,12
 466:	6f5f 6666 6573      	0x657366666f5f
 46c:	0074                	addi	a3,sp,12
 46e:	425f 6769 6e69      	0x6e696769425f
 474:	0074                	addi	a3,sp,12
 476:	5f5f 6f6d 6464      	0x64646f6d5f5f
 47c:	3369                	jal	206 <_start+0x6>
 47e:	4100                	lw	s0,0(a0)
 480:	4942                	lw	s2,16(sp)
 482:	495f 504c 3233      	0x3233504c495f
 488:	0046                	c.slli	zero,0x11
 48a:	706d6f63          	bltu	s10,t1,ba8 <putchar+0xa0>
 48e:	656c                	flw	fa1,76(a0)
 490:	2078                	fld	fa4,192(s0)
 492:	6c66                	flw	fs8,88(sp)
 494:	0074616f          	jal	sp,46c9a <__C_STACK_TOP__+0x36c9a>
 498:	5f5f 6d74 6d5f      	0x6d5f6d745f5f
 49e:	5f006e6f          	jal	t3,6a8e <__BSS_END__+0xc8e>
 4a2:	7461                	lui	s0,0xffff8
 4a4:	7865                	lui	a6,0xffff9
 4a6:	7469                	lui	s0,0xffffa
 4a8:	7300                	flw	fs0,32(a4)
 4aa:	6275                	lui	tp,0x1d
 4ac:	6174706f          	j	482c2 <__C_STACK_TOP__+0x382c2>
 4b0:	6772                	flw	fa4,28(sp)
 4b2:	5f00                	lw	s0,56(a4)
 4b4:	735f 6964 6964      	0x69646964735f
 4ba:	696e                	flw	fs2,216(sp)
 4bc:	0074                	addi	a3,sp,12
 4be:	6f5f 6666 745f      	0x745f66666f5f
 4c4:	5f00                	lw	s0,56(a4)
 4c6:	765f 0068 5f5f      	0x5f5f0068765f
 4cc:	6c76                	flw	fs8,92(sp)
 4ce:	5f00                	lw	s0,56(a4)
 4d0:	7266                	flw	ft4,120(sp)
 4d2:	6565                	lui	a0,0x19
 4d4:	696c                	flw	fa1,84(a0)
 4d6:	5f007473          	csrrci	s0,0x5f0,0
 4da:	6974                	flw	fa3,84(a0)
 4dc:	656d                	lui	a0,0x1b
 4de:	6f7a                	flw	ft10,156(sp)
 4e0:	656e                	flw	fa0,216(sp)
 4e2:	5f00                	lw	s0,56(a4)
 4e4:	626d                	lui	tp,0x1b
 4e6:	74617473          	csrrci	s0,0x746,2
 4ea:	5f65                	li	t5,-7
 4ec:	0074                	addi	a3,sp,12
 4ee:	4c5f 434f 5f4b      	0x5f4b434f4c5f
 4f4:	4552                	lw	a0,20(sp)
 4f6:	53525543          	fmadd.d	fa0,ft4,fs5,fa0,unknown
 4fa:	5649                	li	a2,-14
 4fc:	5f45                	li	t5,-15
 4fe:	0054                	addi	a3,sp,4
 500:	725f 6165 0064      	0x646165725f
 506:	4241                	li	tp,16
 508:	5f49                	li	t5,-14
 50a:	504c                	lw	a1,36(s0)
 50c:	3436                	fld	fs0,360(sp)
 50e:	4100                	lw	s0,0(a0)
 510:	4942                	lw	s2,16(sp)
 512:	495f 504c 3233      	0x3233504c495f
 518:	5f00                	lw	s0,56(a4)
 51a:	7364                	flw	fs1,100(a4)
 51c:	61685f6f          	jal	t5,85b32 <__C_STACK_TOP__+0x75b32>
 520:	646e                	flw	fs0,216(sp)
 522:	656c                	flw	fa1,76(a0)
 524:	4300                	lw	s0,0(a4)
 526:	5f4d                	li	t5,-13
 528:	454d                	li	a0,19
 52a:	4144                	lw	s1,4(a0)
 52c:	594e                	lw	s2,240(sp)
 52e:	5f00                	lw	s0,56(a4)
 530:	656e                	flw	fa0,216(sp)
 532:	685f0077          	0x685f0077
 536:	655f 7272 6f6e      	0x6f6e7272655f
 53c:	5f00                	lw	s0,56(a4)
 53e:	6c66                	flw	fs8,88(sp)
 540:	5f6b636f          	jal	t1,b6b36 <__C_STACK_TOP__+0xa6b36>
 544:	0074                	addi	a3,sp,12
 546:	665f 616c 7367      	0x7367616c665f
 54c:	0032                	c.slli	zero,0xc
 54e:	695f 626f 0073      	0x73626f695f
 554:	4d5f4d43          	0x4d5f4d43
 558:	4445                	li	s0,17
 55a:	4f4c                	lw	a1,28(a4)
 55c:	74680057          	0x74680057
 560:	6261                	lui	tp,0x18
 562:	685f 7361 0068      	0x687361685f
 568:	5f5f 4673 4c49      	0x4c4946735f5f
 56e:	0045                	c.nop	17
 570:	735f 7379 6e5f      	0x6e5f7379735f
 576:	7265                	lui	tp,0xffff9
 578:	0072                	c.slli	zero,0x1c
 57a:	6d5f 6c62 6e65      	0x6e656c626d5f
 580:	735f 6174 6574      	0x65746174735f
 586:	5f00                	lw	s0,56(a4)
 588:	6e69                	lui	t3,0x1a
 58a:	695f0063          	beq	t5,s5,c0a <putchar+0x102>
 58e:	646e                	flw	fs0,216(sp)
 590:	5f00                	lw	s0,56(a4)
 592:	6f6c                	flw	fa1,92(a4)
 594:	656c6163          	bltu	s8,s6,bd6 <putchar+0xce>
 598:	5f00                	lw	s0,56(a4)
 59a:	635f 656c 6e61      	0x6e61656c635f
 5a0:	7075                	c.lui	zero,0xffffd
 5a2:	5f00                	lw	s0,56(a4)
 5a4:	616d                	addi	sp,sp,240
 5a6:	7778                	flw	fa4,108(a4)
 5a8:	7364                	flw	fs1,100(a4)
 5aa:	5f00                	lw	s0,56(a4)
 5ac:	6572                	flw	fa0,28(sp)
 5ae:	6e65                	lui	t3,0x19
 5b0:	0074                	addi	a3,sp,12
 5b2:	5f5f 3078 5f00      	0x5f0030785f5f
 5b8:	785f 0031 5f5f      	0x5f5f0031785f
 5be:	3278                	fld	fa4,224(a2)
 5c0:	5f00                	lw	s0,56(a4)
 5c2:	785f 0033 5f5f      	0x5f5f0033785f
 5c8:	6176                	flw	ft2,92(sp)
 5ca:	756c                	flw	fa1,108(a0)
 5cc:	0065                	c.nop	25
 5ce:	735f 6565 006b      	0x6b6565735f
 5d4:	665f 6f70 5f73      	0x5f736f70665f
 5da:	0074                	addi	a3,sp,12
 5dc:	625f 6b6c 6973      	0x69736b6c625f
 5e2:	657a                	flw	fa0,156(sp)
 5e4:	5f00                	lw	s0,56(a4)
 5e6:	657a6973          	csrrsi	s2,0x657,20
 5ea:	5f00                	lw	s0,56(a4)
 5ec:	755f 6964 6d76      	0x6d766964755f
 5f2:	6964646f          	jal	s0,46c88 <__C_STACK_TOP__+0x36c88>
 5f6:	0034                	addi	a3,sp,8
 5f8:	6e75                	lui	t3,0x1d
 5fa:	63657073          	csrci	0x636,10
 5fe:	5f76                	lw	t5,124(sp)
 600:	69727473          	csrrci	s0,0x697,4
 604:	676e                	flw	fa4,216(sp)
 606:	735f0073          	0x735f0073
 60a:	6565                	lui	a0,0x19
 60c:	0064                	addi	s1,sp,12
 60e:	6574706f          	j	48464 <__C_STACK_TOP__+0x38464>
 612:	7272                	flw	ft4,60(sp)
 614:	6800                	flw	fs0,16(s0)
 616:	6769                	lui	a4,0x1a
 618:	0068                	addi	a0,sp,12
 61a:	5f5f 3071 5f00      	0x5f0030715f5f
 620:	715f 0031 735f      	0x735f0031715f
 626:	7274                	flw	fa3,100(a2)
 628:	6f74                	flw	fa3,92(a4)
 62a:	616c5f6b          	0x616c5f6b
 62e:	43007473          	csrrci	s0,0x430,0
 632:	5f4d                	li	t5,-13
 634:	4950                	lw	a2,20(a0)
 636:	665f0043          	fmadd.q	ft0,ft10,ft5,fa2,rne
 63a:	746e                	flw	fs0,248(sp)
 63c:	7079                	c.lui	zero,0xffffe
 63e:	7365                	lui	t1,0xffff9
 640:	7500                	flw	fs0,40(a0)
 642:	736e                	flw	ft6,248(sp)
 644:	6769                	lui	a4,0x1a
 646:	656e                	flw	fa0,216(sp)
 648:	2064                	fld	fs1,192(s0)
 64a:	72616863          	bltu	sp,t1,d7a <main+0x10a>
 64e:	5f00                	lw	s0,56(a4)
 650:	6461                	lui	s0,0x18
 652:	0064                	addi	s1,sp,12
 654:	5f5f 4c55 6e6f      	0x6e6f4c555f5f
 65a:	74680067          	jr	1862(a6) # ffff9746 <__C_STACK_TOP__+0xfffe9746>
 65e:	6261                	lui	tp,0x18
 660:	655f 5f71 6f70      	0x6f705f71655f
 666:	6e69                	lui	t3,0x1a
 668:	6574                	flw	fa3,76(a0)
 66a:	0072                	c.slli	zero,0x1c
 66c:	2e2e                	fld	ft8,200(sp)
 66e:	2f2e2e2f          	0x2f2e2e2f
 672:	2e2e                	fld	ft8,200(sp)
 674:	2f2e2e2f          	0x2f2e2e2f
 678:	2e2e                	fld	ft8,200(sp)
 67a:	722f2e2f          	0x722f2e2f
 67e:	7369                	lui	t1,0xffffa
 680:	672d7663          	bgeu	s10,s2,cec <main+0x7c>
 684:	6c2f6363          	bltu	t5,sp,d4a <main+0xda>
 688:	6269                	lui	tp,0x1a
 68a:	2f636367          	0x2f636367
 68e:	696c                	flw	fa1,84(a0)
 690:	6762                	flw	fa4,24(sp)
 692:	2e326363          	bltu	tp,gp,978 <vprintfmt.constprop.0+0x552>
 696:	5f5f0063          	beq	t5,s5,c76 <main+0x6>
 69a:	7278                	flw	fa4,100(a2)
 69c:	5f00                	lw	s0,56(a4)
 69e:	626f6c67          	0x626f6c67
 6a2:	6c61                	lui	s8,0x18
 6a4:	695f 706d 7275      	0x7275706d695f
 6aa:	5f65                	li	t5,-7
 6ac:	7470                	flw	fa2,108(s0)
 6ae:	0072                	c.slli	zero,0x1c
 6b0:	4455                	li	s0,21
 6b2:	7449                	lui	s0,0xffff2
 6b4:	7079                	c.lui	zero,0xffffe
 6b6:	0065                	c.nop	25
 6b8:	735f 6474 756f      	0x756f6474735f
 6be:	0074                	addi	a3,sp,12
 6c0:	5f5f 6d74 775f      	0x775f6d745f5f
 6c6:	6164                	flw	fs1,68(a0)
 6c8:	0079                	c.nop	30
 6ca:	675f 756c 0065      	0x65756c675f
 6d0:	735f 6474 6e69      	0x6e696474735f
 6d6:	5f00                	lw	s0,56(a4)
 6d8:	7a697373          	csrrci	t1,0x7a6,18
 6dc:	5f65                	li	t5,-7
 6de:	0074                	addi	a3,sp,12
 6e0:	6c5f 3436 5f61      	0x5f6134366c5f
 6e6:	7562                	flw	fa0,56(sp)
 6e8:	0066                	c.slli	zero,0x19
 6ea:	735f 6769 665f      	0x665f6769735f
 6f0:	6e75                	lui	t3,0x1d
 6f2:	5f5f0063          	beq	t5,s5,cd2 <main+0x62>
 6f6:	6f70                	flw	fa2,92(a4)
 6f8:	6370                	flw	fa2,68(a4)
 6fa:	746e756f          	jal	a0,e7e40 <__C_STACK_TOP__+0xd7e40>
 6fe:	745f 6261 5f00      	0x5f006261745f
 704:	626e                	flw	ft4,216(sp)
 706:	6675                	lui	a2,0x1d
 708:	5f00                	lw	s0,56(a4)
 70a:	6e75                	lui	t3,0x1d
 70c:	7375                	lui	t1,0xffffd
 70e:	6465                	lui	s0,0x19
 710:	5f00                	lw	s0,56(a4)
 712:	725f 0030 5f5f      	0x5f5f0030725f
 718:	3172                	fld	ft2,312(sp)
 71a:	5f00                	lw	s0,56(a4)
 71c:	745f 5f6d 7369      	0x73695f6d745f
 722:	7364                	flw	fs1,100(a4)
 724:	0074                	addi	a3,sp,12
 726:	6c5f 636f 6c61      	0x6c61636f6c5f
 72c:	6974                	flw	fa3,84(a0)
 72e:	656d                	lui	a0,0x1b
 730:	625f 6675 5f00      	0x5f006675625f
 736:	745f 5f6d 696d      	0x696d5f6d745f
 73c:	006e                	c.slli	zero,0x1b
 73e:	725f 3834 4100      	0x41003834725f
 744:	4942                	lw	s2,16(sp)
 746:	4c5f 3650 4434      	0x443436504c5f
 74c:	6f00                	flw	fs0,24(a4)
 74e:	7470                	flw	fa2,108(s0)
 750:	0074706f          	j	47f56 <__C_STACK_TOP__+0x37f56>
 754:	4241                	li	tp,16
 756:	5f49                	li	t5,-14
 758:	504c                	lw	a1,36(s0)
 75a:	3436                	fld	fs0,360(sp)
 75c:	0046                	c.slli	zero,0x11
 75e:	6d5f 7462 776f      	0x776f74626d5f
 764:	74735f63          	bge	t1,t2,ec2 <main+0x252>
 768:	7461                	lui	s0,0xffff8
 76a:	0065                	c.nop	25
 76c:	705f 7335 5f00      	0x5f007335705f
 772:	745f 5f6d 6479      	0x64795f6d745f
 778:	7961                	lui	s2,0xffff8
 77a:	5500                	lw	s0,40(a0)
 77c:	4951                	li	s2,20
 77e:	7974                	flw	fa3,116(a0)
 780:	6570                	flw	fa2,76(a0)
 782:	5f00                	lw	s0,56(a4)
 784:	735f 7562 0066      	0x667562735f
 78a:	5f5f 6d74 6d5f      	0x6d5f6d745f5f
 790:	6164                	flw	fs1,68(a0)
 792:	0079                	c.nop	30
 794:	725f 6e61 5f64      	0x5f646e61725f
 79a:	656e                	flw	fa0,216(sp)
 79c:	7478                	flw	fa4,108(s0)
 79e:	6800                	flw	fs0,16(s0)
 7a0:	6174                	flw	fa3,68(a0)
 7a2:	5f62                	lw	t5,56(sp)
 7a4:	7165                	addi	sp,sp,-400
 7a6:	5f00                	lw	s0,56(a4)
 7a8:	755f 6964 6476      	0x64766964755f
 7ae:	3369                	jal	538 <vprintfmt.constprop.0+0x112>
 7b0:	5f00                	lw	s0,56(a4)
 7b2:	755f 6f6d 6464      	0x64646f6d755f
 7b8:	3369                	jal	542 <vprintfmt.constprop.0+0x11c>
 7ba:	4700                	lw	s0,8(a4)
 7bc:	554e                	lw	a0,240(sp)
 7be:	4320                	lw	s0,64(a4)
 7c0:	3731                	jal	6cc <vprintfmt.constprop.0+0x2a6>
 7c2:	3820                	fld	fs0,112(s0)
 7c4:	332e                	fld	ft6,232(sp)
 7c6:	302e                	fld	ft0,232(sp)
 7c8:	2d20                	fld	fs0,88(a0)
 7ca:	636d                	lui	t1,0x1b
 7cc:	6f6d                	lui	t5,0x1b
 7ce:	6564                	flw	fs1,76(a0)
 7d0:	3d6c                	fld	fa1,248(a0)
 7d2:	656d                	lui	a0,0x1b
 7d4:	6c64                	flw	fs1,92(s0)
 7d6:	2d20776f          	jal	a4,7aa8 <__BSS_END__+0x1ca8>
 7da:	616d                	addi	sp,sp,240
 7dc:	6372                	flw	ft6,28(sp)
 7de:	3d68                	fld	fa0,248(a0)
 7e0:	7672                	flw	fa2,60(sp)
 7e2:	6d693233          	0x6d693233
 7e6:	2d20                	fld	fs0,88(a0)
 7e8:	616d                	addi	sp,sp,240
 7ea:	6962                	flw	fs2,24(sp)
 7ec:	693d                	lui	s2,0xf
 7ee:	706c                	flw	fa1,100(s0)
 7f0:	2d203233          	0x2d203233
 7f4:	636d                	lui	t1,0x1b
 7f6:	6f6d                	lui	t5,0x1b
 7f8:	6564                	flw	fs1,76(a0)
 7fa:	3d6c                	fld	fa1,248(a0)
 7fc:	656d                	lui	a0,0x1b
 7fe:	6c64                	flw	fs1,92(s0)
 800:	2d20776f          	jal	a4,7ad2 <__BSS_END__+0x1cd2>
 804:	746d                	lui	s0,0xffffb
 806:	6e75                	lui	t3,0x1d
 808:	3d65                	jal	6c0 <vprintfmt.constprop.0+0x29a>
 80a:	6f72                	flw	ft10,28(sp)
 80c:	74656b63          	bltu	a0,t1,f62 <main+0x2f2>
 810:	2d20                	fld	fs0,88(a0)
 812:	4f2d2067          	0x4f2d2067
 816:	4f2d2073          	csrs	0x4f2,s10
 81a:	2032                	fld	ft0,264(sp)
 81c:	4f2d                	li	t5,11
 81e:	662d2073          	csrs	0x662,s10
 822:	7562                	flw	fa0,56(sp)
 824:	6c69                	lui	s8,0x1a
 826:	6964                	flw	fs1,84(a0)
 828:	676e                	flw	fa4,216(sp)
 82a:	6c2d                	lui	s8,0xb
 82c:	6269                	lui	tp,0x1a
 82e:	20636367          	0x20636367
 832:	662d                	lui	a2,0xb
 834:	6f6e                	flw	ft10,216(sp)
 836:	732d                	lui	t1,0xfffeb
 838:	6174                	flw	fa3,68(a0)
 83a:	702d6b63          	bltu	s10,sp,f50 <main+0x2e0>
 83e:	6f72                	flw	ft10,28(sp)
 840:	6574                	flw	fa3,76(a0)
 842:	726f7463          	bgeu	t5,t1,f6a <main+0x2fa>
 846:	2d20                	fld	fs0,88(a0)
 848:	7666                	flw	fa2,120(sp)
 84a:	7369                	lui	t1,0xffffa
 84c:	6269                	lui	tp,0x1a
 84e:	6c69                	lui	s8,0x1a
 850:	7469                	lui	s0,0xffffa
 852:	3d79                	jal	6f0 <vprintfmt.constprop.0+0x2ca>
 854:	6968                	flw	fa0,84(a0)
 856:	6464                	flw	fs1,76(s0)
 858:	6e65                	lui	t3,0x19
	...
