
/home/xxxx/github/scr1/build/mul.elf:     file format elf32-littleriscv


Disassembly of section .text.init:

00000000 <SIM_EXIT-0xf4>:
	...

000000f4 <SIM_EXIT>:
  f4:	00000013          	nop

000000f8 <SIM_STOP>:
  f8:	0000006f          	j	f8 <SIM_STOP>
  fc:	ffff                	0xffff
  fe:	ffff                	0xffff
	...

000001c0 <trap_vector>:
 1c0:	34202f73          	csrr	t5,mcause
 1c4:	4fa1                	li	t6,8
 1c6:	03ff0563          	beq	t5,t6,1f0 <_report>
 1ca:	4fa5                	li	t6,9
 1cc:	03ff0263          	beq	t5,t6,1f0 <_report>
 1d0:	4fad                	li	t6,11
 1d2:	01ff0f63          	beq	t5,t6,1f0 <_report>
 1d6:	00000f17          	auipc	t5,0x0
 1da:	e2af0f13          	addi	t5,t5,-470 # 0 <CL_SIZE-0x20>
 1de:	000f0363          	beqz	t5,1e4 <trap_vector+0x24>
 1e2:	8f02                	jr	t5
 1e4:	34202f73          	csrr	t5,mcause
 1e8:	000f5363          	bgez	t5,1ee <handle_exception>
 1ec:	a009                	j	1ee <handle_exception>

000001ee <handle_exception>:
 1ee:	4505                	li	a0,1

000001f0 <_report>:
 1f0:	4700006f          	j	660 <sc_exit>
 1f4:	00000013          	nop
 1f8:	00000013          	nop
 1fc:	00000013          	nop

00000200 <_start>:
 200:	f1402573          	csrr	a0,mhartid
 204:	e101                	bnez	a0,204 <_start+0x4>
 206:	4e01                	li	t3,0
 208:	00000297          	auipc	t0,0x0
 20c:	fb828293          	addi	t0,t0,-72 # 1c0 <trap_vector>
 210:	30529073          	csrw	mtvec,t0
 214:	4505                	li	a0,1
 216:	057e                	slli	a0,a0,0x1f
 218:	00054863          	bltz	a0,228 <_start+0x28>
 21c:	0ff0000f          	fence
 220:	85f2                	mv	a1,t3
 222:	4501                	li	a0,0
 224:	00000073          	ecall
 228:	00000297          	auipc	t0,0x0
 22c:	dd828293          	addi	t0,t0,-552 # 0 <CL_SIZE-0x20>
 230:	00028e63          	beqz	t0,24c <_start+0x4c>
 234:	10529073          	csrw	stvec,t0
 238:	0000b2b7          	lui	t0,0xb
 23c:	10928293          	addi	t0,t0,265 # b109 <_gp+0xa201>
 240:	30229073          	csrw	medeleg,t0
 244:	30202373          	csrr	t1,medeleg
 248:	fa6293e3          	bne	t0,t1,1ee <handle_exception>
 24c:	30005073          	csrwi	mstatus,0
 250:	00000297          	auipc	t0,0x0
 254:	05028293          	addi	t0,t0,80 # 2a0 <_run_test>
 258:	34129073          	csrw	mepc,t0
 25c:	f1402573          	csrr	a0,mhartid
 260:	30200073          	mret
	...

Disassembly of section .text:

000002a0 <_run_test>:
 2a0:	000080b7          	lui	ra,0x8
 2a4:	e0008093          	addi	ra,ra,-512 # 7e00 <_gp+0x6ef8>
 2a8:	b6db7137          	lui	sp,0xb6db7
 2ac:	db710113          	addi	sp,sp,-585 # b6db6db7 <_gp+0xb6db5eaf>
 2b0:	022081b3          	mul	gp,ra,sp
 2b4:	00001eb7          	lui	t4,0x1
 2b8:	200e8e93          	addi	t4,t4,512 # 1200 <_gp+0x2f8>
 2bc:	02000e13          	li	t3,32
 2c0:	37d19c63          	bne	gp,t4,638 <fail>

000002c4 <test_33>:
 2c4:	000080b7          	lui	ra,0x8
 2c8:	fc008093          	addi	ra,ra,-64 # 7fc0 <_gp+0x70b8>
 2cc:	b6db7137          	lui	sp,0xb6db7
 2d0:	db710113          	addi	sp,sp,-585 # b6db6db7 <_gp+0xb6db5eaf>
 2d4:	022081b3          	mul	gp,ra,sp
 2d8:	00001eb7          	lui	t4,0x1
 2dc:	240e8e93          	addi	t4,t4,576 # 1240 <_gp+0x338>
 2e0:	02100e13          	li	t3,33
 2e4:	35d19a63          	bne	gp,t4,638 <fail>

000002e8 <test_2>:
 2e8:	4081                	li	ra,0
 2ea:	4101                	li	sp,0
 2ec:	022081b3          	mul	gp,ra,sp
 2f0:	4e81                	li	t4,0
 2f2:	4e09                	li	t3,2
 2f4:	35d19263          	bne	gp,t4,638 <fail>

000002f8 <test_3>:
 2f8:	4085                	li	ra,1
 2fa:	4105                	li	sp,1
 2fc:	022081b3          	mul	gp,ra,sp
 300:	4e85                	li	t4,1
 302:	4e0d                	li	t3,3
 304:	33d19a63          	bne	gp,t4,638 <fail>

00000308 <test_4>:
 308:	408d                	li	ra,3
 30a:	411d                	li	sp,7
 30c:	022081b3          	mul	gp,ra,sp
 310:	4ed5                	li	t4,21
 312:	4e11                	li	t3,4
 314:	33d19263          	bne	gp,t4,638 <fail>

00000318 <test_5>:
 318:	4081                	li	ra,0
 31a:	ffff8137          	lui	sp,0xffff8
 31e:	022081b3          	mul	gp,ra,sp
 322:	4e81                	li	t4,0
 324:	4e15                	li	t3,5
 326:	31d19963          	bne	gp,t4,638 <fail>

0000032a <test_6>:
 32a:	800000b7          	lui	ra,0x80000
 32e:	4101                	li	sp,0
 330:	022081b3          	mul	gp,ra,sp
 334:	4e81                	li	t4,0
 336:	4e19                	li	t3,6
 338:	31d19063          	bne	gp,t4,638 <fail>

0000033c <test_7>:
 33c:	800000b7          	lui	ra,0x80000
 340:	ffff8137          	lui	sp,0xffff8
 344:	022081b3          	mul	gp,ra,sp
 348:	4e81                	li	t4,0
 34a:	4e1d                	li	t3,7
 34c:	2fd19663          	bne	gp,t4,638 <fail>

00000350 <test_30>:
 350:	aaaab0b7          	lui	ra,0xaaaab
 354:	aab08093          	addi	ra,ra,-1365 # aaaaaaab <_gp+0xaaaa9ba3>
 358:	00030137          	lui	sp,0x30
 35c:	e7d10113          	addi	sp,sp,-387 # 2fe7d <_gp+0x2ef75>
 360:	022081b3          	mul	gp,ra,sp
 364:	00010eb7          	lui	t4,0x10
 368:	f7fe8e93          	addi	t4,t4,-129 # ff7f <_gp+0xf077>
 36c:	4e79                	li	t3,30
 36e:	2dd19563          	bne	gp,t4,638 <fail>

00000372 <test_31>:
 372:	000300b7          	lui	ra,0x30
 376:	e7d08093          	addi	ra,ra,-387 # 2fe7d <_gp+0x2ef75>
 37a:	aaaab137          	lui	sp,0xaaaab
 37e:	aab10113          	addi	sp,sp,-1365 # aaaaaaab <_gp+0xaaaa9ba3>
 382:	022081b3          	mul	gp,ra,sp
 386:	00010eb7          	lui	t4,0x10
 38a:	f7fe8e93          	addi	t4,t4,-129 # ff7f <_gp+0xf077>
 38e:	4e7d                	li	t3,31
 390:	2bd19463          	bne	gp,t4,638 <fail>

00000394 <test_34>:
 394:	ff0000b7          	lui	ra,0xff000
 398:	ff000137          	lui	sp,0xff000
 39c:	022081b3          	mul	gp,ra,sp
 3a0:	4e81                	li	t4,0
 3a2:	02200e13          	li	t3,34
 3a6:	29d19963          	bne	gp,t4,638 <fail>

000003aa <test_35>:
 3aa:	fff00093          	li	ra,-1
 3ae:	fff00113          	li	sp,-1
 3b2:	022081b3          	mul	gp,ra,sp
 3b6:	4e85                	li	t4,1
 3b8:	02300e13          	li	t3,35
 3bc:	27d19e63          	bne	gp,t4,638 <fail>

000003c0 <test_36>:
 3c0:	fff00093          	li	ra,-1
 3c4:	4105                	li	sp,1
 3c6:	022081b3          	mul	gp,ra,sp
 3ca:	fff00e93          	li	t4,-1
 3ce:	02400e13          	li	t3,36
 3d2:	27d19363          	bne	gp,t4,638 <fail>

000003d6 <test_37>:
 3d6:	4085                	li	ra,1
 3d8:	fff00113          	li	sp,-1
 3dc:	022081b3          	mul	gp,ra,sp
 3e0:	fff00e93          	li	t4,-1
 3e4:	02500e13          	li	t3,37
 3e8:	25d19863          	bne	gp,t4,638 <fail>

000003ec <test_8>:
 3ec:	40b5                	li	ra,13
 3ee:	412d                	li	sp,11
 3f0:	022080b3          	mul	ra,ra,sp
 3f4:	08f00e93          	li	t4,143
 3f8:	4e21                	li	t3,8
 3fa:	23d09f63          	bne	ra,t4,638 <fail>

000003fe <test_9>:
 3fe:	40b9                	li	ra,14
 400:	412d                	li	sp,11
 402:	02208133          	mul	sp,ra,sp
 406:	09a00e93          	li	t4,154
 40a:	4e25                	li	t3,9
 40c:	23d11663          	bne	sp,t4,638 <fail>

00000410 <test_10>:
 410:	40b5                	li	ra,13
 412:	021080b3          	mul	ra,ra,ra
 416:	0a900e93          	li	t4,169
 41a:	4e29                	li	t3,10
 41c:	21d09e63          	bne	ra,t4,638 <fail>

00000420 <test_11>:
 420:	4201                	li	tp,0
 422:	40b5                	li	ra,13
 424:	412d                	li	sp,11
 426:	022081b3          	mul	gp,ra,sp
 42a:	00018313          	mv	t1,gp
 42e:	0205                	addi	tp,tp,1
 430:	4289                	li	t0,2
 432:	fe5218e3          	bne	tp,t0,422 <test_11+0x2>
 436:	08f00e93          	li	t4,143
 43a:	4e2d                	li	t3,11
 43c:	1fd31e63          	bne	t1,t4,638 <fail>

00000440 <test_12>:
 440:	4201                	li	tp,0
 442:	40b9                	li	ra,14
 444:	412d                	li	sp,11
 446:	022081b3          	mul	gp,ra,sp
 44a:	0001                	nop
 44c:	00018313          	mv	t1,gp
 450:	0205                	addi	tp,tp,1
 452:	4289                	li	t0,2
 454:	fe5217e3          	bne	tp,t0,442 <test_12+0x2>
 458:	09a00e93          	li	t4,154
 45c:	4e31                	li	t3,12
 45e:	1dd31d63          	bne	t1,t4,638 <fail>

00000462 <test_13>:
 462:	4201                	li	tp,0
 464:	40bd                	li	ra,15
 466:	412d                	li	sp,11
 468:	022081b3          	mul	gp,ra,sp
 46c:	0001                	nop
 46e:	0001                	nop
 470:	00018313          	mv	t1,gp
 474:	0205                	addi	tp,tp,1
 476:	4289                	li	t0,2
 478:	fe5216e3          	bne	tp,t0,464 <test_13+0x2>
 47c:	0a500e93          	li	t4,165
 480:	4e35                	li	t3,13
 482:	1bd31b63          	bne	t1,t4,638 <fail>

00000486 <test_14>:
 486:	4201                	li	tp,0
 488:	40b5                	li	ra,13
 48a:	412d                	li	sp,11
 48c:	022081b3          	mul	gp,ra,sp
 490:	0205                	addi	tp,tp,1
 492:	4289                	li	t0,2
 494:	fe521ae3          	bne	tp,t0,488 <test_14+0x2>
 498:	08f00e93          	li	t4,143
 49c:	4e39                	li	t3,14
 49e:	19d19d63          	bne	gp,t4,638 <fail>

000004a2 <test_15>:
 4a2:	4201                	li	tp,0
 4a4:	40b9                	li	ra,14
 4a6:	412d                	li	sp,11
 4a8:	0001                	nop
 4aa:	022081b3          	mul	gp,ra,sp
 4ae:	0205                	addi	tp,tp,1
 4b0:	4289                	li	t0,2
 4b2:	fe5219e3          	bne	tp,t0,4a4 <test_15+0x2>
 4b6:	09a00e93          	li	t4,154
 4ba:	4e3d                	li	t3,15
 4bc:	17d19e63          	bne	gp,t4,638 <fail>

000004c0 <test_16>:
 4c0:	4201                	li	tp,0
 4c2:	40bd                	li	ra,15
 4c4:	412d                	li	sp,11
 4c6:	0001                	nop
 4c8:	0001                	nop
 4ca:	022081b3          	mul	gp,ra,sp
 4ce:	0205                	addi	tp,tp,1
 4d0:	4289                	li	t0,2
 4d2:	fe5218e3          	bne	tp,t0,4c2 <test_16+0x2>
 4d6:	0a500e93          	li	t4,165
 4da:	4e41                	li	t3,16
 4dc:	15d19e63          	bne	gp,t4,638 <fail>

000004e0 <test_17>:
 4e0:	4201                	li	tp,0
 4e2:	40b5                	li	ra,13
 4e4:	0001                	nop
 4e6:	412d                	li	sp,11
 4e8:	022081b3          	mul	gp,ra,sp
 4ec:	0205                	addi	tp,tp,1
 4ee:	4289                	li	t0,2
 4f0:	fe5219e3          	bne	tp,t0,4e2 <test_17+0x2>
 4f4:	08f00e93          	li	t4,143
 4f8:	4e45                	li	t3,17
 4fa:	13d19f63          	bne	gp,t4,638 <fail>

000004fe <test_18>:
 4fe:	4201                	li	tp,0
 500:	40b9                	li	ra,14
 502:	0001                	nop
 504:	412d                	li	sp,11
 506:	0001                	nop
 508:	022081b3          	mul	gp,ra,sp
 50c:	0205                	addi	tp,tp,1
 50e:	4289                	li	t0,2
 510:	fe5218e3          	bne	tp,t0,500 <test_18+0x2>
 514:	09a00e93          	li	t4,154
 518:	4e49                	li	t3,18
 51a:	11d19f63          	bne	gp,t4,638 <fail>

0000051e <test_19>:
 51e:	4201                	li	tp,0
 520:	40bd                	li	ra,15
 522:	0001                	nop
 524:	0001                	nop
 526:	412d                	li	sp,11
 528:	022081b3          	mul	gp,ra,sp
 52c:	0205                	addi	tp,tp,1
 52e:	4289                	li	t0,2
 530:	fe5218e3          	bne	tp,t0,520 <test_19+0x2>
 534:	0a500e93          	li	t4,165
 538:	4e4d                	li	t3,19
 53a:	0fd19f63          	bne	gp,t4,638 <fail>

0000053e <test_20>:
 53e:	4201                	li	tp,0
 540:	412d                	li	sp,11
 542:	40b5                	li	ra,13
 544:	022081b3          	mul	gp,ra,sp
 548:	0205                	addi	tp,tp,1
 54a:	4289                	li	t0,2
 54c:	fe521ae3          	bne	tp,t0,540 <test_20+0x2>
 550:	08f00e93          	li	t4,143
 554:	4e51                	li	t3,20
 556:	0fd19163          	bne	gp,t4,638 <fail>

0000055a <test_21>:
 55a:	4201                	li	tp,0
 55c:	412d                	li	sp,11
 55e:	40b9                	li	ra,14
 560:	0001                	nop
 562:	022081b3          	mul	gp,ra,sp
 566:	0205                	addi	tp,tp,1
 568:	4289                	li	t0,2
 56a:	fe5219e3          	bne	tp,t0,55c <test_21+0x2>
 56e:	09a00e93          	li	t4,154
 572:	4e55                	li	t3,21
 574:	0dd19263          	bne	gp,t4,638 <fail>

00000578 <test_22>:
 578:	4201                	li	tp,0
 57a:	412d                	li	sp,11
 57c:	40bd                	li	ra,15
 57e:	0001                	nop
 580:	0001                	nop
 582:	022081b3          	mul	gp,ra,sp
 586:	0205                	addi	tp,tp,1
 588:	4289                	li	t0,2
 58a:	fe5218e3          	bne	tp,t0,57a <test_22+0x2>
 58e:	0a500e93          	li	t4,165
 592:	4e59                	li	t3,22
 594:	0bd19263          	bne	gp,t4,638 <fail>

00000598 <test_23>:
 598:	4201                	li	tp,0
 59a:	412d                	li	sp,11
 59c:	0001                	nop
 59e:	40b5                	li	ra,13
 5a0:	022081b3          	mul	gp,ra,sp
 5a4:	0205                	addi	tp,tp,1
 5a6:	4289                	li	t0,2
 5a8:	fe5219e3          	bne	tp,t0,59a <test_23+0x2>
 5ac:	08f00e93          	li	t4,143
 5b0:	4e5d                	li	t3,23
 5b2:	09d19363          	bne	gp,t4,638 <fail>

000005b6 <test_24>:
 5b6:	4201                	li	tp,0
 5b8:	412d                	li	sp,11
 5ba:	0001                	nop
 5bc:	40b9                	li	ra,14
 5be:	0001                	nop
 5c0:	022081b3          	mul	gp,ra,sp
 5c4:	0205                	addi	tp,tp,1
 5c6:	4289                	li	t0,2
 5c8:	fe5218e3          	bne	tp,t0,5b8 <test_24+0x2>
 5cc:	09a00e93          	li	t4,154
 5d0:	4e61                	li	t3,24
 5d2:	07d19363          	bne	gp,t4,638 <fail>

000005d6 <test_25>:
 5d6:	4201                	li	tp,0
 5d8:	412d                	li	sp,11
 5da:	0001                	nop
 5dc:	0001                	nop
 5de:	40bd                	li	ra,15
 5e0:	022081b3          	mul	gp,ra,sp
 5e4:	0205                	addi	tp,tp,1
 5e6:	4289                	li	t0,2
 5e8:	fe5218e3          	bne	tp,t0,5d8 <test_25+0x2>
 5ec:	0a500e93          	li	t4,165
 5f0:	4e65                	li	t3,25
 5f2:	05d19363          	bne	gp,t4,638 <fail>

000005f6 <test_26>:
 5f6:	40fd                	li	ra,31
 5f8:	02100133          	mul	sp,zero,ra
 5fc:	4e81                	li	t4,0
 5fe:	4e69                	li	t3,26
 600:	03d11c63          	bne	sp,t4,638 <fail>

00000604 <test_27>:
 604:	02000093          	li	ra,32
 608:	02008133          	mul	sp,ra,zero
 60c:	4e81                	li	t4,0
 60e:	4e6d                	li	t3,27
 610:	03d11463          	bne	sp,t4,638 <fail>

00000614 <test_28>:
 614:	020000b3          	mul	ra,zero,zero
 618:	4e81                	li	t4,0
 61a:	4e71                	li	t3,28
 61c:	01d09e63          	bne	ra,t4,638 <fail>

00000620 <test_29>:
 620:	02100093          	li	ra,33
 624:	02200113          	li	sp,34
 628:	02208033          	mul	zero,ra,sp
 62c:	4e81                	li	t4,0
 62e:	4e75                	li	t3,29
 630:	01d01463          	bne	zero,t4,638 <fail>
 634:	01c01863          	bne	zero,t3,644 <pass>

00000638 <fail>:
 638:	0ff0000f          	fence
 63c:	85f2                	mv	a1,t3
 63e:	4505                	li	a0,1
 640:	00000073          	ecall

00000644 <pass>:
 644:	0ff0000f          	fence
 648:	85f2                	mv	a1,t3
 64a:	4501                	li	a0,0
 64c:	00000073          	ecall

00000650 <ecall>:
 650:	00000073          	ecall
	...

00000660 <sc_exit>:
 660:	a95ff06f          	j	f4 <SIM_EXIT>
 664:	00000013          	nop
 668:	00000013          	nop
 66c:	00000013          	nop
 670:	00000013          	nop
 674:	00000013          	nop
 678:	00000013          	nop
 67c:	00000013          	nop
	...

Disassembly of section .tohost:

000006c0 <tohost>:
	...

00000700 <fromhost>:
	...
