
/home/xxxx/github/scr1/build/mulh.elf:     file format elf32-littleriscv


Disassembly of section .text.init:

00000000 <SIM_EXIT-0xf4>:
	...

000000f4 <SIM_EXIT>:
  f4:	00000013          	nop

000000f8 <SIM_STOP>:
  f8:	0000006f          	j	f8 <SIM_STOP>
  fc:	ffff                	0xffff
  fe:	ffff                	0xffff
	...

000001c0 <trap_vector>:
 1c0:	34202f73          	csrr	t5,mcause
 1c4:	4fa1                	li	t6,8
 1c6:	03ff0563          	beq	t5,t6,1f0 <_report>
 1ca:	4fa5                	li	t6,9
 1cc:	03ff0263          	beq	t5,t6,1f0 <_report>
 1d0:	4fad                	li	t6,11
 1d2:	01ff0f63          	beq	t5,t6,1f0 <_report>
 1d6:	00000f17          	auipc	t5,0x0
 1da:	e2af0f13          	addi	t5,t5,-470 # 0 <CL_SIZE-0x20>
 1de:	000f0363          	beqz	t5,1e4 <trap_vector+0x24>
 1e2:	8f02                	jr	t5
 1e4:	34202f73          	csrr	t5,mcause
 1e8:	000f5363          	bgez	t5,1ee <handle_exception>
 1ec:	a009                	j	1ee <handle_exception>

000001ee <handle_exception>:
 1ee:	4505                	li	a0,1

000001f0 <_report>:
 1f0:	4b00006f          	j	6a0 <sc_exit>
 1f4:	00000013          	nop
 1f8:	00000013          	nop
 1fc:	00000013          	nop

00000200 <_start>:
 200:	f1402573          	csrr	a0,mhartid
 204:	e101                	bnez	a0,204 <_start+0x4>
 206:	4e01                	li	t3,0
 208:	00000297          	auipc	t0,0x0
 20c:	fb828293          	addi	t0,t0,-72 # 1c0 <trap_vector>
 210:	30529073          	csrw	mtvec,t0
 214:	4505                	li	a0,1
 216:	057e                	slli	a0,a0,0x1f
 218:	00054863          	bltz	a0,228 <_start+0x28>
 21c:	0ff0000f          	fence
 220:	85f2                	mv	a1,t3
 222:	4501                	li	a0,0
 224:	00000073          	ecall
 228:	00000297          	auipc	t0,0x0
 22c:	dd828293          	addi	t0,t0,-552 # 0 <CL_SIZE-0x20>
 230:	00028e63          	beqz	t0,24c <_start+0x4c>
 234:	10529073          	csrw	stvec,t0
 238:	0000b2b7          	lui	t0,0xb
 23c:	10928293          	addi	t0,t0,265 # b109 <_gp+0xa1c1>
 240:	30229073          	csrw	medeleg,t0
 244:	30202373          	csrr	t1,medeleg
 248:	fa6293e3          	bne	t0,t1,1ee <handle_exception>
 24c:	30005073          	csrwi	mstatus,0
 250:	00000297          	auipc	t0,0x0
 254:	05028293          	addi	t0,t0,80 # 2a0 <_run_test>
 258:	34129073          	csrw	mepc,t0
 25c:	f1402573          	csrr	a0,mhartid
 260:	30200073          	mret
	...

Disassembly of section .text:

000002a0 <_run_test>:
 2a0:	4081                	li	ra,0
 2a2:	4101                	li	sp,0
 2a4:	022091b3          	mulh	gp,ra,sp
 2a8:	4e81                	li	t4,0
 2aa:	4e09                	li	t3,2
 2ac:	3dd19963          	bne	gp,t4,67e <fail>

000002b0 <test_3>:
 2b0:	4085                	li	ra,1
 2b2:	4105                	li	sp,1
 2b4:	022091b3          	mulh	gp,ra,sp
 2b8:	4e81                	li	t4,0
 2ba:	4e0d                	li	t3,3
 2bc:	3dd19163          	bne	gp,t4,67e <fail>

000002c0 <test_4>:
 2c0:	408d                	li	ra,3
 2c2:	411d                	li	sp,7
 2c4:	022091b3          	mulh	gp,ra,sp
 2c8:	4e81                	li	t4,0
 2ca:	4e11                	li	t3,4
 2cc:	3bd19963          	bne	gp,t4,67e <fail>

000002d0 <test_5>:
 2d0:	4081                	li	ra,0
 2d2:	ffff8137          	lui	sp,0xffff8
 2d6:	022091b3          	mulh	gp,ra,sp
 2da:	4e81                	li	t4,0
 2dc:	4e15                	li	t3,5
 2de:	3bd19063          	bne	gp,t4,67e <fail>

000002e2 <test_6>:
 2e2:	800000b7          	lui	ra,0x80000
 2e6:	4101                	li	sp,0
 2e8:	022091b3          	mulh	gp,ra,sp
 2ec:	4e81                	li	t4,0
 2ee:	4e19                	li	t3,6
 2f0:	39d19763          	bne	gp,t4,67e <fail>

000002f4 <test_7>:
 2f4:	800000b7          	lui	ra,0x80000
 2f8:	4101                	li	sp,0
 2fa:	022091b3          	mulh	gp,ra,sp
 2fe:	4e81                	li	t4,0
 300:	4e1d                	li	t3,7
 302:	37d19e63          	bne	gp,t4,67e <fail>

00000306 <test_30>:
 306:	aaaab0b7          	lui	ra,0xaaaab
 30a:	aab08093          	addi	ra,ra,-1365 # aaaaaaab <_gp+0xaaaa9b63>
 30e:	00030137          	lui	sp,0x30
 312:	e7d10113          	addi	sp,sp,-387 # 2fe7d <_gp+0x2ef35>
 316:	022091b3          	mulh	gp,ra,sp
 31a:	ffff0eb7          	lui	t4,0xffff0
 31e:	081e8e93          	addi	t4,t4,129 # ffff0081 <_gp+0xfffef139>
 322:	4e79                	li	t3,30
 324:	35d19d63          	bne	gp,t4,67e <fail>

00000328 <test_31>:
 328:	000300b7          	lui	ra,0x30
 32c:	e7d08093          	addi	ra,ra,-387 # 2fe7d <_gp+0x2ef35>
 330:	aaaab137          	lui	sp,0xaaaab
 334:	aab10113          	addi	sp,sp,-1365 # aaaaaaab <_gp+0xaaaa9b63>
 338:	022091b3          	mulh	gp,ra,sp
 33c:	ffff0eb7          	lui	t4,0xffff0
 340:	081e8e93          	addi	t4,t4,129 # ffff0081 <_gp+0xfffef139>
 344:	4e7d                	li	t3,31
 346:	33d19c63          	bne	gp,t4,67e <fail>

0000034a <test_32>:
 34a:	ff0000b7          	lui	ra,0xff000
 34e:	ff000137          	lui	sp,0xff000
 352:	022091b3          	mulh	gp,ra,sp
 356:	6ec1                	lui	t4,0x10
 358:	02000e13          	li	t3,32
 35c:	33d19163          	bne	gp,t4,67e <fail>

00000360 <test_33>:
 360:	fff00093          	li	ra,-1
 364:	fff00113          	li	sp,-1
 368:	022091b3          	mulh	gp,ra,sp
 36c:	4e81                	li	t4,0
 36e:	02100e13          	li	t3,33
 372:	31d19663          	bne	gp,t4,67e <fail>

00000376 <test_34>:
 376:	fff00093          	li	ra,-1
 37a:	4105                	li	sp,1
 37c:	022091b3          	mulh	gp,ra,sp
 380:	fff00e93          	li	t4,-1
 384:	02200e13          	li	t3,34
 388:	2fd19b63          	bne	gp,t4,67e <fail>

0000038c <test_35>:
 38c:	4085                	li	ra,1
 38e:	fff00113          	li	sp,-1
 392:	022091b3          	mulh	gp,ra,sp
 396:	fff00e93          	li	t4,-1
 39a:	02300e13          	li	t3,35
 39e:	2fd19063          	bne	gp,t4,67e <fail>

000003a2 <test_8>:
 3a2:	00d000b7          	lui	ra,0xd00
 3a6:	00b00137          	lui	sp,0xb00
 3aa:	022090b3          	mulh	ra,ra,sp
 3ae:	00009eb7          	lui	t4,0x9
 3b2:	f00e8e93          	addi	t4,t4,-256 # 8f00 <_gp+0x7fb8>
 3b6:	4e21                	li	t3,8
 3b8:	2dd09363          	bne	ra,t4,67e <fail>

000003bc <test_9>:
 3bc:	00e000b7          	lui	ra,0xe00
 3c0:	00b00137          	lui	sp,0xb00
 3c4:	02209133          	mulh	sp,ra,sp
 3c8:	0000aeb7          	lui	t4,0xa
 3cc:	a00e8e93          	addi	t4,t4,-1536 # 9a00 <_gp+0x8ab8>
 3d0:	4e25                	li	t3,9
 3d2:	2bd11663          	bne	sp,t4,67e <fail>

000003d6 <test_10>:
 3d6:	00d000b7          	lui	ra,0xd00
 3da:	021090b3          	mulh	ra,ra,ra
 3de:	0000beb7          	lui	t4,0xb
 3e2:	900e8e93          	addi	t4,t4,-1792 # a900 <_gp+0x99b8>
 3e6:	4e29                	li	t3,10
 3e8:	29d09b63          	bne	ra,t4,67e <fail>

000003ec <test_11>:
 3ec:	4201                	li	tp,0
 3ee:	00d000b7          	lui	ra,0xd00
 3f2:	00b00137          	lui	sp,0xb00
 3f6:	022091b3          	mulh	gp,ra,sp
 3fa:	00018313          	mv	t1,gp
 3fe:	0205                	addi	tp,tp,1
 400:	4289                	li	t0,2
 402:	fe5216e3          	bne	tp,t0,3ee <test_11+0x2>
 406:	00009eb7          	lui	t4,0x9
 40a:	f00e8e93          	addi	t4,t4,-256 # 8f00 <_gp+0x7fb8>
 40e:	4e2d                	li	t3,11
 410:	27d31763          	bne	t1,t4,67e <fail>

00000414 <test_12>:
 414:	4201                	li	tp,0
 416:	00e000b7          	lui	ra,0xe00
 41a:	00b00137          	lui	sp,0xb00
 41e:	022091b3          	mulh	gp,ra,sp
 422:	0001                	nop
 424:	00018313          	mv	t1,gp
 428:	0205                	addi	tp,tp,1
 42a:	4289                	li	t0,2
 42c:	fe5215e3          	bne	tp,t0,416 <test_12+0x2>
 430:	0000aeb7          	lui	t4,0xa
 434:	a00e8e93          	addi	t4,t4,-1536 # 9a00 <_gp+0x8ab8>
 438:	4e31                	li	t3,12
 43a:	25d31263          	bne	t1,t4,67e <fail>

0000043e <test_13>:
 43e:	4201                	li	tp,0
 440:	00f000b7          	lui	ra,0xf00
 444:	00b00137          	lui	sp,0xb00
 448:	022091b3          	mulh	gp,ra,sp
 44c:	0001                	nop
 44e:	0001                	nop
 450:	00018313          	mv	t1,gp
 454:	0205                	addi	tp,tp,1
 456:	4289                	li	t0,2
 458:	fe5214e3          	bne	tp,t0,440 <test_13+0x2>
 45c:	0000aeb7          	lui	t4,0xa
 460:	500e8e93          	addi	t4,t4,1280 # a500 <_gp+0x95b8>
 464:	4e35                	li	t3,13
 466:	21d31c63          	bne	t1,t4,67e <fail>

0000046a <test_14>:
 46a:	4201                	li	tp,0
 46c:	00d000b7          	lui	ra,0xd00
 470:	00b00137          	lui	sp,0xb00
 474:	022091b3          	mulh	gp,ra,sp
 478:	0205                	addi	tp,tp,1
 47a:	4289                	li	t0,2
 47c:	fe5218e3          	bne	tp,t0,46c <test_14+0x2>
 480:	00009eb7          	lui	t4,0x9
 484:	f00e8e93          	addi	t4,t4,-256 # 8f00 <_gp+0x7fb8>
 488:	4e39                	li	t3,14
 48a:	1fd19a63          	bne	gp,t4,67e <fail>

0000048e <test_15>:
 48e:	4201                	li	tp,0
 490:	00e000b7          	lui	ra,0xe00
 494:	00b00137          	lui	sp,0xb00
 498:	0001                	nop
 49a:	022091b3          	mulh	gp,ra,sp
 49e:	0205                	addi	tp,tp,1
 4a0:	4289                	li	t0,2
 4a2:	fe5217e3          	bne	tp,t0,490 <test_15+0x2>
 4a6:	0000aeb7          	lui	t4,0xa
 4aa:	a00e8e93          	addi	t4,t4,-1536 # 9a00 <_gp+0x8ab8>
 4ae:	4e3d                	li	t3,15
 4b0:	1dd19763          	bne	gp,t4,67e <fail>

000004b4 <test_16>:
 4b4:	4201                	li	tp,0
 4b6:	00f000b7          	lui	ra,0xf00
 4ba:	00b00137          	lui	sp,0xb00
 4be:	0001                	nop
 4c0:	0001                	nop
 4c2:	022091b3          	mulh	gp,ra,sp
 4c6:	0205                	addi	tp,tp,1
 4c8:	4289                	li	t0,2
 4ca:	fe5216e3          	bne	tp,t0,4b6 <test_16+0x2>
 4ce:	0000aeb7          	lui	t4,0xa
 4d2:	500e8e93          	addi	t4,t4,1280 # a500 <_gp+0x95b8>
 4d6:	4e41                	li	t3,16
 4d8:	1bd19363          	bne	gp,t4,67e <fail>

000004dc <test_17>:
 4dc:	4201                	li	tp,0
 4de:	00d000b7          	lui	ra,0xd00
 4e2:	0001                	nop
 4e4:	00b00137          	lui	sp,0xb00
 4e8:	022091b3          	mulh	gp,ra,sp
 4ec:	0205                	addi	tp,tp,1
 4ee:	4289                	li	t0,2
 4f0:	fe5217e3          	bne	tp,t0,4de <test_17+0x2>
 4f4:	00009eb7          	lui	t4,0x9
 4f8:	f00e8e93          	addi	t4,t4,-256 # 8f00 <_gp+0x7fb8>
 4fc:	4e45                	li	t3,17
 4fe:	19d19063          	bne	gp,t4,67e <fail>

00000502 <test_18>:
 502:	4201                	li	tp,0
 504:	00e000b7          	lui	ra,0xe00
 508:	0001                	nop
 50a:	00b00137          	lui	sp,0xb00
 50e:	0001                	nop
 510:	022091b3          	mulh	gp,ra,sp
 514:	0205                	addi	tp,tp,1
 516:	4289                	li	t0,2
 518:	fe5216e3          	bne	tp,t0,504 <test_18+0x2>
 51c:	0000aeb7          	lui	t4,0xa
 520:	a00e8e93          	addi	t4,t4,-1536 # 9a00 <_gp+0x8ab8>
 524:	4e49                	li	t3,18
 526:	15d19c63          	bne	gp,t4,67e <fail>

0000052a <test_19>:
 52a:	4201                	li	tp,0
 52c:	00f000b7          	lui	ra,0xf00
 530:	0001                	nop
 532:	0001                	nop
 534:	00b00137          	lui	sp,0xb00
 538:	022091b3          	mulh	gp,ra,sp
 53c:	0205                	addi	tp,tp,1
 53e:	4289                	li	t0,2
 540:	fe5216e3          	bne	tp,t0,52c <test_19+0x2>
 544:	0000aeb7          	lui	t4,0xa
 548:	500e8e93          	addi	t4,t4,1280 # a500 <_gp+0x95b8>
 54c:	4e4d                	li	t3,19
 54e:	13d19863          	bne	gp,t4,67e <fail>

00000552 <test_20>:
 552:	4201                	li	tp,0
 554:	00b00137          	lui	sp,0xb00
 558:	00d000b7          	lui	ra,0xd00
 55c:	022091b3          	mulh	gp,ra,sp
 560:	0205                	addi	tp,tp,1
 562:	4289                	li	t0,2
 564:	fe5218e3          	bne	tp,t0,554 <test_20+0x2>
 568:	00009eb7          	lui	t4,0x9
 56c:	f00e8e93          	addi	t4,t4,-256 # 8f00 <_gp+0x7fb8>
 570:	4e51                	li	t3,20
 572:	11d19663          	bne	gp,t4,67e <fail>

00000576 <test_21>:
 576:	4201                	li	tp,0
 578:	00b00137          	lui	sp,0xb00
 57c:	00e000b7          	lui	ra,0xe00
 580:	0001                	nop
 582:	022091b3          	mulh	gp,ra,sp
 586:	0205                	addi	tp,tp,1
 588:	4289                	li	t0,2
 58a:	fe5217e3          	bne	tp,t0,578 <test_21+0x2>
 58e:	0000aeb7          	lui	t4,0xa
 592:	a00e8e93          	addi	t4,t4,-1536 # 9a00 <_gp+0x8ab8>
 596:	4e55                	li	t3,21
 598:	0fd19363          	bne	gp,t4,67e <fail>

0000059c <test_22>:
 59c:	4201                	li	tp,0
 59e:	00b00137          	lui	sp,0xb00
 5a2:	00f000b7          	lui	ra,0xf00
 5a6:	0001                	nop
 5a8:	0001                	nop
 5aa:	022091b3          	mulh	gp,ra,sp
 5ae:	0205                	addi	tp,tp,1
 5b0:	4289                	li	t0,2
 5b2:	fe5216e3          	bne	tp,t0,59e <test_22+0x2>
 5b6:	0000aeb7          	lui	t4,0xa
 5ba:	500e8e93          	addi	t4,t4,1280 # a500 <_gp+0x95b8>
 5be:	4e59                	li	t3,22
 5c0:	0bd19f63          	bne	gp,t4,67e <fail>

000005c4 <test_23>:
 5c4:	4201                	li	tp,0
 5c6:	00b00137          	lui	sp,0xb00
 5ca:	0001                	nop
 5cc:	00d000b7          	lui	ra,0xd00
 5d0:	022091b3          	mulh	gp,ra,sp
 5d4:	0205                	addi	tp,tp,1
 5d6:	4289                	li	t0,2
 5d8:	fe5217e3          	bne	tp,t0,5c6 <test_23+0x2>
 5dc:	00009eb7          	lui	t4,0x9
 5e0:	f00e8e93          	addi	t4,t4,-256 # 8f00 <_gp+0x7fb8>
 5e4:	4e5d                	li	t3,23
 5e6:	09d19c63          	bne	gp,t4,67e <fail>

000005ea <test_24>:
 5ea:	4201                	li	tp,0
 5ec:	00b00137          	lui	sp,0xb00
 5f0:	0001                	nop
 5f2:	00e000b7          	lui	ra,0xe00
 5f6:	0001                	nop
 5f8:	022091b3          	mulh	gp,ra,sp
 5fc:	0205                	addi	tp,tp,1
 5fe:	4289                	li	t0,2
 600:	fe5216e3          	bne	tp,t0,5ec <test_24+0x2>
 604:	0000aeb7          	lui	t4,0xa
 608:	a00e8e93          	addi	t4,t4,-1536 # 9a00 <_gp+0x8ab8>
 60c:	4e61                	li	t3,24
 60e:	07d19863          	bne	gp,t4,67e <fail>

00000612 <test_25>:
 612:	4201                	li	tp,0
 614:	00b00137          	lui	sp,0xb00
 618:	0001                	nop
 61a:	0001                	nop
 61c:	00f000b7          	lui	ra,0xf00
 620:	022091b3          	mulh	gp,ra,sp
 624:	0205                	addi	tp,tp,1
 626:	4289                	li	t0,2
 628:	fe5216e3          	bne	tp,t0,614 <test_25+0x2>
 62c:	0000aeb7          	lui	t4,0xa
 630:	500e8e93          	addi	t4,t4,1280 # a500 <_gp+0x95b8>
 634:	4e65                	li	t3,25
 636:	05d19463          	bne	gp,t4,67e <fail>

0000063a <test_26>:
 63a:	7c0000b7          	lui	ra,0x7c000
 63e:	02101133          	mulh	sp,zero,ra
 642:	4e81                	li	t4,0
 644:	4e69                	li	t3,26
 646:	03d11c63          	bne	sp,t4,67e <fail>

0000064a <test_27>:
 64a:	800000b7          	lui	ra,0x80000
 64e:	02009133          	mulh	sp,ra,zero
 652:	4e81                	li	t4,0
 654:	4e6d                	li	t3,27
 656:	03d11463          	bne	sp,t4,67e <fail>

0000065a <test_28>:
 65a:	020010b3          	mulh	ra,zero,zero
 65e:	4e81                	li	t4,0
 660:	4e71                	li	t3,28
 662:	01d09e63          	bne	ra,t4,67e <fail>

00000666 <test_29>:
 666:	021000b7          	lui	ra,0x2100
 66a:	02200137          	lui	sp,0x2200
 66e:	02209033          	mulh	zero,ra,sp
 672:	4e81                	li	t4,0
 674:	4e75                	li	t3,29
 676:	01d01463          	bne	zero,t4,67e <fail>
 67a:	01c01863          	bne	zero,t3,68a <pass>

0000067e <fail>:
 67e:	0ff0000f          	fence
 682:	85f2                	mv	a1,t3
 684:	4505                	li	a0,1
 686:	00000073          	ecall

0000068a <pass>:
 68a:	0ff0000f          	fence
 68e:	85f2                	mv	a1,t3
 690:	4501                	li	a0,0
 692:	00000073          	ecall

00000696 <ecall>:
 696:	00000073          	ecall
 69a:	0000                	unimp
 69c:	0000                	unimp
	...

000006a0 <sc_exit>:
 6a0:	a55ff06f          	j	f4 <SIM_EXIT>
 6a4:	00000013          	nop
 6a8:	00000013          	nop
 6ac:	00000013          	nop
 6b0:	00000013          	nop
 6b4:	00000013          	nop
 6b8:	00000013          	nop
 6bc:	00000013          	nop
	...

Disassembly of section .tohost:

00000700 <tohost>:
	...

00000740 <fromhost>:
	...
