
/home/xxxx/github/scr1/build/rem.elf:     file format elf32-littleriscv


Disassembly of section .text.init:

00000000 <SIM_EXIT-0xf4>:
	...

000000f4 <SIM_EXIT>:
  f4:	00000013          	nop

000000f8 <SIM_STOP>:
  f8:	0000006f          	j	f8 <SIM_STOP>
  fc:	ffff                	0xffff
  fe:	ffff                	0xffff
	...

000001c0 <trap_vector>:
 1c0:	34202f73          	csrr	t5,mcause
 1c4:	4fa1                	li	t6,8
 1c6:	03ff0563          	beq	t5,t6,1f0 <_report>
 1ca:	4fa5                	li	t6,9
 1cc:	03ff0263          	beq	t5,t6,1f0 <_report>
 1d0:	4fad                	li	t6,11
 1d2:	01ff0f63          	beq	t5,t6,1f0 <_report>
 1d6:	00000f17          	auipc	t5,0x0
 1da:	e2af0f13          	addi	t5,t5,-470 # 0 <CL_SIZE-0x20>
 1de:	000f0363          	beqz	t5,1e4 <trap_vector+0x24>
 1e2:	8f02                	jr	t5
 1e4:	34202f73          	csrr	t5,mcause
 1e8:	000f5363          	bgez	t5,1ee <handle_exception>
 1ec:	a009                	j	1ee <handle_exception>

000001ee <handle_exception>:
 1ee:	4505                	li	a0,1

000001f0 <_report>:
 1f0:	1700006f          	j	360 <sc_exit>
 1f4:	00000013          	nop
 1f8:	00000013          	nop
 1fc:	00000013          	nop

00000200 <_start>:
 200:	f1402573          	csrr	a0,mhartid
 204:	e101                	bnez	a0,204 <_start+0x4>
 206:	4e01                	li	t3,0
 208:	00000297          	auipc	t0,0x0
 20c:	fb828293          	addi	t0,t0,-72 # 1c0 <trap_vector>
 210:	30529073          	csrw	mtvec,t0
 214:	4505                	li	a0,1
 216:	057e                	slli	a0,a0,0x1f
 218:	00054863          	bltz	a0,228 <_start+0x28>
 21c:	0ff0000f          	fence
 220:	85f2                	mv	a1,t3
 222:	4501                	li	a0,0
 224:	00000073          	ecall
 228:	00000297          	auipc	t0,0x0
 22c:	dd828293          	addi	t0,t0,-552 # 0 <CL_SIZE-0x20>
 230:	00028e63          	beqz	t0,24c <_start+0x4c>
 234:	10529073          	csrw	stvec,t0
 238:	0000b2b7          	lui	t0,0xb
 23c:	10928293          	addi	t0,t0,265 # b109 <_gp+0xa501>
 240:	30229073          	csrw	medeleg,t0
 244:	30202373          	csrr	t1,medeleg
 248:	fa6293e3          	bne	t0,t1,1ee <handle_exception>
 24c:	30005073          	csrwi	mstatus,0
 250:	00000297          	auipc	t0,0x0
 254:	05028293          	addi	t0,t0,80 # 2a0 <_run_test>
 258:	34129073          	csrw	mepc,t0
 25c:	f1402573          	csrr	a0,mhartid
 260:	30200073          	mret
	...

Disassembly of section .text:

000002a0 <_run_test>:
 2a0:	40d1                	li	ra,20
 2a2:	4119                	li	sp,6
 2a4:	0220e1b3          	rem	gp,ra,sp
 2a8:	4e89                	li	t4,2
 2aa:	4e09                	li	t3,2
 2ac:	09d19b63          	bne	gp,t4,342 <fail>

000002b0 <test_3>:
 2b0:	fec00093          	li	ra,-20
 2b4:	4119                	li	sp,6
 2b6:	0220e1b3          	rem	gp,ra,sp
 2ba:	ffe00e93          	li	t4,-2
 2be:	4e0d                	li	t3,3
 2c0:	09d19163          	bne	gp,t4,342 <fail>

000002c4 <test_4>:
 2c4:	40d1                	li	ra,20
 2c6:	ffa00113          	li	sp,-6
 2ca:	0220e1b3          	rem	gp,ra,sp
 2ce:	4e89                	li	t4,2
 2d0:	4e11                	li	t3,4
 2d2:	07d19863          	bne	gp,t4,342 <fail>

000002d6 <test_5>:
 2d6:	fec00093          	li	ra,-20
 2da:	ffa00113          	li	sp,-6
 2de:	0220e1b3          	rem	gp,ra,sp
 2e2:	ffe00e93          	li	t4,-2
 2e6:	4e15                	li	t3,5
 2e8:	05d19d63          	bne	gp,t4,342 <fail>

000002ec <test_6>:
 2ec:	4081                	li	ra,0
 2ee:	4105                	li	sp,1
 2f0:	0220e1b3          	rem	gp,ra,sp
 2f4:	4e81                	li	t4,0
 2f6:	4e19                	li	t3,6
 2f8:	05d19563          	bne	gp,t4,342 <fail>

000002fc <test_7>:
 2fc:	4081                	li	ra,0
 2fe:	fff00113          	li	sp,-1
 302:	0220e1b3          	rem	gp,ra,sp
 306:	4e81                	li	t4,0
 308:	4e1d                	li	t3,7
 30a:	03d19c63          	bne	gp,t4,342 <fail>

0000030e <test_8>:
 30e:	4081                	li	ra,0
 310:	4101                	li	sp,0
 312:	0220e1b3          	rem	gp,ra,sp
 316:	4e81                	li	t4,0
 318:	4e21                	li	t3,8
 31a:	03d19463          	bne	gp,t4,342 <fail>

0000031e <test_9>:
 31e:	4085                	li	ra,1
 320:	4101                	li	sp,0
 322:	0220e1b3          	rem	gp,ra,sp
 326:	4e85                	li	t4,1
 328:	4e25                	li	t3,9
 32a:	01d19c63          	bne	gp,t4,342 <fail>

0000032e <test_10>:
 32e:	4081                	li	ra,0
 330:	4101                	li	sp,0
 332:	0220e1b3          	rem	gp,ra,sp
 336:	4e81                	li	t4,0
 338:	4e29                	li	t3,10
 33a:	01d19463          	bne	gp,t4,342 <fail>
 33e:	01c01863          	bne	zero,t3,34e <pass>

00000342 <fail>:
 342:	0ff0000f          	fence
 346:	85f2                	mv	a1,t3
 348:	4505                	li	a0,1
 34a:	00000073          	ecall

0000034e <pass>:
 34e:	0ff0000f          	fence
 352:	85f2                	mv	a1,t3
 354:	4501                	li	a0,0
 356:	00000073          	ecall

0000035a <ecall>:
 35a:	00000073          	ecall
	...

00000360 <sc_exit>:
 360:	d95ff06f          	j	f4 <SIM_EXIT>
 364:	00000013          	nop
 368:	00000013          	nop
 36c:	00000013          	nop
 370:	00000013          	nop
 374:	00000013          	nop
 378:	00000013          	nop
 37c:	00000013          	nop
	...

Disassembly of section .tohost:

000003c0 <tohost>:
	...

00000400 <fromhost>:
	...
